Microchip MPLAB XC8 Compiler V2.46

Linker command line:

-W-3 --edf=D:\MPLABXC8\pic\dat\20240104201356_en.msgs -cn \
  -h+dist/default/debug\UartV2.X.debug.sym \
  --cmf=dist/default/debug\UartV2.X.debug.cmf -z -Q18F25K22 \
  -oC:\Users\matgu\AppData\Local\Temp\xcAseic.\driver_tmp_3.o \
  --defsym=__MPLAB_BUILD=1 --fixupoverflow=error \
  -Mdist/default/debug/UartV2.X.debug.map \
  --md=C:\Users\matgu\AppData\Local\Temp\xcAseic.\driver_tmp_0.dat -E1 \
  -ver=XC8 Compiler --acfsm=1493 -ACODE=00h-07FFFh -ACONST=00h-07FFFh \
  -ASMALLCONST=0600h-06FFhx122 -AMEDIUMCONST=0600h-07FFFh -ACOMRAM=01h-05Fh \
  -AABS1=00h-05FFh -ABIGRAM=01h-05FFh -ARAM=060h-0FFh,0100h-01FFhx5 \
  -ABANK0=060h-0FFh -ABANK1=0100h-01FFh -ABANK2=0200h-02FFh \
  -ABANK3=0300h-03FFh -ABANK4=0400h-04FFh -ABANK5=0500h-05FFh \
  -ASFR=0F38h-0F5Fh,0F60h-0FFFh -ABIGSFR=0F38h-0FFFh \
  -ACONFIG=0300000h-030000Dh -AIDLOC=0200000h-0200007h \
  -AEEDATA=0F00000h-0F000FFh -peeprom_data=EEDATA \
  -preset_vec=00h,intcode=8h,intcodelo,powerup,init -pramtop=0600h \
  -psmallconst=SMALLCONST -pmediumconst=MEDIUMCONST -pconst=CONST \
  -AFARRAM=00h-00h \
  -prdata=COMRAM,nvrram=COMRAM,nvbit=COMRAM,rbss=COMRAM,rbit=COMRAM \
  -pfarbss=FARRAM,fardata=FARRAM,nvFARRAM=FARRAM \
  -pintsave_regs=BIGRAM,bigbss=BIGRAM,bigdata=BIGRAM -pbss=RAM \
  -pidata=CODE,irdata=CODE,ibigdata=CODE,ifardata=CODE -prparam=COMRAM \
  C:\Users\matgu\AppData\Local\Temp\xcAseic.\driver_tmp_14.o \
  dist/default/debug\UartV2.X.debug.o 

Object code version is 3.11

Machine type is 18F25K22



                Name                               Link     Load   Length Selector   Space Scale
C:\Users\matgu\AppData\Local\Temp\xcAseic.\driver_tmp_14.o
                config                           300000   300000        E        0       4
                init                                 A0       A0        4        4       0
                reset_vec                             0        0        4        0       0
dist/default/debug\UartV2.X.debug.o
                intcode                               8        8       98        4       0
                config                           300000   300000        E        0       4
                temp                                 4F       4F        1        1       1
                smallconst                          600      600       D6      300       0
                text16                              E64      E64        4      36B       0
                text15                              E4A      E4A       16      36B       0
                text14                              CAA      CAA       84      36B       0
                text12                              DA4      DA4       36      36B       0
                text11                              E60      E60        4      36B       0
                text10                              E34      E34       16      36B       0
                text9                               C26      C26       84      36B       0
                text8                               A08      A08       C4      36B       0
                text7                               ACC      ACC       B0      36B       0
                text6                               DDA      DDA       34      36B       0
                text5                               E68      E68        2      36B       0
                text4                               B7C      B7C       AA      36B       0
                text3                               6D6      6D6      1B8      36B       0
                text2                               D2E      D2E       3E      36B       0
                text1                               D6C      D6C       38      36B       0
                text0                               88E      88E      17A      36B       0
                cstackCOMRAM                          1        1       2E        1       1
                cstackBANK0                          B2       B2        D       60       1
                bssBANK0                             60       60       52       60       1
                bssCOMRAM                            2F       2F       20        1       1
                cinit                               E0E      E0E       26      36B       0

TOTAL           Name                               Link     Load   Length     Space
        CLASS   CODE           
                intcode                               8        8       98         0
                init                                 A0       A0        4         0
                reset_vec                             0        0        4         0
                text16                              E64      E64        4         0
                text15                              E4A      E4A       16         0
                text14                              CAA      CAA       84         0
                text12                              DA4      DA4       36         0
                text11                              E60      E60        4         0
                text10                              E34      E34       16         0
                text9                               C26      C26       84         0
                text8                               A08      A08       C4         0
                text7                               ACC      ACC       B0         0
                text6                               DDA      DDA       34         0
                text5                               E68      E68        2         0
                text4                               B7C      B7C       AA         0
                text3                               6D6      6D6      1B8         0
                text2                               D2E      D2E       3E         0
                text1                               D6C      D6C       38         0
                text0                               88E      88E      17A         0
                cinit                               E0E      E0E       26         0

        CLASS   CONST          

        CLASS   SMALLCONST     
                smallconst                          600      600       D6         0

        CLASS   MEDIUMCONST    

        CLASS   COMRAM         
                temp                                 4F       4F        1         1
                cstackCOMRAM                          1        1       2E         1
                bssCOMRAM                            2F       2F       20         1

        CLASS   ABS1           

        CLASS   BIGRAM         

        CLASS   RAM            

        CLASS   BANK0          
                cstackBANK0                          B2       B2        D         1
                bssBANK0                             60       60       52         1

        CLASS   BANK1          

        CLASS   BANK2          

        CLASS   BANK3          

        CLASS   BANK4          

        CLASS   BANK5          

        CLASS   SFR            

        CLASS   BIGSFR         

        CLASS   CONFIG         
                config                           300000   300000        E         4

        CLASS   IDLOC          

        CLASS   EEDATA         

        CLASS   FARRAM         

        CLASS   HEAP           

        CLASS   STACK          



SEGMENTS        Name                           Load    Length   Top    Selector   Space  Class

                reset_vec                      000000  000004  000004         0       0  CODE    
                cstackCOMRAM                   000001  00004F  000050         1       1  COMRAM  
                intcode                        000008  00009C  0000A4         4       0  CODE    
                bssBANK0                       000060  00005F  0000BF        60       1  BANK0   
                smallconst                     000600  0000D6  0006D6       300       0  SMALLCON
                text3                          0006D6  000794  000E6A       36B       0  CODE    


UNUSED ADDRESS RANGES

        Name                Unused          Largest block    Delta
        BANK0            0000BF-0000FF               41
        BANK1            000100-0001FF              100
        BANK2            000200-0002FF              100
        BANK3            000300-0003FF              100
        BANK4            000400-0004FF              100
        BANK5            000500-0005FF              100
        BIGRAM           000050-00005F               10
                         0000BF-0005FF              541
        BIGSFR           000F38-000FFF               C8
        CODE             000004-000007                4
                         0000A4-0005FF              55C
                         000E6A-007FFF             7196
        COMRAM           000050-00005F               10
        CONST            000004-000007                4
                         0000A4-0005FF              55C
                         000E6A-007FFF             7196
        EEDATA           F00000-F000FF              100
        IDLOC            200000-200007                8
        MEDIUMCONST      000E6A-007FFF             7196
        RAM              0000BF-0005FF              100
        SFR              000F38-000FFF               28
        SMALLCONST       000E6A-007FFF              100

                                  Symbol Table

?___awdiv                     cstackCOMRAM 00000D
?___awmod                     cstackCOMRAM 00000D
?_abs                         cstackCOMRAM 000013
?_sprintf                     cstackCOMRAM 000026
?_vfprintf                    cstackCOMRAM 000022
UARTWriteByte@data            cstackCOMRAM 00000D
UARTWriteStrLn@i              cstackCOMRAM 000012
UARTWriteStrLn@string         cstackCOMRAM 00000E
_ANSELCbits                   (abs)        000F3A
_BAUDCON1bits                 (abs)        000FB8
_INTCONbits                   (abs)        000FF2
_OSCCONbits                   (abs)        000FD3
_PEIE                         (abs)        007F96
_PIE1bits                     (abs)        000F9D
_PIR1bits                     (abs)        000F9E
_PIR2bits                     (abs)        000FA1
_RCIE                         (abs)        007CED
_RCIF                         (abs)        007CF5
_RCREG1                       (abs)        000FAE
_RCSTA1                       (abs)        000FAB
_RCSTA1bits                   (abs)        000FAB
_SPBRG1                       (abs)        000FAF
_SPBRGH1                      (abs)        000FB0
_SSP1ADD                      (abs)        000FC8
_SSP1BUF                      (abs)        000FC9
_SSP1CON1                     (abs)        000FC6
_SSP1CON2                     (abs)        000FC5
_SSP1CON2bits                 (abs)        000FC5
_SSP1CON3bits                 (abs)        000FCB
_SSP1STATbits                 (abs)        000FC7
_SerialRxPinInterrupt         intcode      000008
_TRISCbits                    (abs)        000F94
_TXREG1                       (abs)        000FAD
_TXSTA1                       (abs)        000FAC
_TXSTA1bits                   (abs)        000FAC
_UARTInit                     text12       000DA4
_UARTReadByte                 text11       000E60
_UARTWriteByte                text10       000E34
_UARTWriteStrLn               text9        000C26
__HRAM                        (abs)        000000
__H__absolute__               __absolute__ 000000
__Habs1                       abs1         000000
__Hbank0                      bank0        000000
__Hbank1                      bank1        000000
__Hbank2                      bank2        000000
__Hbank3                      bank3        000000
__Hbank4                      bank4        000000
__Hbank5                      bank5        000000
__Hbigbss                     bigbss       000000
__Hbigdata                    bigdata      000000
__Hbigram                     bigram       000000
__Hbigsfr                     bigsfr       000000
__Hbss                        bss          000000
__HbssBANK0                   bssBANK0     000000
__HbssCOMRAM                  bssCOMRAM    000000
__Hcinit                      cinit        000000
__Hclrtext                    clrtext      000000
__Hcomram                     comram       000000
__Hconfig                     config       30000E
__Hconst                      const        000000
__HcstackBANK0                cstackBANK0  000000
__HcstackCOMRAM               cstackCOMRAM 000000
__Hdata                       data         000000
__Heeprom_data                eeprom_data  000000
__Hfarbss                     farbss       000000
__Hfardata                    fardata      000000
__Hheap                       heap         000000
__Hibigdata                   ibigdata     000000
__Hidata                      idata        000000
__Hidloc                      idloc        000000
__Hifardata                   ifardata     000000
__Hinit                       init         0000A4
__Hintcode                    intcode      0000A0
__Hintcode_body               intcode_body 000000
__Hintcodelo                  intcodelo    0000A0
__Hintentry                   intentry     000000
__Hintret                     intret       000000
__Hintsave_regs               intsave_regs 000000
__Hirdata                     irdata       000000
__Hmediumconst                mediumconst  000000
__HnvFARRAM                   nvFARRAM     000000
__Hnvbit                      nvbit        000000
__Hnvrram                     nvrram       000000
__Hparam                      rparam       000000
__Hpowerup                    powerup      0000A0
__Hram                        ram          000000
__Hramtop                     ramtop       000600
__Hrbit                       rbit         000000
__Hrbss                       rbss         000000
__Hrdata                      rdata        000000
__Hreset_vec                  reset_vec    000004
__Hrparam                     rparam       000000
__Hsfr                        sfr          000000
__Hsivt_hi                    sivt_hi      000000
__Hsivt_lo                    sivt_lo      000000
__Hsmallconst                 smallconst   0006D6
__Hspace_0                    (abs)        000E6A
__Hspace_1                    (abs)        0000BF
__Hspace_2                    (abs)        000000
__Hspace_4                    (abs)        60000E
__Hstack                      stack        000000
__Hstruct                     struct       000000
__Htemp                       temp         000050
__Htext                       text         000000
__Htext0                      text0        000000
__Htext1                      text1        000000
__Htext10                     text10       000000
__Htext11                     text11       000000
__Htext12                     text12       000000
__Htext14                     text14       000000
__Htext15                     text15       000000
__Htext16                     text16       000000
__Htext2                      text2        000000
__Htext3                      text3        000000
__Htext4                      text4        000000
__Htext5                      text5        000000
__Htext6                      text6        000000
__Htext7                      text7        000000
__Htext8                      text8        000000
__Htext9                      text9        000000
__LRAM                        (abs)        000001
__L__absolute__               __absolute__ 000000
__Labs1                       abs1         000000
__Lbank0                      bank0        000000
__Lbank1                      bank1        000000
__Lbank2                      bank2        000000
__Lbank3                      bank3        000000
__Lbank4                      bank4        000000
__Lbank5                      bank5        000000
__Lbigbss                     bigbss       000000
__Lbigdata                    bigdata      000000
__Lbigram                     bigram       000000
__Lbigsfr                     bigsfr       000000
__Lbss                        bss          000000
__LbssBANK0                   bssBANK0     000000
__LbssCOMRAM                  bssCOMRAM    000000
__Lcinit                      cinit        000000
__Lclrtext                    clrtext      000000
__Lcomram                     comram       000000
__Lconfig                     config       000000
__Lconst                      const        000000
__LcstackBANK0                cstackBANK0  000000
__LcstackCOMRAM               cstackCOMRAM 000000
__Ldata                       data         000000
__Leeprom_data                eeprom_data  000000
__Lfarbss                     farbss       000000
__Lfardata                    fardata      000000
__Lheap                       heap         000000
__Libigdata                   ibigdata     000000
__Lidata                      idata        000000
__Lidloc                      idloc        000000
__Lifardata                   ifardata     000000
__Linit                       init         0000A0
__Lintcode                    intcode      000008
__Lintcode_body               intcode_body 000000
__Lintcodelo                  intcodelo    0000A0
__Lintentry                   intentry     000000
__Lintret                     intret       000000
__Lintsave_regs               intsave_regs 000000
__Lirdata                     irdata       000000
__Lmediumconst                mediumconst  000000
__LnvFARRAM                   nvFARRAM     000000
__Lnvbit                      nvbit        000000
__Lnvrram                     nvrram       000000
__Lparam                      rparam       000000
__Lpowerup                    powerup      0000A0
__Lram                        ram          000000
__Lramtop                     ramtop       000600
__Lrbit                       rbit         000000
__Lrbss                       rbss         000000
__Lrdata                      rdata        000000
__Lreset_vec                  reset_vec    000000
__Lrparam                     rparam       000000
__Lsfr                        sfr          000000
__Lsivt_hi                    sivt_hi      000000
__Lsivt_lo                    sivt_lo      000000
__Lsmallconst                 smallconst   000600
__Lspace_0                    (abs)        000000
__Lspace_1                    (abs)        000000
__Lspace_2                    (abs)        000000
__Lspace_4                    (abs)        000000
__Lstack                      stack        000000
__Lstruct                     struct       000000
__Ltemp                       temp         00004F
__Ltext                       text         000000
__Ltext0                      text0        000000
__Ltext1                      text1        000000
__Ltext10                     text10       000000
__Ltext11                     text11       000000
__Ltext12                     text12       000000
__Ltext14                     text14       000000
__Ltext15                     text15       000000
__Ltext16                     text16       000000
__Ltext2                      text2        000000
__Ltext3                      text3        000000
__Ltext4                      text4        000000
__Ltext5                      text5        000000
__Ltext6                      text6        000000
__Ltext7                      text7        000000
__Ltext8                      text8        000000
__Ltext9                      text9        000000
__S0                          (abs)        000E6A
__S1                          (abs)        0000BF
__S4                          (abs)        000000
__S5                          (abs)        000000
___awdiv                      text8        000A08
___awdiv@counter              cstackCOMRAM 000011
___awdiv@dividend             cstackCOMRAM 00000D
___awdiv@divisor              cstackCOMRAM 00000F
___awdiv@quotient             cstackCOMRAM 000013
___awdiv@sign                 cstackCOMRAM 000012
___awmod                      text7        000ACC
___awmod@counter              cstackCOMRAM 000011
___awmod@dividend             cstackCOMRAM 00000D
___awmod@divisor              cstackCOMRAM 00000F
___awmod@sign                 cstackCOMRAM 000012
___heap_hi                    (abs)        000000
___heap_lo                    (abs)        000000
___inthi_sp                   stack        000000
___inthi_stack_hi             stack        000000
___inthi_stack_lo             stack        000000
___intlo_sp                   stack        000000
___intlo_stack_hi             stack        000000
___intlo_stack_lo             stack        000000
___param_bank                 (abs)        000000
___rparam_used                (abs)        000001
___sp                         stack        000000
___stack_hi                   stack        000000
___stack_lo                   stack        000000
__accesstop                   (abs)        000060
__activetblptr                (abs)        000002
__end_of_SerialRxPinInterrupt intcode      0000A0
__end_of_UARTInit             text12       000DDA
__end_of_UARTReadByte         text11       000E64
__end_of_UARTWriteByte        text10       000E4A
__end_of_UARTWriteStrLn       text9        000CAA
__end_of___awdiv              text8        000ACC
__end_of___awmod              text7        000B7C
__end_of__initialization      cinit        000E26
__end_of_abs                  text6        000E0E
__end_of_fputc                text4        000C26
__end_of_main                 text0        000A08
__end_of_putch                text5        000E6A
__end_of_sprintf              text1        000DA4
__end_of_vfpfcnvrt            text3        00088E
__end_of_vfprintf             text2        000D6C
__end_ofi2_UARTReadByte       text16       000E68
__end_ofi2_UARTWriteByte      text15       000E60
__end_ofi2_UARTWriteStrLn     text14       000D2E
__initialization              cinit        000E0E
__mediumconst                 mediumconst  000000
__pbssBANK0                   bssBANK0     000060
__pbssCOMRAM                  bssCOMRAM    00002F
__pcinit                      cinit        000E0E
__pcstackBANK0                cstackBANK0  0000B2
__pcstackCOMRAM               cstackCOMRAM 000001
__pintcode                    intcode      000008
__psmallconst                 smallconst   000600
__ptext0                      text0        00088E
__ptext1                      text1        000D6C
__ptext10                     text10       000E34
__ptext11                     text11       000E60
__ptext12                     text12       000DA4
__ptext14                     text14       000CAA
__ptext15                     text15       000E4A
__ptext16                     text16       000E64
__ptext2                      text2        000D2E
__ptext3                      text3        0006D6
__ptext4                      text4        000B7C
__ptext5                      text5        000E68
__ptext6                      text6        000DDA
__ptext7                      text7        000ACC
__ptext8                      text8        000A08
__ptext9                      text9        000C26
__ramtop                      ramtop       000600
__smallconst                  smallconst   000600
_abs                          text6        000DDA
_buffer                       bssBANK0     000080
_dbuf                         bssBANK0     000060
_debut                        bssCOMRAM    00004A
_flags                        bssCOMRAM    000049
_fputc                        text4        000B7C
_i                            bssCOMRAM    000047
_main                         text0        00088E
_myvar                        bssCOMRAM    000043
_pout                         bssCOMRAM    00004D
_prec                         bssCOMRAM    000041
_putch                        text5        000E68
_reg_val                      bssCOMRAM    00004E
_rssi                         bssCOMRAM    000045
_sprintf                      text1        000D6C
_string                       bssCOMRAM    00002F
_txBuffer                     bssCOMRAM    00004C
_txBuffer1                    bssCOMRAM    00004B
_vfpfcnvrt                    text3        0006D6
_vfprintf                     text2        000D2E
_width                        bssCOMRAM    00003F
abs@a                         cstackCOMRAM 000013
btemp                         temp         00004F
end_of_initialization         cinit        000E26
fputc@c                       cstackCOMRAM 00000D
fputc@fp                      cstackCOMRAM 00000F
i2UARTWriteByte@data          cstackCOMRAM 000001
i2UARTWriteStrLn@i            cstackCOMRAM 000006
i2UARTWriteStrLn@string       cstackCOMRAM 000002
i2_UARTReadByte               text16       000E64
i2_UARTWriteByte              text15       000E4A
i2_UARTWriteStrLn             text14       000CAA
int$flags                     temp         00004F
intlevel0                     text         000000
intlevel1                     text         000000
intlevel2                     text         000000
intlevel3                     text         000000
isa$std                       (abs)        000001
isa$xinst                     (abs)        000000
sprintf@ap                    cstackBANK0  0000B2
sprintf@f                     cstackBANK0  0000B3
sprintf@fmt                   cstackCOMRAM 000027
sprintf@s                     cstackCOMRAM 000026
stackhi                       (abs)        000000
stacklo                       (abs)        000000
start                         init         0000A0
start_initialization          cinit        000E0E
ttemp5                        temp         000050
ttemp6                        temp         000053
ttemp7                        temp         000057
vfpfcnvrt@ap                  cstackCOMRAM 000019
vfpfcnvrt@c                   cstackCOMRAM 000021
vfpfcnvrt@convarg             cstackCOMRAM 00001D
vfpfcnvrt@cp                  cstackCOMRAM 00001C
vfpfcnvrt@done                cstackCOMRAM 00001B
vfpfcnvrt@fmt                 cstackCOMRAM 000018
vfpfcnvrt@fp                  cstackCOMRAM 000017
vfprintf@ap                   cstackCOMRAM 000024
vfprintf@cfmt                 cstackCOMRAM 000025
vfprintf@fmt                  cstackCOMRAM 000023
vfprintf@fp                   cstackCOMRAM 000022
wtemp8                        temp         000050


MODULE INFORMATION

Module		Function		Class		Link	Load	Size
uart.c
		_UARTWriteByte 		CODE           	0E34	0000	22
		_UARTInit      		CODE           	0DA4	0000	54
		_UARTReadByte  		CODE           	0E60	0000	4
		_UARTWriteStrLn		CODE           	0C26	0000	132

uart.c estimated size: 212

D:\MPLABXC8\pic\sources\c99\common\awmod.c
		___awmod       		CODE           	0ACC	0000	176

D:\MPLABXC8\pic\sources\c99\common\awmod.c estimated size: 176

D:\MPLABXC8\pic\sources\c99\common\putch.c
		_putch         		CODE           	0E68	0000	2

D:\MPLABXC8\pic\sources\c99\common\putch.c estimated size: 2

D:\MPLABXC8\pic\sources\c99\common\nf_sprintf.c
		_sprintf       		CODE           	0D6C	0000	56

D:\MPLABXC8\pic\sources\c99\common\nf_sprintf.c estimated size: 56

D:\MPLABXC8\pic\sources\c99\common\doprnt.c
		_vfpfcnvrt     		CODE           	06D6	0000	440
		_vfprintf      		CODE           	0D2E	0000	62

D:\MPLABXC8\pic\sources\c99\common\doprnt.c estimated size: 502

D:\MPLABXC8\pic\sources\c99\common\awdiv.c
		___awdiv       		CODE           	0A08	0000	196

D:\MPLABXC8\pic\sources\c99\common\awdiv.c estimated size: 196

shared
		i2_UARTWriteByte		CODE           	0E4A	0000	22
		__initialization		CODE           	0E0E	0000	24
		i2_UARTReadByte		CODE           	0E64	0000	4
		i2_UARTWriteStrLn		CODE           	0CAA	0000	132

shared estimated size: 182

D:\MPLABXC8\pic\sources\c99\common\abs.c
		_abs           		CODE           	0DDA	0000	52

D:\MPLABXC8\pic\sources\c99\common\abs.c estimated size: 52

D:\MPLABXC8\pic\sources\c99\common\nf_fputc.c
		_fputc         		CODE           	0B7C	0000	170

D:\MPLABXC8\pic\sources\c99\common\nf_fputc.c estimated size: 170

main.c
		_SerialRxPinInterrupt		CODE           	0008	0000	152
		_main          		CODE           	088E	0000	378

main.c estimated size: 530

