

Microchip MPLAB XC8 Assembler V2.46 build 20240104201356 
                                                                                               Thu Jun 20 11:35:07 2024

Microchip MPLAB XC8 C Compiler v2.46 (Free license) build 20240104201356 Og1 
     1                           	processor	18F25K22
     2                           	fnconf	rparam,??,?,0
     3                           	pagewidth 120
     4                           	opt	flic
     5                           	psect	idataBANK0,global,class=CODE,delta=1,noexec
     6                           	psect	smallconst,global,reloc=2,class=SMALLCONST,delta=1,noexec
     7                           	psect	cinit,global,reloc=2,class=CODE,delta=1
     8                           	psect	bssCOMRAM,global,class=COMRAM,space=1,delta=1,lowdata,noexec
     9                           	psect	bssBANK0,global,class=BANK0,space=1,delta=1,lowdata,noexec
    10                           	psect	dataBANK0,global,class=BANK0,space=1,delta=1,lowdata,noexec
    11                           	psect	bssBANK1,global,class=BANK1,space=1,delta=1,lowdata,noexec
    12                           	psect	cstackBANK1,global,class=BANK1,space=1,delta=1,lowdata,noexec
    13                           	psect	cstackBANK0,global,class=BANK0,space=1,delta=1,lowdata,noexec
    14                           	psect	cstackCOMRAM,global,class=COMRAM,space=1,delta=1,lowdata,noexec
    15                           	psect	text0,global,reloc=2,class=CODE,delta=1
    16                           	psect	text1,global,reloc=2,class=CODE,delta=1,group=3
    17                           	psect	text2,global,reloc=2,class=CODE,delta=1,group=1
    18                           	psect	text3,global,reloc=2,class=CODE,delta=1,group=1
    19                           	psect	text4,global,reloc=2,class=CODE,delta=1,group=3
    20                           	psect	text5,global,reloc=2,class=CODE,delta=1,group=3
    21                           	psect	text6,global,reloc=2,class=CODE,delta=1
    22                           	psect	text7,global,reloc=2,class=CODE,delta=1
    23                           	psect	text8,global,reloc=2,class=CODE,delta=1
    24                           	psect	text9,global,reloc=2,class=CODE,delta=1
    25                           	psect	text10,global,reloc=2,class=CODE,delta=1
    26                           	psect	text11,global,reloc=2,class=CODE,delta=1
    27                           	psect	text12,global,reloc=2,class=CODE,delta=1
    28                           	psect	text13,global,reloc=2,class=CODE,delta=1
    29                           	psect	text14,global,reloc=2,class=CODE,delta=1
    30                           	psect	text15,global,reloc=2,class=CODE,delta=1
    31                           	psect	text16,global,reloc=2,class=CODE,delta=1
    32                           	psect	text17,global,reloc=2,class=CODE,delta=1
    33                           	psect	text18,global,reloc=2,class=CODE,delta=1
    34                           	psect	text19,global,reloc=2,class=CODE,delta=1
    35                           	psect	text20,global,reloc=2,class=CODE,delta=1
    36                           	psect	text21,global,reloc=2,class=CODE,delta=1
    37                           	psect	text22,global,reloc=2,class=CODE,delta=1
    38                           	psect	text23,global,reloc=2,class=CODE,delta=1
    39                           	psect	text24,global,reloc=2,class=CODE,delta=1,group=2
    40                           	psect	text25,global,reloc=2,class=CODE,delta=1,group=2
    41                           	psect	text26,global,reloc=2,class=CODE,delta=1,group=2
    42                           	psect	text27,global,reloc=2,class=CODE,delta=1,group=2
    43                           	psect	text28,global,reloc=2,class=CODE,delta=1,group=2
    44                           	psect	text29,global,reloc=2,class=CODE,delta=1,group=2
    45                           	psect	intcode,global,reloc=2,class=CODE,delta=1
    46                           	psect	text31,global,reloc=2,class=CODE,delta=1
    47                           	psect	text32,global,reloc=2,class=CODE,delta=1
    48                           	psect	text33,global,reloc=2,class=CODE,delta=1
    49                           	psect	intsave_regs,global,class=BIGRAM,space=1,delta=1,noexec
    50                           	psect	rparam,global,class=COMRAM,space=1,delta=1,noexec
    51                           	psect	temp,global,ovrld,common,class=COMRAM,space=1,delta=1,lowdata
    52                           	psect	config,global,abs,ovrld,class=CONFIG,space=4,delta=1,noexec
    53   000000                     
    54                           ; Generated 12/10/2023 GMT
    55                           ; 
    56                           ; Copyright © 2023, Microchip Technology Inc. and its subsidiaries ("Microchip")
    57                           ; All rights reserved.
    58                           ; 
    59                           ; This software is developed by Microchip Technology Inc. and its subsidiaries ("Microch
      +                          ip").
    60                           ; 
    61                           ; Redistribution and use in source and binary forms, with or without modification, are
    62                           ; permitted provided that the following conditions are met:
    63                           ; 
    64                           ;     1. Redistributions of source code must retain the above copyright notice, this lis
      +                          t of
    65                           ;        conditions and the following disclaimer.
    66                           ; 
    67                           ;     2. Redistributions in binary form must reproduce the above copyright notice, this 
      +                          list
    68                           ;        of conditions and the following disclaimer in the documentation and/or other
    69                           ;        materials provided with the distribution. Publication is not required when
    70                           ;        this file is used in an embedded application.
    71                           ; 
    72                           ;     3. Microchip's name may not be used to endorse or promote products derived from th
      +                          is
    73                           ;        software without specific prior written permission.
    74                           ; 
    75                           ; THIS SOFTWARE IS PROVIDED BY MICROCHIP "AS IS" AND ANY EXPRESS OR IMPLIED WARRANTIES,
    76                           ; INCLUDING, BUT NOT LIMITED TO, THE IMPLIED WARRANTIES OF MERCHANTABILITY AND FITNESS F
      +                          OR
    77                           ; PURPOSE ARE DISCLAIMED.  IN NO EVENT SHALL MICROCHIP BE LIABLE FOR ANY DIRECT, INDIREC
      +                          T,
    78                           ; INCIDENTAL, SPECIAL, EXEMPLARY, OR CONSEQUENTIAL DAMAGES (INCLUDING BUT NOT LIMITED TO
    79                           ; PROCUREMENT OF SUBSTITUTE GOODS OR SERVICES; LOSS OF USE, DATA OR PROFITS; OR BUSINESS
    80                           ; INTERRUPTION) HOWSOEVER CAUSED AND ON ANY THEORY OF LIABILITY, WHETHER IN CONTRACT, ST
      +                          RICT
    81                           ; LIABILITY, OR TORT (INCLUDING NEGLIGENCE OR OTHERWISE) ARISING IN ANY WAY OUT OF THE U
      +                          SE OF
    82                           ; THIS SOFTWARE, EVEN IF ADVISED OF THE POSSIBILITY OF SUCH DAMAGE.
    83                           ; 
    84                           ; 
    85                           ; Code-generator required, PIC18F25K22 Definitions
    86                           ; 
    87                           ; SFR Addresses
    88   000000                     
    89                           	psect	idataBANK0
    90   00250C                     __pidataBANK0:
    91                           	callstack 0
    92                           
    93                           ;initializer for main@F6348
    94   00250C  DF                 	db	223
    95   00250D  00                 	db	0
    96   000000                     _SSP1ADD	set	4040
    97   000000                     _SSP1CON1	set	4038
    98   000000                     _RCREG1	set	4014
    99   000000                     _TXREG1	set	4013
   100   000000                     _SPBRG1	set	4015
   101   000000                     _SPBRGH1	set	4016
   102   000000                     _BAUDCON1bits	set	4024
   103   000000                     _TXSTA1	set	4012
   104   000000                     _SSP1BUF	set	4041
   105   000000                     _SSP1CON2bits	set	4037
   106   000000                     _SSP1CON2	set	4037
   107   000000                     _SSP1STATbits	set	4039
   108   000000                     _TXSTA1bits	set	4012
   109   000000                     _RCSTA1	set	4011
   110   000000                     _PEIE	set	32662
   111   000000                     _RCIE	set	31981
   112   000000                     _RCIF	set	31989
   113   000000                     _ANSELCbits	set	3898
   114   000000                     _TRISCbits	set	3988
   115   000000                     _PIR1bits	set	3998
   116   000000                     _SSPCON2bits	set	4037
   117   000000                     _SSPSTATbits	set	4039
   118   000000                     _SSPBUF	set	4041
   119   000000                     _SSP1CON3bits	set	4043
   120   000000                     _OSCCONbits	set	4051
   121   000000                     _PIR2bits	set	4001
   122   000000                     _RCSTA1bits	set	4011
   123   000000                     _INTCONbits	set	4082
   124   000000                     _PIE1bits	set	3997
   125                           
   126                           	psect	smallconst
   127   000600                     __psmallconst:
   128                           	callstack 0
   129   000600  00                 	db	0
   130   000601                     STR_4:
   131   000601  6D                 	db	109	;'m'
   132   000602  61                 	db	97	;'a'
   133   000603  63                 	db	99	;'c'
   134   000604  20                 	db	32
   135   000605  73                 	db	115	;'s'
   136   000606  65                 	db	101	;'e'
   137   000607  74                 	db	116	;'t'
   138   000608  20                 	db	32
   139   000609  61                 	db	97	;'a'
   140   00060A  70                 	db	112	;'p'
   141   00060B  70                 	db	112	;'p'
   142   00060C  6B                 	db	107	;'k'
   143   00060D  65                 	db	101	;'e'
   144   00060E  79                 	db	121	;'y'
   145   00060F  20                 	db	32
   146   000610  39                 	db	57	;'9'
   147   000611  42                 	db	66	;'B'
   148   000612  41                 	db	65	;'A'
   149   000613  41                 	db	65	;'A'
   150   000614  34                 	db	52	;'4'
   151   000615  41                 	db	65	;'A'
   152   000616  36                 	db	54	;'6'
   153   000617  43                 	db	67	;'C'
   154   000618  38                 	db	56	;'8'
   155   000619  45                 	db	69	;'E'
   156   00061A  31                 	db	49	;'1'
   157   00061B  36                 	db	54	;'6'
   158   00061C  42                 	db	66	;'B'
   159   00061D  42                 	db	66	;'B'
   160   00061E  34                 	db	52	;'4'
   161   00061F  33                 	db	51	;'3'
   162   000620  32                 	db	50	;'2'
   163   000621  44                 	db	68	;'D'
   164   000622  34                 	db	52	;'4'
   165   000623  39                 	db	57	;'9'
   166   000624  36                 	db	54	;'6'
   167   000625  36                 	db	54	;'6'
   168   000626  45                 	db	69	;'E'
   169   000627  33                 	db	51	;'3'
   170   000628  34                 	db	52	;'4'
   171   000629  43                 	db	67	;'C'
   172   00062A  30                 	db	48	;'0'
   173   00062B  46                 	db	70	;'F'
   174   00062C  38                 	db	56	;'8'
   175   00062D  35                 	db	53	;'5'
   176   00062E  37                 	db	55	;'7'
   177   00062F  33                 	db	51	;'3'
   178   000630  00                 	db	0
   179   000631                     STR_5:
   180   000631  6D                 	db	109	;'m'
   181   000632  61                 	db	97	;'a'
   182   000633  63                 	db	99	;'c'
   183   000634  20                 	db	32
   184   000635  73                 	db	115	;'s'
   185   000636  65                 	db	101	;'e'
   186   000637  74                 	db	116	;'t'
   187   000638  20                 	db	32
   188   000639  61                 	db	97	;'a'
   189   00063A  70                 	db	112	;'p'
   190   00063B  70                 	db	112	;'p'
   191   00063C  65                 	db	101	;'e'
   192   00063D  75                 	db	117	;'u'
   193   00063E  69                 	db	105	;'i'
   194   00063F  20                 	db	32
   195   000640  32                 	db	50	;'2'
   196   000641  33                 	db	51	;'3'
   197   000642  44                 	db	68	;'D'
   198   000643  46                 	db	70	;'F'
   199   000644  33                 	db	51	;'3'
   200   000645  31                 	db	49	;'1'
   201   000646  34                 	db	52	;'4'
   202   000647  46                 	db	70	;'F'
   203   000648  31                 	db	49	;'1'
   204   000649  32                 	db	50	;'2'
   205   00064A  46                 	db	70	;'F'
   206   00064B  44                 	db	68	;'D'
   207   00064C  46                 	db	70	;'F'
   208   00064D  45                 	db	69	;'E'
   209   00064E  31                 	db	49	;'1'
   210   00064F  34                 	db	52	;'4'
   211   000650  00                 	db	0
   212   000651                     STR_6:
   213   000651  6D                 	db	109	;'m'
   214   000652  61                 	db	97	;'a'
   215   000653  63                 	db	99	;'c'
   216   000654  20                 	db	32
   217   000655  73                 	db	115	;'s'
   218   000656  65                 	db	101	;'e'
   219   000657  74                 	db	116	;'t'
   220   000658  20                 	db	32
   221   000659  64                 	db	100	;'d'
   222   00065A  65                 	db	101	;'e'
   223   00065B  76                 	db	118	;'v'
   224   00065C  65                 	db	101	;'e'
   225   00065D  75                 	db	117	;'u'
   226   00065E  69                 	db	105	;'i'
   227   00065F  20                 	db	32
   228   000660  37                 	db	55	;'7'
   229   000661  30                 	db	48	;'0'
   230   000662  42                 	db	66	;'B'
   231   000663  33                 	db	51	;'3'
   232   000664  44                 	db	68	;'D'
   233   000665  35                 	db	53	;'5'
   234   000666  37                 	db	55	;'7'
   235   000667  45                 	db	69	;'E'
   236   000668  44                 	db	68	;'D'
   237   000669  30                 	db	48	;'0'
   238   00066A  30                 	db	48	;'0'
   239   00066B  36                 	db	54	;'6'
   240   00066C  37                 	db	55	;'7'
   241   00066D  45                 	db	69	;'E'
   242   00066E  44                 	db	68	;'D'
   243   00066F  36                 	db	54	;'6'
   244   000670  00                 	db	0
   245   000671                     STR_9:
   246   000671  6D                 	db	109	;'m'
   247   000672  61                 	db	97	;'a'
   248   000673  63                 	db	99	;'c'
   249   000674  20                 	db	32
   250   000675  74                 	db	116	;'t'
   251   000676  78                 	db	120	;'x'
   252   000677  20                 	db	32
   253   000678  75                 	db	117	;'u'
   254   000679  6E                 	db	110	;'n'
   255   00067A  63                 	db	99	;'c'
   256   00067B  6E                 	db	110	;'n'
   257   00067C  66                 	db	102	;'f'
   258   00067D  20                 	db	32
   259   00067E  31                 	db	49	;'1'
   260   00067F  20                 	db	32
   261   000680  25                 	db	37
   262   000681  78                 	db	120	;'x'
   263   000682  25                 	db	37
   264   000683  78                 	db	120	;'x'
   265   000684  00                 	db	0
   266   000685                     STR_10:
   267   000685  30                 	db	48	;'0'
   268   000686  31                 	db	49	;'1'
   269   000687  32                 	db	50	;'2'
   270   000688  33                 	db	51	;'3'
   271   000689  34                 	db	52	;'4'
   272   00068A  35                 	db	53	;'5'
   273   00068B  36                 	db	54	;'6'
   274   00068C  37                 	db	55	;'7'
   275   00068D  38                 	db	56	;'8'
   276   00068E  39                 	db	57	;'9'
   277   00068F  41                 	db	65	;'A'
   278   000690  42                 	db	66	;'B'
   279   000691  43                 	db	67	;'C'
   280   000692  44                 	db	68	;'D'
   281   000693  45                 	db	69	;'E'
   282   000694  46                 	db	70	;'F'
   283   000695  00                 	db	0
   284   000696                     STR_3:
   285   000696  6D                 	db	109	;'m'
   286   000697  61                 	db	97	;'a'
   287   000698  63                 	db	99	;'c'
   288   000699  20                 	db	32
   289   00069A  72                 	db	114	;'r'
   290   00069B  65                 	db	101	;'e'
   291   00069C  73                 	db	115	;'s'
   292   00069D  65                 	db	101	;'e'
   293   00069E  74                 	db	116	;'t'
   294   00069F  20                 	db	32
   295   0006A0  38                 	db	56	;'8'
   296   0006A1  36                 	db	54	;'6'
   297   0006A2  38                 	db	56	;'8'
   298   0006A3  00                 	db	0
   299   0006A4                     STR_8:
   300   0006A4  6D                 	db	109	;'m'
   301   0006A5  61                 	db	97	;'a'
   302   0006A6  63                 	db	99	;'c'
   303   0006A7  20                 	db	32
   304   0006A8  6A                 	db	106	;'j'
   305   0006A9  6F                 	db	111	;'o'
   306   0006AA  69                 	db	105	;'i'
   307   0006AB  6E                 	db	110	;'n'
   308   0006AC  20                 	db	32
   309   0006AD  6F                 	db	111	;'o'
   310   0006AE  74                 	db	116	;'t'
   311   0006AF  61                 	db	97	;'a'
   312   0006B0  61                 	db	97	;'a'
   313   0006B1  00                 	db	0
   314   0006B2                     STR_1:
   315   0006B2  46                 	db	70	;'F'
   316   0006B3  72                 	db	114	;'r'
   317   0006B4  61                 	db	97	;'a'
   318   0006B5  6D                 	db	109	;'m'
   319   0006B6  69                 	db	105	;'i'
   320   0006B7  6E                 	db	110	;'n'
   321   0006B8  67                 	db	103	;'g'
   322   0006B9  20                 	db	32
   323   0006BA  45                 	db	69	;'E'
   324   0006BB  72                 	db	114	;'r'
   325   0006BC  72                 	db	114	;'r'
   326   0006BD  6F                 	db	111	;'o'
   327   0006BE  72                 	db	114	;'r'
   328   0006BF  00                 	db	0
   329   0006C0                     STR_2:
   330   0006C0  4F                 	db	79	;'O'
   331   0006C1  76                 	db	118	;'v'
   332   0006C2  65                 	db	101	;'e'
   333   0006C3  72                 	db	114	;'r'
   334   0006C4  72                 	db	114	;'r'
   335   0006C5  75                 	db	117	;'u'
   336   0006C6  6E                 	db	110	;'n'
   337   0006C7  20                 	db	32
   338   0006C8  45                 	db	69	;'E'
   339   0006C9  72                 	db	114	;'r'
   340   0006CA  72                 	db	114	;'r'
   341   0006CB  6F                 	db	111	;'o'
   342   0006CC  72                 	db	114	;'r'
   343   0006CD  00                 	db	0
   344   0006CE                     STR_7:
   345   0006CE  6D                 	db	109	;'m'
   346   0006CF  61                 	db	97	;'a'
   347   0006D0  63                 	db	99	;'c'
   348   0006D1  20                 	db	32
   349   0006D2  73                 	db	115	;'s'
   350   0006D3  61                 	db	97	;'a'
   351   0006D4  76                 	db	118	;'v'
   352   0006D5  65                 	db	101	;'e'
   353   0006D6  00                 	db	0
   354   0006D7  00                 	db	0	; dummy byte at the end
   355   000000                     
   356                           ; #config settings
   357                           
   358                           	psect	cinit
   359   00226C                     __pcinit:
   360                           	callstack 0
   361   00226C                     start_initialization:
   362                           	callstack 0
   363   00226C                     __initialization:
   364                           	callstack 0
   365                           
   366                           ; Initialize objects allocated to BANK0 (2 bytes)
   367                           ; load TBLPTR registers with __pidataBANK0
   368   00226C  0E0C               	movlw	low __pidataBANK0
   369   00226E  6EF6               	movwf	tblptrl,c
   370   002270  0E25               	movlw	high __pidataBANK0
   371   002272  6EF7               	movwf	tblptrh,c
   372   002274  0E00               	movlw	low (__pidataBANK0 shr (0+16))
   373   002276  6EF8               	movwf	tblptru,c
   374   002278  0009               	tblrd		*+	;fetch initializer
   375   00227A  CFF5 F0E2          	movff	tablat,__pdataBANK0
   376   00227E  0009               	tblrd		*+	;fetch initializer
   377   002280  CFF5 F0E3          	movff	tablat,__pdataBANK0+1
   378                           
   379                           ; Clear objects allocated to BANK1 (50 bytes)
   380   002284  EE01  F000         	lfsr	0,__pbssBANK1
   381   002288  0E32               	movlw	50
   382   00228A                     clear_0:
   383   00228A  6AEE               	clrf	postinc0,c
   384   00228C  06E8               	decf	wreg,f,c
   385   00228E  E1FD               	bnz	clear_0
   386                           
   387                           ; Clear objects allocated to BANK0 (92 bytes)
   388   002290  EE00  F060         	lfsr	0,__pbssBANK0
   389   002294  0E5C               	movlw	92
   390   002296                     clear_1:
   391   002296  6AEE               	clrf	postinc0,c
   392   002298  06E8               	decf	wreg,f,c
   393   00229A  E1FD               	bnz	clear_1
   394                           
   395                           ; Clear objects allocated to COMRAM (11 bytes)
   396   00229C  EE00  F048         	lfsr	0,__pbssCOMRAM
   397   0022A0  0E0B               	movlw	11
   398   0022A2                     clear_2:
   399   0022A2  6AEE               	clrf	postinc0,c
   400   0022A4  06E8               	decf	wreg,f,c
   401   0022A6  E1FD               	bnz	clear_2
   402   0022A8                     end_of_initialization:
   403                           	callstack 0
   404   0022A8                     __end_of__initialization:
   405                           	callstack 0
   406   0022A8  9053               	bcf	int$flags,0,c	;clear compiler interrupt flag (level 1)
   407   0022AA  9253               	bcf	int$flags,1,c	;clear compiler interrupt flag (level 2)
   408   0022AC  0E00               	movlw	low (__Lmediumconst shr (0+16))
   409   0022AE  6EF8               	movwf	tblptru,c
   410   0022B0  0100               	movlb	0
   411   0022B2  EFCC  F005         	goto	_main	;jump to C main() function
   412                           
   413                           	psect	bssCOMRAM
   414   000048                     __pbssCOMRAM:
   415                           	callstack 0
   416   000048                     _prec:
   417                           	callstack 0
   418   000048                     	ds	2
   419   00004A                     _rssi:
   420                           	callstack 0
   421   00004A                     	ds	2
   422   00004C                     _i:
   423                           	callstack 0
   424   00004C                     	ds	2
   425   00004E                     _flags:
   426                           	callstack 0
   427   00004E                     	ds	1
   428   00004F                     _debut:
   429                           	callstack 0
   430   00004F                     	ds	1
   431   000050                     _txBuffer1:
   432                           	callstack 0
   433   000050                     	ds	1
   434   000051                     _pout:
   435                           	callstack 0
   436   000051                     	ds	1
   437   000052                     _reg_val:
   438                           	callstack 0
   439   000052                     	ds	1
   440                           
   441                           	psect	bssBANK0
   442   000060                     __pbssBANK0:
   443                           	callstack 0
   444   000060                     _compParams:
   445                           	callstack 0
   446   000060                     	ds	33
   447   000081                     _dbuf:
   448                           	callstack 0
   449   000081                     	ds	32
   450   0000A1                     _string:
   451                           	callstack 0
   452   0000A1                     	ds	16
   453   0000B1                     _t_fine:
   454                           	callstack 0
   455   0000B1                     	ds	4
   456   0000B5                     _width:
   457                           	callstack 0
   458   0000B5                     	ds	2
   459   0000B7                     _myvar2:
   460                           	callstack 0
   461   0000B7                     	ds	2
   462   0000B9                     _myvar:
   463                           	callstack 0
   464   0000B9                     	ds	2
   465   0000BB                     _txBuffer:
   466                           	callstack 0
   467   0000BB                     	ds	1
   468                           
   469                           	psect	dataBANK0
   470   0000E2                     __pdataBANK0:
   471                           	callstack 0
   472   0000E2                     main@F6348:
   473                           	callstack 0
   474   0000E2                     	ds	2
   475                           
   476                           	psect	bssBANK1
   477   000100                     __pbssBANK1:
   478                           	callstack 0
   479   000100                     _buffer:
   480                           	callstack 0
   481   000100                     	ds	50
   482                           
   483                           	psect	cstackBANK1
   484   000132                     __pcstackBANK1:
   485                           	callstack 0
   486   000132                     main@degre:
   487                           	callstack 0
   488                           
   489                           ; 2 bytes @ 0x0
   490   000132                     	ds	2
   491   000134                     main@temp_celsius:
   492                           	callstack 0
   493                           
   494                           ; 4 bytes @ 0x2
   495   000134                     	ds	4
   496   000138                     main@myvar3:
   497                           	callstack 0
   498                           
   499                           ; 2 bytes @ 0x6
   500   000138                     	ds	2
   501   00013A                     main@myvar4:
   502                           	callstack 0
   503                           
   504                           ; 2 bytes @ 0x8
   505   00013A                     	ds	2
   506   00013C                     main@myvar5:
   507                           	callstack 0
   508                           
   509                           ; 2 bytes @ 0xA
   510   00013C                     	ds	2
   511   00013E                     main@myvar6:
   512                           	callstack 0
   513                           
   514                           ; 2 bytes @ 0xC
   515   00013E                     	ds	2
   516   000140                     main@temp2:
   517                           	callstack 0
   518                           
   519                           ; 1 bytes @ 0xE
   520   000140                     	ds	1
   521   000141                     main@temp_MSB:
   522                           	callstack 0
   523                           
   524                           ; 1 bytes @ 0xF
   525   000141                     	ds	1
   526   000142                     main@temp_MidSB:
   527                           	callstack 0
   528                           
   529                           ; 1 bytes @ 0x10
   530   000142                     	ds	1
   531   000143                     main@temp_LSB:
   532                           	callstack 0
   533                           
   534                           ; 1 bytes @ 0x11
   535   000143                     	ds	1
   536   000144                     main@compteur:
   537                           	callstack 0
   538                           
   539                           ; 2 bytes @ 0x12
   540   000144                     	ds	2
   541   000146                     main@bit_vanne:
   542                           	callstack 0
   543                           
   544                           ; 2 bytes @ 0x14
   545   000146                     	ds	2
   546   000148                     main@adc_T:
   547                           	callstack 0
   548                           
   549                           ; 4 bytes @ 0x16
   550   000148                     	ds	4
   551   00014C                     _main$2197:
   552                           	callstack 0
   553                           
   554                           ; 4 bytes @ 0x1A
   555   00014C                     	ds	4
   556   000150                     main@watt1:
   557                           	callstack 0
   558                           
   559                           ; 1 bytes @ 0x1E
   560   000150                     	ds	1
   561   000151                     main@watt2:
   562                           	callstack 0
   563                           
   564                           ; 1 bytes @ 0x1F
   565   000151                     	ds	1
   566   000152                     main@temp_air:
   567                           	callstack 0
   568                           
   569                           ; 4 bytes @ 0x20
   570   000152                     	ds	4
   571   000156                     main@check_mesure:
   572                           	callstack 0
   573                           
   574                           ; 1 bytes @ 0x24
   575   000156                     	ds	1
   576   000157                     main@temp_32bit:
   577                           	callstack 0
   578                           
   579                           ; 4 bytes @ 0x25
   580   000157                     	ds	4
   581                           
   582                           	psect	cstackBANK0
   583   0000BC                     __pcstackBANK0:
   584                           	callstack 0
   585   0000BC                     ??___fltol:
   586   0000BC                     ?___flsub:
   587                           	callstack 0
   588   0000BC                     ___flsub@b:
   589                           	callstack 0
   590                           
   591                           ; 4 bytes @ 0x0
   592   0000BC                     	ds	4
   593   0000C0                     ___fltol@sign1:
   594                           	callstack 0
   595   0000C0                     ___flsub@a:
   596                           	callstack 0
   597                           
   598                           ; 4 bytes @ 0x4
   599   0000C0                     	ds	1
   600   0000C1                     ___fltol@exp1:
   601                           	callstack 0
   602                           
   603                           ; 1 bytes @ 0x5
   604   0000C1                     	ds	3
   605   0000C4                     ?_BME280_Compensate_Temperature:
   606                           	callstack 0
   607   0000C4                     BME280_Compensate_Temperature@adc_T:
   608                           	callstack 0
   609                           
   610                           ; 4 bytes @ 0x8
   611   0000C4                     	ds	4
   612   0000C8                     BME280_Compensate_Temperature@temperature_max:
   613                           	callstack 0
   614                           
   615                           ; 4 bytes @ 0xC
   616   0000C8                     	ds	4
   617   0000CC                     BME280_Compensate_Temperature@temperature:
   618                           	callstack 0
   619                           
   620                           ; 4 bytes @ 0x10
   621   0000CC                     	ds	4
   622   0000D0                     _BME280_Compensate_Temperature$2196:
   623                           	callstack 0
   624                           
   625                           ; 4 bytes @ 0x14
   626   0000D0                     	ds	4
   627   0000D4                     BME280_Compensate_Temperature@var1:
   628                           	callstack 0
   629                           
   630                           ; 4 bytes @ 0x18
   631   0000D4                     	ds	4
   632   0000D8                     BME280_Compensate_Temperature@var2:
   633                           	callstack 0
   634                           
   635                           ; 4 bytes @ 0x1C
   636   0000D8                     	ds	4
   637   0000DC                     
   638                           ; 2 bytes @ 0x20
   639   0000DC                     	ds	2
   640   0000DE                     
   641                           ; 3 bytes @ 0x22
   642   0000DE                     	ds	3
   643   0000E1                     ??_main:
   644                           
   645                           ; 1 bytes @ 0x25
   646   0000E1                     	ds	1
   647                           
   648                           	psect	cstackCOMRAM
   649   000001                     __pcstackCOMRAM:
   650                           	callstack 0
   651   000001                     i2UARTWriteByte@data:
   652                           	callstack 0
   653                           
   654                           ; 1 bytes @ 0x0
   655   000001                     	ds	1
   656   000002                     i2UARTWriteStrLn@string:
   657                           	callstack 0
   658                           
   659                           ; 2 bytes @ 0x1
   660   000002                     	ds	2
   661   000004                     ??i2_UARTWriteStrLn:
   662                           
   663                           ; 1 bytes @ 0x3
   664   000004                     	ds	2
   665   000006                     i2UARTWriteStrLn@i:
   666                           	callstack 0
   667                           
   668                           ; 1 bytes @ 0x5
   669   000006                     	ds	1
   670   000007                     ??_SerialRxPinInterrupt:
   671                           
   672                           ; 1 bytes @ 0x6
   673   000007                     	ds	6
   674   00000D                     ??_i2c_waitForIdle:
   675   00000D                     ?___fladd:
   676                           	callstack 0
   677   00000D                     UARTWriteByte@data:
   678                           	callstack 0
   679   00000D                     fputc@c:
   680                           	callstack 0
   681   00000D                     ___fladd@b:
   682                           	callstack 0
   683                           
   684                           ; 4 bytes @ 0xC
   685   00000D                     	ds	1
   686   00000E                     i2c_read@i2cReadData:
   687                           	callstack 0
   688   00000E                     i2c_write@i2cWriteData:
   689                           	callstack 0
   690   00000E                     UARTWriteStrLn@string:
   691                           	callstack 0
   692                           
   693                           ; 2 bytes @ 0xD
   694   00000E                     	ds	1
   695   00000F                     ??_BME280_Read_Compensation_Params:
   696   00000F                     ?_BME280_Read_Temperature:
   697                           	callstack 0
   698   00000F                     fputc@fp:
   699                           	callstack 0
   700   00000F                     I2C_Write_Register@value:
   701                           	callstack 0
   702                           
   703                           ; 2 bytes @ 0xE
   704   00000F                     	ds	1
   705   000010                     ??_UARTWriteStrLn:
   706   000010                     ??_fputc:
   707                           
   708                           ; 1 bytes @ 0xF
   709   000010                     	ds	1
   710   000011                     I2C_Write_Register@address:
   711                           	callstack 0
   712   000011                     ___fladd@a:
   713                           	callstack 0
   714   000011                     BME280_Read_Compensation_Params@data:
   715                           	callstack 0
   716                           
   717                           ; 12 bytes @ 0x10
   718   000011                     	ds	1
   719   000012                     UARTWriteStrLn@i:
   720                           	callstack 0
   721                           
   722                           ; 1 bytes @ 0x11
   723   000012                     	ds	1
   724   000013                     ??_BME280_Read_Temperature:
   725   000013                     I2C_Write_Register@reg:
   726                           	callstack 0
   727                           
   728                           ; 1 bytes @ 0x12
   729   000013                     	ds	2
   730   000015                     ??___fladd:
   731   000015                     vfpfcnvrt@fp:
   732                           	callstack 0
   733                           
   734                           ; 1 bytes @ 0x14
   735   000015                     	ds	1
   736   000016                     vfpfcnvrt@fmt:
   737                           	callstack 0
   738                           
   739                           ; 1 bytes @ 0x15
   740   000016                     	ds	1
   741   000017                     vfpfcnvrt@ap:
   742                           	callstack 0
   743                           
   744                           ; 1 bytes @ 0x16
   745   000017                     	ds	1
   746   000018                     ??_vfpfcnvrt:
   747                           
   748                           ; 1 bytes @ 0x17
   749   000018                     	ds	1
   750   000019                     ___fladd@signs:
   751                           	callstack 0
   752   000019                     vfpfcnvrt@convarg:
   753                           	callstack 0
   754                           
   755                           ; 4 bytes @ 0x18
   756   000019                     	ds	1
   757   00001A                     ___fladd@aexp:
   758                           	callstack 0
   759   00001A                     BME280_Read_Temperature@adc_T:
   760                           	callstack 0
   761                           
   762                           ; 4 bytes @ 0x19
   763   00001A                     	ds	1
   764   00001B                     ___fladd@bexp:
   765                           	callstack 0
   766                           
   767                           ; 1 bytes @ 0x1A
   768   00001B                     	ds	1
   769   00001C                     ___fladd@grs:
   770                           	callstack 0
   771                           
   772                           ; 1 bytes @ 0x1B
   773   00001C                     	ds	1
   774   00001D                     ?___xxtofl:
   775                           	callstack 0
   776   00001D                     vfpfcnvrt@x:
   777                           	callstack 0
   778   00001D                     BME280_Read_Compensation_Params@i:
   779                           	callstack 0
   780   00001D                     ___xxtofl@val:
   781                           	callstack 0
   782                           
   783                           ; 4 bytes @ 0x1C
   784   00001D                     	ds	1
   785   00001E                     BME280_Read_Temperature@msb:
   786                           	callstack 0
   787   00001E                     vfpfcnvrt@cp:
   788                           	callstack 0
   789                           
   790                           ; 1 bytes @ 0x1D
   791   00001E                     	ds	1
   792   00001F                     BME280_Read_Temperature@lsb:
   793                           	callstack 0
   794   00001F                     vfpfcnvrt@c:
   795                           	callstack 0
   796                           
   797                           ; 1 bytes @ 0x1E
   798   00001F                     	ds	1
   799   000020                     ?_vfprintf:
   800                           	callstack 0
   801   000020                     BME280_Read_Temperature@xlsb:
   802                           	callstack 0
   803   000020                     vfprintf@fp:
   804                           	callstack 0
   805                           
   806                           ; 1 bytes @ 0x1F
   807   000020                     	ds	1
   808   000021                     ??___xxtofl:
   809   000021                     vfprintf@fmt:
   810                           	callstack 0
   811                           
   812                           ; 1 bytes @ 0x20
   813   000021                     	ds	1
   814   000022                     vfprintf@ap:
   815                           	callstack 0
   816                           
   817                           ; 1 bytes @ 0x21
   818   000022                     	ds	1
   819   000023                     vfprintf@cfmt:
   820                           	callstack 0
   821                           
   822                           ; 1 bytes @ 0x22
   823   000023                     	ds	1
   824   000024                     ?_sprintf:
   825                           	callstack 0
   826   000024                     sprintf@s:
   827                           	callstack 0
   828                           
   829                           ; 2 bytes @ 0x23
   830   000024                     	ds	1
   831   000025                     ___xxtofl@sign:
   832                           	callstack 0
   833                           
   834                           ; 1 bytes @ 0x24
   835   000025                     	ds	1
   836   000026                     ___xxtofl@exp:
   837                           	callstack 0
   838   000026                     sprintf@fmt:
   839                           	callstack 0
   840                           
   841                           ; 1 bytes @ 0x25
   842   000026                     	ds	1
   843   000027                     ___xxtofl@arg:
   844                           	callstack 0
   845                           
   846                           ; 4 bytes @ 0x26
   847   000027                     	ds	4
   848   00002B                     ?___fldiv:
   849                           	callstack 0
   850   00002B                     ?___flmul:
   851                           	callstack 0
   852   00002B                     sprintf@ap:
   853                           	callstack 0
   854   00002B                     ___fldiv@b:
   855                           	callstack 0
   856   00002B                     ___flmul@b:
   857                           	callstack 0
   858                           
   859                           ; 4 bytes @ 0x2A
   860   00002B                     	ds	1
   861   00002C                     sprintf@f:
   862                           	callstack 0
   863                           
   864                           ; 12 bytes @ 0x2B
   865   00002C                     	ds	3
   866   00002F                     ___fldiv@a:
   867                           	callstack 0
   868   00002F                     ___flmul@a:
   869                           	callstack 0
   870                           
   871                           ; 4 bytes @ 0x2E
   872   00002F                     	ds	4
   873   000033                     ??___fldiv:
   874   000033                     ??___flmul:
   875                           
   876                           ; 1 bytes @ 0x32
   877   000033                     	ds	4
   878   000037                     ___flmul@sign:
   879                           	callstack 0
   880   000037                     ___fldiv@rem:
   881                           	callstack 0
   882                           
   883                           ; 4 bytes @ 0x36
   884   000037                     	ds	1
   885   000038                     ___flmul@aexp:
   886                           	callstack 0
   887                           
   888                           ; 1 bytes @ 0x37
   889   000038                     	ds	1
   890   000039                     ___flmul@grs:
   891                           	callstack 0
   892                           
   893                           ; 4 bytes @ 0x38
   894   000039                     	ds	2
   895   00003B                     ___fldiv@sign:
   896                           	callstack 0
   897                           
   898                           ; 1 bytes @ 0x3A
   899   00003B                     	ds	1
   900   00003C                     ___fldiv@new_exp:
   901                           	callstack 0
   902                           
   903                           ; 2 bytes @ 0x3B
   904   00003C                     	ds	1
   905   00003D                     ___flmul@bexp:
   906                           	callstack 0
   907                           
   908                           ; 1 bytes @ 0x3C
   909   00003D                     	ds	1
   910   00003E                     ___fldiv@grs:
   911                           	callstack 0
   912   00003E                     ___flmul@prod:
   913                           	callstack 0
   914                           
   915                           ; 4 bytes @ 0x3D
   916   00003E                     	ds	4
   917   000042                     ___fldiv@bexp:
   918                           	callstack 0
   919   000042                     ___flmul@temp:
   920                           	callstack 0
   921                           
   922                           ; 2 bytes @ 0x41
   923   000042                     	ds	1
   924   000043                     ___fldiv@aexp:
   925                           	callstack 0
   926                           
   927                           ; 1 bytes @ 0x42
   928   000043                     	ds	1
   929   000044                     ?___fltol:
   930                           	callstack 0
   931   000044                     ___fltol@f1:
   932                           	callstack 0
   933                           
   934                           ; 4 bytes @ 0x43
   935   000044                     	ds	4
   936   000048                     
   937                           ; 1 bytes @ 0x47
   938 ;;
   939 ;;Main: autosize = 0, tempsize = 1, incstack = 0, save=0
   940 ;;
   941 ;; *************** function _main *****************
   942 ;; Defined at:
   943 ;;		line 303 in file "main.c"
   944 ;; Parameters:    Size  Location     Type
   945 ;;  argc            2   32[BANK0 ] int 
   946 ;;  argv            3   34[BANK0 ] PTR PTR unsigned char 
   947 ;; Auto vars:     Size  Location     Type
   948 ;;  temp_32bit      4   37[BANK1 ] unsigned long 
   949 ;;  temp_air        4   32[BANK1 ] unsigned long 
   950 ;;  adc_T           4   22[BANK1 ] long 
   951 ;;  temp_celsius    4    2[BANK1 ] float 
   952 ;;  bit_vanne       2   20[BANK1 ] int 
   953 ;;  compteur        2   18[BANK1 ] int 
   954 ;;  myvar6          2   12[BANK1 ] int 
   955 ;;  myvar5          2   10[BANK1 ] int 
   956 ;;  myvar4          2    8[BANK1 ] int 
   957 ;;  myvar3          2    6[BANK1 ] int 
   958 ;;  check_mesure    1   36[BANK1 ] unsigned char 
   959 ;;  temp_LSB        1   17[BANK1 ] unsigned char 
   960 ;;  temp_MidSB      1   16[BANK1 ] unsigned char 
   961 ;;  temp_MSB        1   15[BANK1 ] unsigned char 
   962 ;;  string         16    0        unsigned char [16]
   963 ;;  degre           2    0[BANK1 ] unsigned char [2]
   964 ;;  watt2           1   31[BANK1 ] unsigned char 
   965 ;;  watt1           1   30[BANK1 ] unsigned char 
   966 ;;  temp_soil2      1    0        unsigned char 
   967 ;;  temp_soil1      1    0        unsigned char 
   968 ;;  hygro2          1    0        unsigned char 
   969 ;;  hygro1          1    0        unsigned char 
   970 ;;  temp2           1   14[BANK1 ] unsigned char 
   971 ;;  temp            1    0        unsigned char 
   972 ;; Return value:  Size  Location     Type
   973 ;;                  2   32[BANK0 ] int 
   974 ;; Registers used:
   975 ;;		wreg, fsr0l, fsr0h, fsr1l, fsr1h, fsr2l, fsr2h, status,2, status,0, tblptrl, tblptrh, tblptru, prodl, prodh, cstack
   976 ;; Tracked objects:
   977 ;;		On entry : 0/0
   978 ;;		On exit  : 0/0
   979 ;;		Unchanged: 0/0
   980 ;; Data sizes:     COMRAM   BANK0   BANK1   BANK2   BANK3   BANK4   BANK5
   981 ;;      Params:         0       5       0       0       0       0       0
   982 ;;      Locals:         0       0      41       0       0       0       0
   983 ;;      Temps:          0       1       0       0       0       0       0
   984 ;;      Totals:         0       6      41       0       0       0       0
   985 ;;Total ram usage:       47 bytes
   986 ;; Hardware stack levels required when called: 8
   987 ;; This function calls:
   988 ;;		_BME280_Compensate_Temperature
   989 ;;		_BME280_Init
   990 ;;		_BME280_Read_Compensation_Params
   991 ;;		_BME280_Read_Temperature
   992 ;;		_I2C_Write_Register
   993 ;;		_UARTInit
   994 ;;		_UARTReadByte
   995 ;;		_UARTWriteStrLn
   996 ;;		___flmul
   997 ;;		___fltol
   998 ;;		_i2c_ACK
   999 ;;		_i2c_NAK
  1000 ;;		_i2c_init
  1001 ;;		_i2c_read
  1002 ;;		_i2c_repStart
  1003 ;;		_i2c_start
  1004 ;;		_i2c_stop
  1005 ;;		_i2c_write
  1006 ;;		_sprintf
  1007 ;; This function is called by:
  1008 ;;		Startup code after reset
  1009 ;; This function uses a non-reentrant model
  1010 ;;
  1011                           
  1012                           	psect	text0
  1013   000B98                     __ptext0:
  1014                           	callstack 0
  1015   000B98                     _main:
  1016                           	callstack 23
  1017   000B98                     
  1018                           ;main.c: 306:     INT8_T temp, temp2, hygro1, hygro2, watt1, watt2, temp_soil1, temp_soi
      +                          l2;;main.c: 307:     char string[16];;main.c: 308:     char degre[2] = {0xDF, '\0'};
  1019   000B98  C0E2  F132         	movff	main@F6348,main@degre
  1020   000B9C  C0E3  F133         	movff	main@F6348+1,main@degre+1
  1021   000BA0                     
  1022                           ;main.c: 311:     i2c_init();
  1023   000BA0  ECD7  F011         	call	_i2c_init	;wreg free
  1024   000BA4                     
  1025                           ;main.c: 312:     BME280_Init();
  1026   000BA4  EC0E  F011         	call	_BME280_Init	;wreg free
  1027   000BA8                     
  1028                           ;main.c: 313:     I2C_Write_Register(0x05, 0x0697, 0x40);
  1029   000BA8  0E06               	movlw	6
  1030   000BAA  6E10               	movwf	(I2C_Write_Register@value+1)^0,c
  1031   000BAC  0E97               	movlw	151
  1032   000BAE  6E0F               	movwf	I2C_Write_Register@value^0,c
  1033   000BB0  0E00               	movlw	0
  1034   000BB2  6E12               	movwf	(I2C_Write_Register@address+1)^0,c
  1035   000BB4  0E40               	movlw	64
  1036   000BB6  6E11               	movwf	I2C_Write_Register@address^0,c
  1037   000BB8  0E05               	movlw	5
  1038   000BBA  EC03  F012         	call	_I2C_Write_Register
  1039   000BBE                     
  1040                           ;main.c: 314:     _delay(12500);
  1041   000BBE  0E11               	movlw	17
  1042   000BC0  0100               	movlb	0	; () banked
  1043   000BC2  6FE1               	movwf	??_main& (0+255),b
  1044   000BC4  0E3A               	movlw	58
  1045   000BC6                     u4367:
  1046   000BC6  2EE8               	decfsz	wreg,f,c
  1047   000BC8  D7FE               	bra	u4367
  1048   000BCA  2FE1               	decfsz	??_main& (0+255),f,b
  1049   000BCC  D7FC               	bra	u4367
  1050   000BCE  0000               	nop	
  1051   000BD0                     
  1052                           ;main.c: 316:      BME280_Read_Compensation_Params();
  1053   000BD0  ECD9  F00F         	call	_BME280_Read_Compensation_Params	;wreg free
  1054   000BD4                     l119:
  1055   000BD4  0004               	clrwdt		;# 
  1056   000BD6                     
  1057                           ;main.c: 320:     OSCCONbits.IRCF = 5;
  1058   000BD6  50D3               	movf	211,w,c	;volatile
  1059   000BD8  0B8F               	andlw	-113
  1060   000BDA  0950               	iorlw	80
  1061   000BDC  6ED3               	movwf	211,c	;volatile
  1062   000BDE                     
  1063                           ;main.c: 321:     UARTInit();
  1064   000BDE  ECBC  F011         	call	_UARTInit	;wreg free
  1065   000BE2                     
  1066                           ;main.c: 324:     (INTCONbits.GIE = 1);
  1067   000BE2  8EF2               	bsf	242,7,c	;volatile
  1068   000BE4                     
  1069                           ;main.c: 325:     _delay(300);
  1070   000BE4  0E64               	movlw	100
  1071   000BE6                     u4377:
  1072   000BE6  2EE8               	decfsz	wreg,f,c
  1073   000BE8  D7FE               	bra	u4377
  1074   000BEA                     
  1075                           ;main.c: 327:     debut = 1;
  1076   000BEA  0E01               	movlw	1
  1077   000BEC  6E4F               	movwf	_debut^0,c
  1078   000BEE                     
  1079                           ;main.c: 329:     UARTWriteStrLn("mac reset 868");
  1080   000BEE  0E96               	movlw	low STR_3
  1081   000BF0  6E0E               	movwf	UARTWriteStrLn@string^0,c
  1082   000BF2  500E               	movf	UARTWriteStrLn@string^0,w,c
  1083   000BF4  A4D8               	btfss	status,2,c
  1084   000BF6  0E06               	movlw	high __smallconst
  1085   000BF8  6E0F               	movwf	(UARTWriteStrLn@string+1)^0,c
  1086   000BFA  EC8A  F010         	call	_UARTWriteStrLn	;wreg free
  1087   000BFE                     l4416:
  1088                           
  1089                           ;main.c: 330:     while (txBuffer != (UINT8_T)'o'){
  1090   000BFE  0E6F               	movlw	111
  1091   000C00  0100               	movlb	0	; () banked
  1092   000C02  19BB               	xorwf	_txBuffer& (0+255),w,b
  1093   000C04  A4D8               	btfss	status,2,c
  1094   000C06  EF07  F006         	goto	u4231
  1095   000C0A  EF09  F006         	goto	u4230
  1096   000C0E                     u4231:
  1097   000C0E  EFFF  F005         	goto	l4416
  1098   000C12                     u4230:
  1099   000C12                     
  1100                           ; BSR set to: 0
  1101                           ;main.c: 333:     txBuffer = 0;
  1102   000C12  0E00               	movlw	0
  1103   000C14  6FBB               	movwf	_txBuffer& (0+255),b
  1104   000C16                     
  1105                           ; BSR set to: 0
  1106                           ;main.c: 335:     UARTWriteStrLn("mac set appkey 9BAA4A6C8E16BB432D4966E34C0F8573");
  1107   000C16  0E01               	movlw	low STR_4
  1108   000C18  6E0E               	movwf	UARTWriteStrLn@string^0,c
  1109   000C1A  500E               	movf	UARTWriteStrLn@string^0,w,c
  1110   000C1C  A4D8               	btfss	status,2,c
  1111   000C1E  0E06               	movlw	high __smallconst
  1112   000C20  6E0F               	movwf	(UARTWriteStrLn@string+1)^0,c
  1113   000C22  EC8A  F010         	call	_UARTWriteStrLn	;wreg free
  1114   000C26                     l4422:
  1115                           
  1116                           ;main.c: 336:     while (txBuffer != (UINT8_T)'o'){
  1117   000C26  0E6F               	movlw	111
  1118   000C28  0100               	movlb	0	; () banked
  1119   000C2A  19BB               	xorwf	_txBuffer& (0+255),w,b
  1120   000C2C  A4D8               	btfss	status,2,c
  1121   000C2E  EF1B  F006         	goto	u4241
  1122   000C32  EF1D  F006         	goto	u4240
  1123   000C36                     u4241:
  1124   000C36  EF13  F006         	goto	l4422
  1125   000C3A                     u4240:
  1126   000C3A                     
  1127                           ; BSR set to: 0
  1128                           ;main.c: 339:     txBuffer = 0;
  1129   000C3A  0E00               	movlw	0
  1130   000C3C  6FBB               	movwf	_txBuffer& (0+255),b
  1131   000C3E                     
  1132                           ; BSR set to: 0
  1133                           ;main.c: 341:     UARTWriteStrLn("mac set appeui 23DF314F12FDFE14");
  1134   000C3E  0E31               	movlw	low STR_5
  1135   000C40  6E0E               	movwf	UARTWriteStrLn@string^0,c
  1136   000C42  500E               	movf	UARTWriteStrLn@string^0,w,c
  1137   000C44  A4D8               	btfss	status,2,c
  1138   000C46  0E06               	movlw	high __smallconst
  1139   000C48  6E0F               	movwf	(UARTWriteStrLn@string+1)^0,c
  1140   000C4A  EC8A  F010         	call	_UARTWriteStrLn	;wreg free
  1141   000C4E                     l4428:
  1142                           
  1143                           ;main.c: 342:     while (txBuffer != (UINT8_T)'o'){
  1144   000C4E  0E6F               	movlw	111
  1145   000C50  0100               	movlb	0	; () banked
  1146   000C52  19BB               	xorwf	_txBuffer& (0+255),w,b
  1147   000C54  A4D8               	btfss	status,2,c
  1148   000C56  EF2F  F006         	goto	u4251
  1149   000C5A  EF31  F006         	goto	u4250
  1150   000C5E                     u4251:
  1151   000C5E  EF27  F006         	goto	l4428
  1152   000C62                     u4250:
  1153   000C62                     
  1154                           ; BSR set to: 0
  1155                           ;main.c: 344:     txBuffer = 0;
  1156   000C62  0E00               	movlw	0
  1157   000C64  6FBB               	movwf	_txBuffer& (0+255),b
  1158   000C66                     
  1159                           ; BSR set to: 0
  1160                           ;main.c: 346:     UARTWriteStrLn("mac set deveui 70B3D57ED0067ED6");
  1161   000C66  0E51               	movlw	low STR_6
  1162   000C68  6E0E               	movwf	UARTWriteStrLn@string^0,c
  1163   000C6A  500E               	movf	UARTWriteStrLn@string^0,w,c
  1164   000C6C  A4D8               	btfss	status,2,c
  1165   000C6E  0E06               	movlw	high __smallconst
  1166   000C70  6E0F               	movwf	(UARTWriteStrLn@string+1)^0,c
  1167   000C72  EC8A  F010         	call	_UARTWriteStrLn	;wreg free
  1168   000C76                     l4434:
  1169                           
  1170                           ;main.c: 347:     while (txBuffer != (UINT8_T)'o'){
  1171   000C76  0E6F               	movlw	111
  1172   000C78  0100               	movlb	0	; () banked
  1173   000C7A  19BB               	xorwf	_txBuffer& (0+255),w,b
  1174   000C7C  A4D8               	btfss	status,2,c
  1175   000C7E  EF43  F006         	goto	u4261
  1176   000C82  EF45  F006         	goto	u4260
  1177   000C86                     u4261:
  1178   000C86  EF3B  F006         	goto	l4434
  1179   000C8A                     u4260:
  1180   000C8A                     
  1181                           ; BSR set to: 0
  1182                           ;main.c: 350:     txBuffer = 0;
  1183   000C8A  0E00               	movlw	0
  1184   000C8C  6FBB               	movwf	_txBuffer& (0+255),b
  1185   000C8E                     
  1186                           ; BSR set to: 0
  1187                           ;main.c: 352:     UARTWriteStrLn("mac save");
  1188   000C8E  0ECE               	movlw	low STR_7
  1189   000C90  6E0E               	movwf	UARTWriteStrLn@string^0,c
  1190   000C92  500E               	movf	UARTWriteStrLn@string^0,w,c
  1191   000C94  A4D8               	btfss	status,2,c
  1192   000C96  0E06               	movlw	high __smallconst
  1193   000C98  6E0F               	movwf	(UARTWriteStrLn@string+1)^0,c
  1194   000C9A  EC8A  F010         	call	_UARTWriteStrLn	;wreg free
  1195   000C9E                     l4440:
  1196                           
  1197                           ;main.c: 353:     while (txBuffer != (UINT8_T)'o'){
  1198   000C9E  0E6F               	movlw	111
  1199   000CA0  0100               	movlb	0	; () banked
  1200   000CA2  19BB               	xorwf	_txBuffer& (0+255),w,b
  1201   000CA4  A4D8               	btfss	status,2,c
  1202   000CA6  EF57  F006         	goto	u4271
  1203   000CAA  EF59  F006         	goto	u4270
  1204   000CAE                     u4271:
  1205   000CAE  EF4F  F006         	goto	l4440
  1206   000CB2                     u4270:
  1207   000CB2                     
  1208                           ; BSR set to: 0
  1209                           ;main.c: 356:     txBuffer = 0;
  1210   000CB2  0E00               	movlw	0
  1211   000CB4  6FBB               	movwf	_txBuffer& (0+255),b
  1212   000CB6                     
  1213                           ; BSR set to: 0
  1214                           ;main.c: 358:     UARTWriteStrLn("mac join otaa");
  1215   000CB6  0EA4               	movlw	low STR_8
  1216   000CB8  6E0E               	movwf	UARTWriteStrLn@string^0,c
  1217   000CBA  500E               	movf	UARTWriteStrLn@string^0,w,c
  1218   000CBC  A4D8               	btfss	status,2,c
  1219   000CBE  0E06               	movlw	high __smallconst
  1220   000CC0  6E0F               	movwf	(UARTWriteStrLn@string+1)^0,c
  1221   000CC2  EC8A  F010         	call	_UARTWriteStrLn	;wreg free
  1222                           
  1223                           ;main.c: 359:     while (txBuffer != (UINT8_T)'a'){
  1224   000CC6  EF6F  F006         	goto	l4450
  1225   000CCA                     l4446:
  1226                           
  1227                           ; BSR set to: 0
  1228                           ;main.c: 360:         if (txBuffer == (UINT8_T)'d') {
  1229   000CCA  0E64               	movlw	100
  1230   000CCC  19BB               	xorwf	_txBuffer& (0+255),w,b
  1231   000CCE  A4D8               	btfss	status,2,c
  1232   000CD0  EF6C  F006         	goto	u4281
  1233   000CD4  EF6E  F006         	goto	u4280
  1234   000CD8                     u4281:
  1235   000CD8  EF6F  F006         	goto	l4450
  1236   000CDC                     u4280:
  1237   000CDC                     
  1238                           ; BSR set to: 0
  1239   000CDC  00FF               	reset		;# 
  1240   000CDE                     l4450:
  1241                           
  1242                           ;main.c: 359:     while (txBuffer != (UINT8_T)'a'){
  1243   000CDE  0E61               	movlw	97
  1244   000CE0  0100               	movlb	0	; () banked
  1245   000CE2  19BB               	xorwf	_txBuffer& (0+255),w,b
  1246   000CE4  A4D8               	btfss	status,2,c
  1247   000CE6  EF77  F006         	goto	u4291
  1248   000CEA  EF79  F006         	goto	u4290
  1249   000CEE                     u4291:
  1250   000CEE  EF65  F006         	goto	l4446
  1251   000CF2                     u4290:
  1252   000CF2                     
  1253                           ; BSR set to: 0
  1254                           ;main.c: 365:     txBuffer = 0;
  1255   000CF2  0E00               	movlw	0
  1256   000CF4  6FBB               	movwf	_txBuffer& (0+255),b
  1257                           
  1258                           ;main.c: 367:     myvar = 0;
  1259   000CF6  0E00               	movlw	0
  1260   000CF8  6FBA               	movwf	(_myvar+1)& (0+255),b
  1261   000CFA  0E00               	movlw	0
  1262   000CFC  6FB9               	movwf	_myvar& (0+255),b
  1263                           
  1264                           ;main.c: 370:         temp2 = 0;
  1265   000CFE  0E00               	movlw	0
  1266   000D00  0101               	movlb	1	; () banked
  1267   000D02  6F40               	movwf	main@temp2& (0+255),b
  1268   000D04                     
  1269                           ; BSR set to: 1
  1270                           ;main.c: 372:         _delay(125000);
  1271   000D04  0EA3               	movlw	163
  1272   000D06  0100               	movlb	0	; () banked
  1273   000D08  6FE1               	movwf	??_main& (0+255),b
  1274   000D0A  0E55               	movlw	85
  1275   000D0C                     u4387:
  1276   000D0C  2EE8               	decfsz	wreg,f,c
  1277   000D0E  D7FE               	bra	u4387
  1278   000D10  2FE1               	decfsz	??_main& (0+255),f,b
  1279   000D12  D7FC               	bra	u4387
  1280   000D14                     
  1281                           ;main.c: 377:         i2c_start();
  1282   000D14  EC78  F012         	call	_i2c_start	;wreg free
  1283   000D18                     
  1284                           ;main.c: 378:         i2c_write((0x20 << 1) | 0);
  1285   000D18  0E40               	movlw	64
  1286   000D1A  EC26  F012         	call	_i2c_write
  1287   000D1E                     
  1288                           ;main.c: 379:         i2c_write(0x00) ;
  1289   000D1E  0E00               	movlw	0
  1290   000D20  EC26  F012         	call	_i2c_write
  1291   000D24                     
  1292                           ;main.c: 380:         i2c_repStart();
  1293   000D24  EC34  F012         	call	_i2c_repStart	;wreg free
  1294   000D28                     
  1295                           ;main.c: 381:         i2c_write((0x20 << 1) | 1);
  1296   000D28  0E41               	movlw	65
  1297   000D2A  EC26  F012         	call	_i2c_write
  1298   000D2E  EC16  F012         	call	_i2c_read	;wreg free
  1299   000D32                     
  1300                           ;main.c: 383:         i2c_ACK();
  1301   000D32  EC62  F012         	call	_i2c_ACK	;wreg free
  1302   000D36  EC16  F012         	call	_i2c_read	;wreg free
  1303   000D3A                     
  1304                           ;main.c: 385:         i2c_NAK();
  1305   000D3A  EC57  F012         	call	_i2c_NAK	;wreg free
  1306   000D3E                     
  1307                           ;main.c: 386:         i2c_stop();
  1308   000D3E  EC40  F012         	call	_i2c_stop	;wreg free
  1309   000D42                     
  1310                           ;main.c: 388:         i2c_start();
  1311   000D42  EC78  F012         	call	_i2c_start	;wreg free
  1312   000D46                     
  1313                           ;main.c: 390:         i2c_write((0x20 << 1) | 0);
  1314   000D46  0E40               	movlw	64
  1315   000D48  EC26  F012         	call	_i2c_write
  1316   000D4C                     
  1317                           ;main.c: 391:         i2c_write(0x09) ;
  1318   000D4C  0E09               	movlw	9
  1319   000D4E  EC26  F012         	call	_i2c_write
  1320   000D52                     
  1321                           ;main.c: 392:         i2c_repStart();
  1322   000D52  EC34  F012         	call	_i2c_repStart	;wreg free
  1323   000D56                     
  1324                           ;main.c: 393:         i2c_write((0x20 << 1) | 1);
  1325   000D56  0E41               	movlw	65
  1326   000D58  EC26  F012         	call	_i2c_write
  1327   000D5C                     
  1328                           ;main.c: 395:         INT8_T check_mesure = i2c_read();
  1329   000D5C  EC16  F012         	call	_i2c_read	;wreg free
  1330   000D60  0101               	movlb	1	; () banked
  1331   000D62  6F56               	movwf	main@check_mesure& (0+255),b
  1332   000D64                     
  1333                           ; BSR set to: 1
  1334                           ;main.c: 396:         i2c_NAK();
  1335   000D64  EC57  F012         	call	_i2c_NAK	;wreg free
  1336   000D68                     
  1337                           ;main.c: 397:         i2c_stop();
  1338   000D68  EC40  F012         	call	_i2c_stop	;wreg free
  1339                           
  1340                           ;main.c: 399:         while (check_mesure != 0){
  1341   000D6C  EFBB  F006         	goto	l4492
  1342   000D70                     l140:
  1343                           
  1344                           ; BSR set to: 1
  1345                           ;main.c: 400:             _delay(5);
  1346   000D70  D000               	nop2		;2 cycle nop
  1347   000D72  D000               	nop2		;2 cycle nop
  1348   000D74  0000               	nop	
  1349   000D76                     l4492:
  1350                           
  1351                           ;main.c: 399:         while (check_mesure != 0){
  1352   000D76  0101               	movlb	1	; () banked
  1353   000D78  5156               	movf	main@check_mesure& (0+255),w,b
  1354   000D7A  A4D8               	btfss	status,2,c
  1355   000D7C  EFC2  F006         	goto	u4301
  1356   000D80  EFC4  F006         	goto	u4300
  1357   000D84                     u4301:
  1358   000D84  EFB8  F006         	goto	l140
  1359   000D88                     u4300:
  1360   000D88                     
  1361                           ; BSR set to: 1
  1362                           ;main.c: 403:         i2c_start();
  1363   000D88  EC78  F012         	call	_i2c_start	;wreg free
  1364   000D8C                     
  1365                           ;main.c: 404:         i2c_write((0x20 << 1) | 0);
  1366   000D8C  0E40               	movlw	64
  1367   000D8E  EC26  F012         	call	_i2c_write
  1368   000D92                     
  1369                           ;main.c: 405:         i2c_write(0x00) ;
  1370   000D92  0E00               	movlw	0
  1371   000D94  EC26  F012         	call	_i2c_write
  1372   000D98                     
  1373                           ;main.c: 406:         i2c_repStart();
  1374   000D98  EC34  F012         	call	_i2c_repStart	;wreg free
  1375   000D9C                     
  1376                           ;main.c: 407:         i2c_write((0x20 << 1) | 1);
  1377   000D9C  0E41               	movlw	65
  1378   000D9E  EC26  F012         	call	_i2c_write
  1379   000DA2  EC16  F012         	call	_i2c_read	;wreg free
  1380   000DA6                     
  1381                           ;main.c: 410:         i2c_ACK();
  1382   000DA6  EC62  F012         	call	_i2c_ACK	;wreg free
  1383   000DAA  EC16  F012         	call	_i2c_read	;wreg free
  1384   000DAE                     
  1385                           ;main.c: 412:         i2c_NAK();
  1386   000DAE  EC57  F012         	call	_i2c_NAK	;wreg free
  1387   000DB2                     
  1388                           ;main.c: 413:         i2c_stop();
  1389   000DB2  EC40  F012         	call	_i2c_stop	;wreg free
  1390                           
  1391                           ;main.c: 419:         i2c_start();
  1392   000DB6  EC78  F012         	call	_i2c_start	;wreg free
  1393   000DBA                     
  1394                           ;main.c: 420:         i2c_write((0x20 << 1) | 0);
  1395   000DBA  0E40               	movlw	64
  1396   000DBC  EC26  F012         	call	_i2c_write
  1397   000DC0                     
  1398                           ;main.c: 421:         i2c_write(0x05) ;
  1399   000DC0  0E05               	movlw	5
  1400   000DC2  EC26  F012         	call	_i2c_write
  1401   000DC6                     
  1402                           ;main.c: 422:         i2c_repStart();
  1403   000DC6  EC34  F012         	call	_i2c_repStart	;wreg free
  1404   000DCA                     
  1405                           ;main.c: 423:         i2c_write((0x20 << 1) | 1);
  1406   000DCA  0E41               	movlw	65
  1407   000DCC  EC26  F012         	call	_i2c_write
  1408   000DD0  EC16  F012         	call	_i2c_read	;wreg free
  1409   000DD4                     
  1410                           ;main.c: 425:         i2c_ACK();
  1411   000DD4  EC62  F012         	call	_i2c_ACK	;wreg free
  1412   000DD8  EC16  F012         	call	_i2c_read	;wreg free
  1413   000DDC                     
  1414                           ;main.c: 427:         i2c_NAK();
  1415   000DDC  EC57  F012         	call	_i2c_NAK	;wreg free
  1416   000DE0                     
  1417                           ;main.c: 428:         i2c_stop();
  1418   000DE0  EC40  F012         	call	_i2c_stop	;wreg free
  1419                           
  1420                           ;main.c: 430:         i2c_start();
  1421   000DE4  EC78  F012         	call	_i2c_start	;wreg free
  1422   000DE8                     
  1423                           ;main.c: 432:         i2c_write((0x20 << 1) | 0);
  1424   000DE8  0E40               	movlw	64
  1425   000DEA  EC26  F012         	call	_i2c_write
  1426   000DEE                     
  1427                           ;main.c: 433:         i2c_write(0x09) ;
  1428   000DEE  0E09               	movlw	9
  1429   000DF0  EC26  F012         	call	_i2c_write
  1430   000DF4                     
  1431                           ;main.c: 434:         i2c_repStart();
  1432   000DF4  EC34  F012         	call	_i2c_repStart	;wreg free
  1433   000DF8                     
  1434                           ;main.c: 435:         i2c_write((0x20 << 1) | 1);
  1435   000DF8  0E41               	movlw	65
  1436   000DFA  EC26  F012         	call	_i2c_write
  1437   000DFE                     
  1438                           ;main.c: 437:         check_mesure = i2c_read();
  1439   000DFE  EC16  F012         	call	_i2c_read	;wreg free
  1440   000E02  0101               	movlb	1	; () banked
  1441   000E04  6F56               	movwf	main@check_mesure& (0+255),b
  1442   000E06                     
  1443                           ; BSR set to: 1
  1444                           ;main.c: 438:         i2c_NAK();
  1445   000E06  EC57  F012         	call	_i2c_NAK	;wreg free
  1446                           
  1447                           ;main.c: 439:         i2c_stop();
  1448   000E0A  EC40  F012         	call	_i2c_stop	;wreg free
  1449                           
  1450                           ;main.c: 441:         while (check_mesure != 0){
  1451   000E0E  EF0C  F007         	goto	l4540
  1452   000E12                     l143:
  1453                           
  1454                           ; BSR set to: 1
  1455                           ;main.c: 442:             _delay(5);
  1456   000E12  D000               	nop2		;2 cycle nop
  1457   000E14  D000               	nop2		;2 cycle nop
  1458   000E16  0000               	nop	
  1459   000E18                     l4540:
  1460                           
  1461                           ;main.c: 441:         while (check_mesure != 0){
  1462   000E18  0101               	movlb	1	; () banked
  1463   000E1A  5156               	movf	main@check_mesure& (0+255),w,b
  1464   000E1C  A4D8               	btfss	status,2,c
  1465   000E1E  EF13  F007         	goto	u4311
  1466   000E22  EF15  F007         	goto	u4310
  1467   000E26                     u4311:
  1468   000E26  EF09  F007         	goto	l143
  1469   000E2A                     u4310:
  1470   000E2A                     
  1471                           ; BSR set to: 1
  1472                           ;main.c: 445:         i2c_start();
  1473   000E2A  EC78  F012         	call	_i2c_start	;wreg free
  1474   000E2E                     
  1475                           ;main.c: 446:         i2c_write((0x20 << 1) | 0);
  1476   000E2E  0E40               	movlw	64
  1477   000E30  EC26  F012         	call	_i2c_write
  1478   000E34                     
  1479                           ;main.c: 447:         i2c_write(0x05) ;
  1480   000E34  0E05               	movlw	5
  1481   000E36  EC26  F012         	call	_i2c_write
  1482   000E3A                     
  1483                           ;main.c: 448:         i2c_repStart();
  1484   000E3A  EC34  F012         	call	_i2c_repStart	;wreg free
  1485   000E3E                     
  1486                           ;main.c: 449:         i2c_write((0x20 << 1) | 1);
  1487   000E3E  0E41               	movlw	65
  1488   000E40  EC26  F012         	call	_i2c_write
  1489   000E44  EC16  F012         	call	_i2c_read	;wreg free
  1490   000E48                     
  1491                           ;main.c: 452:         i2c_ACK();
  1492   000E48  EC62  F012         	call	_i2c_ACK	;wreg free
  1493   000E4C  EC16  F012         	call	_i2c_read	;wreg free
  1494   000E50                     
  1495                           ;main.c: 454:         i2c_NAK();
  1496   000E50  EC57  F012         	call	_i2c_NAK	;wreg free
  1497   000E54                     
  1498                           ;main.c: 455:         i2c_stop();
  1499   000E54  EC40  F012         	call	_i2c_stop	;wreg free
  1500                           
  1501                           ;main.c: 463:         i2c_start();
  1502   000E58  EC78  F012         	call	_i2c_start	;wreg free
  1503   000E5C                     
  1504                           ;main.c: 464:         i2c_write((0x40 << 1) | 0);
  1505   000E5C  0E80               	movlw	128
  1506   000E5E  EC26  F012         	call	_i2c_write
  1507   000E62                     
  1508                           ;main.c: 465:         i2c_write(0x04) ;
  1509   000E62  0E04               	movlw	4
  1510   000E64  EC26  F012         	call	_i2c_write
  1511   000E68                     
  1512                           ;main.c: 466:         i2c_repStart();
  1513   000E68  EC34  F012         	call	_i2c_repStart	;wreg free
  1514   000E6C                     
  1515                           ;main.c: 467:         i2c_write((0x40 << 1) | 1);
  1516   000E6C  0E81               	movlw	129
  1517   000E6E  EC26  F012         	call	_i2c_write
  1518   000E72                     
  1519                           ;main.c: 469:         watt1 = i2c_read();
  1520   000E72  EC16  F012         	call	_i2c_read	;wreg free
  1521   000E76  0101               	movlb	1	; () banked
  1522   000E78  6F50               	movwf	main@watt1& (0+255),b
  1523   000E7A                     
  1524                           ; BSR set to: 1
  1525                           ;main.c: 470:         i2c_ACK();
  1526   000E7A  EC62  F012         	call	_i2c_ACK	;wreg free
  1527                           
  1528                           ;main.c: 471:         watt2 = i2c_read();
  1529   000E7E  EC16  F012         	call	_i2c_read	;wreg free
  1530   000E82  0101               	movlb	1	; () banked
  1531   000E84  6F51               	movwf	main@watt2& (0+255),b
  1532   000E86                     
  1533                           ; BSR set to: 1
  1534                           ;main.c: 472:         i2c_NAK();
  1535   000E86  EC57  F012         	call	_i2c_NAK	;wreg free
  1536   000E8A                     
  1537                           ;main.c: 473:         i2c_stop();
  1538   000E8A  EC40  F012         	call	_i2c_stop	;wreg free
  1539   000E8E                     
  1540                           ;main.c: 482:         long adc_T = BME280_Read_Temperature();
  1541   000E8E  EC33  F010         	call	_BME280_Read_Temperature	;wreg free
  1542   000E92  C00F  F148         	movff	?_BME280_Read_Temperature,main@adc_T
  1543   000E96  C010  F149         	movff	?_BME280_Read_Temperature+1,main@adc_T+1
  1544   000E9A  C011  F14A         	movff	?_BME280_Read_Temperature+2,main@adc_T+2
  1545   000E9E  C012  F14B         	movff	?_BME280_Read_Temperature+3,main@adc_T+3
  1546   000EA2                     
  1547                           ;main.c: 484:         double temp_air = BME280_Compensate_Temperature(adc_T);
  1548   000EA2  C148  F0C4         	movff	main@adc_T,BME280_Compensate_Temperature@adc_T
  1549   000EA6  C149  F0C5         	movff	main@adc_T+1,BME280_Compensate_Temperature@adc_T+1
  1550   000EAA  C14A  F0C6         	movff	main@adc_T+2,BME280_Compensate_Temperature@adc_T+2
  1551   000EAE  C14B  F0C7         	movff	main@adc_T+3,BME280_Compensate_Temperature@adc_T+3
  1552   000EB2  ECF4  F00B         	call	_BME280_Compensate_Temperature	;wreg free
  1553   000EB6  C0C4  F152         	movff	?_BME280_Compensate_Temperature,main@temp_air
  1554   000EBA  C0C5  F153         	movff	?_BME280_Compensate_Temperature+1,main@temp_air+1
  1555   000EBE  C0C6  F154         	movff	?_BME280_Compensate_Temperature+2,main@temp_air+2
  1556   000EC2  C0C7  F155         	movff	?_BME280_Compensate_Temperature+3,main@temp_air+3
  1557   000EC6                     
  1558                           ;main.c: 486:         unsigned long temp_32bit = (unsigned long)(temp_air * 1024 * 1024)
      +                          ;
  1559   000EC6  0E00               	movlw	0
  1560   000EC8  6E2F               	movwf	___flmul@a^0,c
  1561   000ECA  0E00               	movlw	0
  1562   000ECC  6E30               	movwf	(___flmul@a+1)^0,c
  1563   000ECE  0E80               	movlw	128
  1564   000ED0  6E31               	movwf	(___flmul@a+2)^0,c
  1565   000ED2  0E44               	movlw	68
  1566   000ED4  6E32               	movwf	(___flmul@a+3)^0,c
  1567   000ED6  C152  F02B         	movff	main@temp_air,___flmul@b
  1568   000EDA  C153  F02C         	movff	main@temp_air+1,___flmul@b+1
  1569   000EDE  C154  F02D         	movff	main@temp_air+2,___flmul@b+2
  1570   000EE2  C155  F02E         	movff	main@temp_air+3,___flmul@b+3
  1571   000EE6  EC12  F008         	call	___flmul	;wreg free
  1572   000EEA  C02B  F14C         	movff	?___flmul,_main$2197
  1573   000EEE  C02C  F14D         	movff	?___flmul+1,_main$2197+1
  1574   000EF2  C02D  F14E         	movff	?___flmul+2,_main$2197+2
  1575   000EF6  C02E  F14F         	movff	?___flmul+3,_main$2197+3
  1576   000EFA                     
  1577                           ;main.c: 486:         unsigned long temp_32bit = (unsigned long)(temp_air * 1024 * 1024)
      +                          ;
  1578   000EFA  0E00               	movlw	0
  1579   000EFC  6E2F               	movwf	___flmul@a^0,c
  1580   000EFE  0E00               	movlw	0
  1581   000F00  6E30               	movwf	(___flmul@a+1)^0,c
  1582   000F02  0E80               	movlw	128
  1583   000F04  6E31               	movwf	(___flmul@a+2)^0,c
  1584   000F06  0E44               	movlw	68
  1585   000F08  6E32               	movwf	(___flmul@a+3)^0,c
  1586   000F0A  C14C  F02B         	movff	_main$2197,___flmul@b
  1587   000F0E  C14D  F02C         	movff	_main$2197+1,___flmul@b+1
  1588   000F12  C14E  F02D         	movff	_main$2197+2,___flmul@b+2
  1589   000F16  C14F  F02E         	movff	_main$2197+3,___flmul@b+3
  1590   000F1A  EC12  F008         	call	___flmul	;wreg free
  1591   000F1E  C02B  F044         	movff	?___flmul,___fltol@f1
  1592   000F22  C02C  F045         	movff	?___flmul+1,___fltol@f1+1
  1593   000F26  C02D  F046         	movff	?___flmul+2,___fltol@f1+2
  1594   000F2A  C02E  F047         	movff	?___flmul+3,___fltol@f1+3
  1595   000F2E  ECF8  F00E         	call	___fltol	;wreg free
  1596   000F32  C044  F157         	movff	?___fltol,main@temp_32bit
  1597   000F36  C045  F158         	movff	?___fltol+1,main@temp_32bit+1
  1598   000F3A  C046  F159         	movff	?___fltol+2,main@temp_32bit+2
  1599   000F3E  C047  F15A         	movff	?___fltol+3,main@temp_32bit+3
  1600   000F42                     
  1601                           ;main.c: 487:         unsigned char temp_MSB = (temp_32bit >> 16) & 0xFF;
  1602   000F42  C159  F141         	movff	main@temp_32bit+2,main@temp_MSB
  1603   000F46                     
  1604                           ;main.c: 488:         unsigned char temp_MidSB = (temp_32bit >> 8) & 0xFF;
  1605   000F46  C158  F142         	movff	main@temp_32bit+1,main@temp_MidSB
  1606   000F4A                     
  1607                           ;main.c: 489:         unsigned char temp_LSB = temp_32bit & 0xFF;
  1608   000F4A  C157  F143         	movff	main@temp_32bit,main@temp_LSB
  1609   000F4E                     
  1610                           ;main.c: 495:         float temp_celsius = (float)temp_air;
  1611   000F4E  C152  F134         	movff	main@temp_air,main@temp_celsius
  1612   000F52  C153  F135         	movff	main@temp_air+1,main@temp_celsius+1
  1613   000F56  C154  F136         	movff	main@temp_air+2,main@temp_celsius+2
  1614   000F5A  C155  F137         	movff	main@temp_air+3,main@temp_celsius+3
  1615   000F5E                     
  1616                           ;main.c: 515:         _delay(125000);
  1617   000F5E  0EA3               	movlw	163
  1618   000F60  0100               	movlb	0	; () banked
  1619   000F62  6FE1               	movwf	??_main& (0+255),b
  1620   000F64  0E55               	movlw	85
  1621   000F66                     u4397:
  1622   000F66  2EE8               	decfsz	wreg,f,c
  1623   000F68  D7FE               	bra	u4397
  1624   000F6A  2FE1               	decfsz	??_main& (0+255),f,b
  1625   000F6C  D7FC               	bra	u4397
  1626   000F6E                     
  1627                           ;main.c: 518:         myvar = 0x00;
  1628   000F6E  0E00               	movlw	0
  1629   000F70  0100               	movlb	0	; () banked
  1630   000F72  6FBA               	movwf	(_myvar+1)& (0+255),b
  1631   000F74  0E00               	movlw	0
  1632   000F76  6FB9               	movwf	_myvar& (0+255),b
  1633   000F78                     
  1634                           ; BSR set to: 0
  1635                           ;main.c: 519:         myvar2 = 0x00;
  1636   000F78  0E00               	movlw	0
  1637   000F7A  6FB8               	movwf	(_myvar2+1)& (0+255),b
  1638   000F7C  0E00               	movlw	0
  1639   000F7E  6FB7               	movwf	_myvar2& (0+255),b
  1640   000F80                     
  1641                           ; BSR set to: 0
  1642                           ;main.c: 521:         int myvar3 = 0x00;
  1643   000F80  0E00               	movlw	0
  1644   000F82  0101               	movlb	1	; () banked
  1645   000F84  6F39               	movwf	(main@myvar3+1)& (0+255),b
  1646   000F86  0E00               	movlw	0
  1647   000F88  6F38               	movwf	main@myvar3& (0+255),b
  1648   000F8A                     
  1649                           ; BSR set to: 1
  1650                           ;main.c: 522:         int myvar4 = 0x00;
  1651   000F8A  0E00               	movlw	0
  1652   000F8C  6F3B               	movwf	(main@myvar4+1)& (0+255),b
  1653   000F8E  0E00               	movlw	0
  1654   000F90  6F3A               	movwf	main@myvar4& (0+255),b
  1655   000F92                     
  1656                           ; BSR set to: 1
  1657                           ;main.c: 524:         int myvar5 = 0x00;
  1658   000F92  0E00               	movlw	0
  1659   000F94  6F3D               	movwf	(main@myvar5+1)& (0+255),b
  1660   000F96  0E00               	movlw	0
  1661   000F98  6F3C               	movwf	main@myvar5& (0+255),b
  1662   000F9A                     
  1663                           ; BSR set to: 1
  1664                           ;main.c: 525:         int myvar6 = 0x00;
  1665   000F9A  0E00               	movlw	0
  1666   000F9C  6F3F               	movwf	(main@myvar6+1)& (0+255),b
  1667   000F9E  0E00               	movlw	0
  1668   000FA0  6F3E               	movwf	main@myvar6& (0+255),b
  1669   000FA2                     
  1670                           ; BSR set to: 1
  1671                           ;main.c: 527:         sprintf(buffer, "mac tx uncnf 1 %x%x", watt1,watt2);
  1672   000FA2  0E00               	movlw	low _buffer
  1673   000FA4  6E24               	movwf	sprintf@s^0,c
  1674   000FA6  0E01               	movlw	high _buffer
  1675   000FA8  6E25               	movwf	(sprintf@s+1)^0,c
  1676   000FAA  0E71               	movlw	low STR_9
  1677   000FAC  6E26               	movwf	sprintf@fmt^0,c
  1678   000FAE  C150  F027         	movff	main@watt1,?_sprintf+3
  1679   000FB2  6A28               	clrf	(?_sprintf+4)^0,c
  1680   000FB4  C151  F029         	movff	main@watt2,?_sprintf+5
  1681   000FB8  6A2A               	clrf	(?_sprintf+6)^0,c
  1682   000FBA  EC9E  F011         	call	_sprintf	;wreg free
  1683   000FBE                     
  1684                           ;main.c: 528:         UARTWriteStrLn(buffer);
  1685   000FBE  0E00               	movlw	low _buffer
  1686   000FC0  6E0E               	movwf	UARTWriteStrLn@string^0,c
  1687   000FC2  0E01               	movlw	high _buffer
  1688   000FC4  6E0F               	movwf	(UARTWriteStrLn@string+1)^0,c
  1689   000FC6  EC8A  F010         	call	_UARTWriteStrLn	;wreg free
  1690   000FCA                     l4610:
  1691                           
  1692                           ;main.c: 529:         while (UARTReadByte() != (UINT8_T)'m'){
  1693   000FCA  EC82  F012         	call	_UARTReadByte	;wreg free
  1694   000FCE  0A6D               	xorlw	109
  1695   000FD0  A4D8               	btfss	status,2,c
  1696   000FD2  EFED  F007         	goto	u4321
  1697   000FD6  EFEF  F007         	goto	u4320
  1698   000FDA                     u4321:
  1699   000FDA  EFE5  F007         	goto	l4610
  1700   000FDE                     u4320:
  1701   000FDE  EFF3  F007         	goto	l148
  1702   000FE2                     l4612:
  1703                           
  1704                           ; BSR set to: 0
  1705                           ;main.c: 532:             txBuffer = 0;
  1706   000FE2  0E00               	movlw	0
  1707   000FE4  6FBB               	movwf	_txBuffer& (0+255),b
  1708   000FE6                     l148:
  1709                           
  1710                           ;main.c: 531:         while (txBuffer != 0){
  1711   000FE6  0100               	movlb	0	; () banked
  1712   000FE8  51BB               	movf	_txBuffer& (0+255),w,b
  1713   000FEA  A4D8               	btfss	status,2,c
  1714   000FEC  EFFA  F007         	goto	u4331
  1715   000FF0  EFFC  F007         	goto	u4330
  1716   000FF4                     u4331:
  1717   000FF4  EFF1  F007         	goto	l4612
  1718   000FF8                     u4330:
  1719   000FF8                     
  1720                           ; BSR set to: 0
  1721                           ;main.c: 536:         int compteur = 0;
  1722   000FF8  0E00               	movlw	0
  1723   000FFA  0101               	movlb	1	; () banked
  1724   000FFC  6F45               	movwf	(main@compteur+1)& (0+255),b
  1725   000FFE  0E00               	movlw	0
  1726   001000  6F44               	movwf	main@compteur& (0+255),b
  1727                           
  1728                           ;main.c: 537:         int bit_vanne = 0;
  1729   001002  0E00               	movlw	0
  1730   001004  6F47               	movwf	(main@bit_vanne+1)& (0+255),b
  1731   001006  0E00               	movlw	0
  1732   001008  6F46               	movwf	main@bit_vanne& (0+255),b
  1733   00100A  0003               	sleep		;# 
  1734   00100C  0004               	clrwdt		;# 
  1735   00100E                     
  1736                           ;main.c: 541:             ++compteur;
  1737   00100E  0101               	movlb	1	; () banked
  1738   001010  4B44               	infsnz	main@compteur& (0+255),f,b
  1739   001012  2B45               	incf	(main@compteur+1)& (0+255),f,b
  1740   001014                     
  1741                           ; BSR set to: 1
  1742                           ;main.c: 542:             bit_vanne = 0;
  1743   001014  0E00               	movlw	0
  1744   001016  6F47               	movwf	(main@bit_vanne+1)& (0+255),b
  1745   001018  0E00               	movlw	0
  1746   00101A  6F46               	movwf	main@bit_vanne& (0+255),b
  1747   00101C  EFEA  F005         	goto	l119
  1748   001020  EF51  F000         	goto	start
  1749   001024                     __end_of_main:
  1750                           	callstack 0
  1751                           
  1752 ;; *************** function _sprintf *****************
  1753 ;; Defined at:
  1754 ;;		line 9 in file "/opt/microchip/xc8/v2.46/pic/sources/c99/common/nf_sprintf.c"
  1755 ;; Parameters:    Size  Location     Type
  1756 ;;  s               2   35[COMRAM] PTR unsigned char 
  1757 ;;		 -> buffer(50), 
  1758 ;;  fmt             1   37[COMRAM] PTR const unsigned char 
  1759 ;;		 -> STR_9(20), 
  1760 ;; Auto vars:     Size  Location     Type
  1761 ;;  f              12   43[COMRAM] struct _IO_FILE
  1762 ;;  ret             2    0        int 
  1763 ;;  ap              1   42[COMRAM] PTR void [1]
  1764 ;;		 -> ?_sprintf(2), 
  1765 ;; Return value:  Size  Location     Type
  1766 ;;                  2   35[COMRAM] int 
  1767 ;; Registers used:
  1768 ;;		wreg, fsr1l, fsr1h, fsr2l, fsr2h, status,2, status,0, tblptrl, tblptrh, tblptru, cstack
  1769 ;; Tracked objects:
  1770 ;;		On entry : 0/0
  1771 ;;		On exit  : 0/0
  1772 ;;		Unchanged: 0/0
  1773 ;; Data sizes:     COMRAM   BANK0   BANK1   BANK2   BANK3   BANK4   BANK5
  1774 ;;      Params:         7       0       0       0       0       0       0
  1775 ;;      Locals:        13       0       0       0       0       0       0
  1776 ;;      Temps:          0       0       0       0       0       0       0
  1777 ;;      Totals:        20       0       0       0       0       0       0
  1778 ;;Total ram usage:       20 bytes
  1779 ;; Hardware stack levels used: 1
  1780 ;; Hardware stack levels required when called: 7
  1781 ;; This function calls:
  1782 ;;		_vfprintf
  1783 ;; This function is called by:
  1784 ;;		_main
  1785 ;; This function uses a non-reentrant model
  1786 ;;
  1787                           
  1788                           	psect	text1
  1789   00233C                     __ptext1:
  1790                           	callstack 0
  1791   00233C                     _sprintf:
  1792                           	callstack 23
  1793   00233C  0E27               	movlw	low (?_sprintf+3)
  1794   00233E  6E2B               	movwf	sprintf@ap^0,c
  1795   002340  C024  F02C         	movff	sprintf@s,sprintf@f
  1796   002344  C025  F02D         	movff	sprintf@s+1,sprintf@f+1
  1797   002348  0E00               	movlw	0
  1798   00234A  6E30               	movwf	(sprintf@f+4)^0,c
  1799   00234C  0E00               	movlw	0
  1800   00234E  6E2F               	movwf	(sprintf@f+3)^0,c
  1801   002350  0E00               	movlw	0
  1802   002352  6E37               	movwf	(sprintf@f+11)^0,c
  1803   002354  0E00               	movlw	0
  1804   002356  6E36               	movwf	(sprintf@f+10)^0,c
  1805   002358  0E2C               	movlw	low sprintf@f
  1806   00235A  6E20               	movwf	vfprintf@fp^0,c
  1807   00235C  C026  F021         	movff	sprintf@fmt,vfprintf@fmt
  1808   002360  0E2B               	movlw	low sprintf@ap
  1809   002362  6E22               	movwf	vfprintf@ap^0,c
  1810   002364  EC7F  F011         	call	_vfprintf	;wreg free
  1811   002368  502F               	movf	(sprintf@f+3)^0,w,c
  1812   00236A  2424               	addwf	sprintf@s^0,w,c
  1813   00236C  6ED9               	movwf	fsr2l,c
  1814   00236E  5030               	movf	(sprintf@f+4)^0,w,c
  1815   002370  2025               	addwfc	(sprintf@s+1)^0,w,c
  1816   002372  6EDA               	movwf	fsr2h,c
  1817   002374  6ADF               	clrf	indf2,c
  1818   002376  0012               	return		;funcret
  1819   002378                     __end_of_sprintf:
  1820                           	callstack 0
  1821                           
  1822 ;; *************** function _vfprintf *****************
  1823 ;; Defined at:
  1824 ;;		line 1817 in file "/opt/microchip/xc8/v2.46/pic/sources/c99/common/doprnt.c"
  1825 ;; Parameters:    Size  Location     Type
  1826 ;;  fp              1   31[COMRAM] PTR struct _IO_FILE
  1827 ;;		 -> sprintf@f(12), 
  1828 ;;  fmt             1   32[COMRAM] PTR const unsigned char 
  1829 ;;		 -> STR_9(20), 
  1830 ;;  ap              1   33[COMRAM] PTR PTR void 
  1831 ;;		 -> sprintf@ap(1), 
  1832 ;; Auto vars:     Size  Location     Type
  1833 ;;  cfmt            1   34[COMRAM] PTR unsigned char 
  1834 ;;		 -> STR_9(20), 
  1835 ;; Return value:  Size  Location     Type
  1836 ;;                  2   31[COMRAM] int 
  1837 ;; Registers used:
  1838 ;;		wreg, fsr1l, fsr1h, fsr2l, fsr2h, status,2, status,0, tblptrl, tblptrh, tblptru, cstack
  1839 ;; Tracked objects:
  1840 ;;		On entry : 0/0
  1841 ;;		On exit  : 0/0
  1842 ;;		Unchanged: 0/0
  1843 ;; Data sizes:     COMRAM   BANK0   BANK1   BANK2   BANK3   BANK4   BANK5
  1844 ;;      Params:         3       0       0       0       0       0       0
  1845 ;;      Locals:         1       0       0       0       0       0       0
  1846 ;;      Temps:          0       0       0       0       0       0       0
  1847 ;;      Totals:         4       0       0       0       0       0       0
  1848 ;;Total ram usage:        4 bytes
  1849 ;; Hardware stack levels used: 1
  1850 ;; Hardware stack levels required when called: 6
  1851 ;; This function calls:
  1852 ;;		_vfpfcnvrt
  1853 ;; This function is called by:
  1854 ;;		_sprintf
  1855 ;; This function uses a non-reentrant model
  1856 ;;
  1857                           
  1858                           	psect	text2
  1859   0022FE                     __ptext2:
  1860                           	callstack 0
  1861   0022FE                     _vfprintf:
  1862                           	callstack 23
  1863   0022FE                     
  1864                           ;/opt/microchip/xc8/v2.46/pic/sources/c99/common/doprnt.c: 1817: int vfprintf(FILE *fp, 
      +                          const char *fmt, va_list ap);/opt/microchip/xc8/v2.46/pic/sources/c99/common/doprnt.c: 1
      +                          818: {;/opt/microchip/xc8/v2.46/pic/sources/c99/common/doprnt.c: 1820:     char *cfmt;;/
      +                          opt/microchip/xc8/v2.46/pic/sources/c99/common/doprnt.c: 1822:     cfmt = (char *)fmt;
  1865   0022FE  C021  F023         	movff	vfprintf@fmt,vfprintf@cfmt
  1866                           
  1867                           ;/opt/microchip/xc8/v2.46/pic/sources/c99/common/doprnt.c: 1826:     while (*cfmt) {
  1868   002302  EF8B  F011         	goto	l4156
  1869   002306                     l4154:
  1870                           
  1871                           ;/opt/microchip/xc8/v2.46/pic/sources/c99/common/doprnt.c: 1830:    vfpfcnvrt(fp, &cfmt,
      +                           ap);
  1872   002306  C020  F015         	movff	vfprintf@fp,vfpfcnvrt@fp
  1873   00230A  0E23               	movlw	low vfprintf@cfmt
  1874   00230C  6E16               	movwf	vfpfcnvrt@fmt^0,c
  1875   00230E  C022  F017         	movff	vfprintf@ap,vfpfcnvrt@ap
  1876   002312  EC41  F00E         	call	_vfpfcnvrt	;wreg free
  1877   002316                     l4156:
  1878                           
  1879                           ;/opt/microchip/xc8/v2.46/pic/sources/c99/common/doprnt.c: 1826:     while (*cfmt) {
  1880   002316  C023  FFF6         	movff	vfprintf@cfmt,tblptrl
  1881   00231A                     	if	1	;There is more than 1 active tblptr byte
  1882   00231A  0E06               	movlw	high __smallconst
  1883   00231C  6EF7               	movwf	tblptrh,c
  1884   00231E                     	endif
  1885   00231E                     	if	0	;tblptru may be non-zero
  1886   00231E                     	endif
  1887   00231E                     	if	0	;tblptru may be non-zero
  1888   00231E                     	endif
  1889   00231E  0008               	tblrd		*
  1890   002320  50F5               	movf	tablat,w,c
  1891   002322  0900               	iorlw	0
  1892   002324  A4D8               	btfss	status,2,c
  1893   002326  EF97  F011         	goto	u4141
  1894   00232A  EF99  F011         	goto	u4140
  1895   00232E                     u4141:
  1896   00232E  EF83  F011         	goto	l4154
  1897   002332                     u4140:
  1898   002332                     
  1899                           ;/opt/microchip/xc8/v2.46/pic/sources/c99/common/doprnt.c: 1835:  return 0;
  1900   002332  0E00               	movlw	0
  1901   002334  6E21               	movwf	(?_vfprintf+1)^0,c
  1902   002336  0E00               	movlw	0
  1903   002338  6E20               	movwf	?_vfprintf^0,c
  1904   00233A  0012               	return		;funcret
  1905   00233C                     __end_of_vfprintf:
  1906                           	callstack 0
  1907                           
  1908 ;; *************** function _vfpfcnvrt *****************
  1909 ;; Defined at:
  1910 ;;		line 1177 in file "/opt/microchip/xc8/v2.46/pic/sources/c99/common/doprnt.c"
  1911 ;; Parameters:    Size  Location     Type
  1912 ;;  fp              1   20[COMRAM] PTR struct _IO_FILE
  1913 ;;		 -> sprintf@f(12), 
  1914 ;;  fmt             1   21[COMRAM] PTR PTR unsigned char 
  1915 ;;		 -> vfprintf@cfmt(1), 
  1916 ;;  ap              1   22[COMRAM] PTR PTR void 
  1917 ;;		 -> sprintf@ap(1), 
  1918 ;; Auto vars:     Size  Location     Type
  1919 ;;  convarg         4   24[COMRAM] struct .
  1920 ;;  c               1   30[COMRAM] unsigned char 
  1921 ;;  cp              1   29[COMRAM] PTR unsigned char 
  1922 ;;		 -> STR_9(20), 
  1923 ;;  x               1   28[COMRAM] unsigned char 
  1924 ;;  done            1    0        _Bool 
  1925 ;; Return value:  Size  Location     Type
  1926 ;;                  1    wreg      void 
  1927 ;; Registers used:
  1928 ;;		wreg, fsr1l, fsr1h, fsr2l, fsr2h, status,2, status,0, tblptrl, tblptrh, tblptru, cstack
  1929 ;; Tracked objects:
  1930 ;;		On entry : 0/0
  1931 ;;		On exit  : 0/0
  1932 ;;		Unchanged: 0/0
  1933 ;; Data sizes:     COMRAM   BANK0   BANK1   BANK2   BANK3   BANK4   BANK5
  1934 ;;      Params:         3       0       0       0       0       0       0
  1935 ;;      Locals:         7       0       0       0       0       0       0
  1936 ;;      Temps:          1       0       0       0       0       0       0
  1937 ;;      Totals:        11       0       0       0       0       0       0
  1938 ;;Total ram usage:       11 bytes
  1939 ;; Hardware stack levels used: 1
  1940 ;; Hardware stack levels required when called: 5
  1941 ;; This function calls:
  1942 ;;		_fputc
  1943 ;; This function is called by:
  1944 ;;		_vfprintf
  1945 ;; This function uses a non-reentrant model
  1946 ;;
  1947                           
  1948                           	psect	text3
  1949   001C82                     __ptext3:
  1950                           	callstack 0
  1951   001C82                     _vfpfcnvrt:
  1952                           	callstack 23
  1953   001C82                     
  1954                           ;/opt/microchip/xc8/v2.46/pic/sources/c99/common/doprnt.c: 1177: vfpfcnvrt(FILE *fp, cha
      +                          r *fmt[], va_list ap);/opt/microchip/xc8/v2.46/pic/sources/c99/common/doprnt.c: 1178: {;
      +                          /opt/microchip/xc8/v2.46/pic/sources/c99/common/doprnt.c: 1179:     char c, *cp;;/opt/mi
      +                          crochip/xc8/v2.46/pic/sources/c99/common/doprnt.c: 1180:     _Bool done;;/opt/microchip/
      +                          xc8/v2.46/pic/sources/c99/common/doprnt.c: 1188:  } convarg;;/opt/microchip/xc8/v2.46/pi
      +                          c/sources/c99/common/doprnt.c: 1194:  char x;;/opt/microchip/xc8/v2.46/pic/sources/c99/c
      +                          ommon/doprnt.c: 1201:     if ((*fmt)[0] == '%') {
  1955   001C82  5016               	movf	vfpfcnvrt@fmt^0,w,c
  1956   001C84  6ED9               	movwf	fsr2l,c
  1957   001C86  6ADA               	clrf	fsr2h,c
  1958   001C88  CFDF FFF6          	movff	indf2,tblptrl
  1959   001C8C                     	if	1	;There is more than 1 active tblptr byte
  1960   001C8C  0E06               	movlw	high __smallconst
  1961   001C8E  6EF7               	movwf	tblptrh,c
  1962   001C90                     	endif
  1963   001C90                     	if	0	;tblptru may be non-zero
  1964   001C90                     	endif
  1965   001C90                     	if	0	;tblptru may be non-zero
  1966   001C90                     	endif
  1967   001C90  0008               	tblrd		*
  1968   001C92  50F5               	movf	tablat,w,c
  1969   001C94  0A25               	xorlw	37
  1970   001C96  A4D8               	btfss	status,2,c
  1971   001C98  EF50  F00E         	goto	u3421
  1972   001C9C  EF52  F00E         	goto	u3420
  1973   001CA0                     u3421:
  1974   001CA0  EFE6  F00E         	goto	l3748
  1975   001CA4                     u3420:
  1976   001CA4                     
  1977                           ;/opt/microchip/xc8/v2.46/pic/sources/c99/common/doprnt.c: 1202:         ++*fmt;
  1978   001CA4  5016               	movf	vfpfcnvrt@fmt^0,w,c
  1979   001CA6  6ED9               	movwf	fsr2l,c
  1980   001CA8  6ADA               	clrf	fsr2h,c
  1981   001CAA  2ADF               	incf	indf2,f,c
  1982   001CAC                     
  1983                           ;/opt/microchip/xc8/v2.46/pic/sources/c99/common/doprnt.c: 1204:         flags = width =
      +                           0;
  1984   001CAC  0E00               	movlw	0
  1985   001CAE  0100               	movlb	0	; () banked
  1986   001CB0  6FB6               	movwf	(_width+1)& (0+255),b
  1987   001CB2  0E00               	movlw	0
  1988   001CB4  6FB5               	movwf	_width& (0+255),b
  1989   001CB6  C0B5  F04E         	movff	_width,_flags
  1990   001CBA                     
  1991                           ; BSR set to: 0
  1992                           ;/opt/microchip/xc8/v2.46/pic/sources/c99/common/doprnt.c: 1205:         prec = -1;
  1993   001CBA  6848               	setf	_prec^0,c
  1994   001CBC  6849               	setf	(_prec+1)^0,c
  1995   001CBE                     
  1996                           ; BSR set to: 0
  1997                           ;/opt/microchip/xc8/v2.46/pic/sources/c99/common/doprnt.c: 1439:   if (0
  1998   001CBE  5016               	movf	vfpfcnvrt@fmt^0,w,c
  1999   001CC0  6ED9               	movwf	fsr2l,c
  2000   001CC2  6ADA               	clrf	fsr2h,c
  2001   001CC4  50DF               	movf	indf2,w,c
  2002   001CC6  6E1E               	movwf	vfpfcnvrt@cp^0,c
  2003   001CC8                     
  2004                           ; BSR set to: 0
  2005   001CC8  C01E  FFF6         	movff	vfpfcnvrt@cp,tblptrl
  2006   001CCC                     	if	1	;There is more than 1 active tblptr byte
  2007   001CCC  0E06               	movlw	high __smallconst
  2008   001CCE  6EF7               	movwf	tblptrh,c
  2009   001CD0                     	endif
  2010   001CD0                     	if	0	;tblptru may be non-zero
  2011   001CD0                     	endif
  2012   001CD0                     	if	0	;tblptru may be non-zero
  2013   001CD0                     	endif
  2014   001CD0  0008               	tblrd		*
  2015   001CD2  50F5               	movf	tablat,w,c
  2016   001CD4  0A78               	xorlw	120
  2017   001CD6  A4D8               	btfss	status,2,c
  2018   001CD8  EF70  F00E         	goto	u3431
  2019   001CDC  EF72  F00E         	goto	u3430
  2020   001CE0                     u3431:
  2021   001CE0  EFE0  F00E         	goto	l3744
  2022   001CE4                     u3430:
  2023   001CE4                     
  2024                           ; BSR set to: 0
  2025                           ;/opt/microchip/xc8/v2.46/pic/sources/c99/common/doprnt.c: 1452:     ) {;/opt/microchip/
      +                          xc8/v2.46/pic/sources/c99/common/doprnt.c: 1495:    convarg.uint = (vfpf_uint_t)(unsigne
      +                          d int)(*(unsigned int *)__va_arg(*(unsigned int **)ap, (unsigned int)0));
  2026   001CE4  5017               	movf	vfpfcnvrt@ap^0,w,c
  2027   001CE6  6ED9               	movwf	fsr2l,c
  2028   001CE8  6ADA               	clrf	fsr2h,c
  2029   001CEA  0E02               	movlw	2
  2030   001CEC  26DF               	addwf	indf2,f,c
  2031   001CEE  5CDF               	subwf	indf2,w,c
  2032   001CF0  6ED9               	movwf	fsr2l,c
  2033   001CF2  6ADA               	clrf	fsr2h,c
  2034   001CF4  CFDE F019          	movff	postinc2,vfpfcnvrt@convarg
  2035   001CF8  CFDE F01A          	movff	postinc2,vfpfcnvrt@convarg+1
  2036   001CFC                     
  2037                           ; BSR set to: 0
  2038                           ;/opt/microchip/xc8/v2.46/pic/sources/c99/common/doprnt.c: 1497:    *fmt = cp+1;
  2039   001CFC  5016               	movf	vfpfcnvrt@fmt^0,w,c
  2040   001CFE  6ED9               	movwf	fsr2l,c
  2041   001D00  6ADA               	clrf	fsr2h,c
  2042   001D02  281E               	incf	vfpfcnvrt@cp^0,w,c
  2043   001D04  6EDF               	movwf	indf2,c
  2044                           
  2045                           ;/opt/microchip/xc8/v2.46/pic/sources/c99/common/doprnt.c: 1498:    switch (*cp) {
  2046   001D06  EFD4  F00E         	goto	l3742
  2047   001D0A                     l3716:
  2048                           
  2049                           ; BSR set to: 0
  2050                           ;/opt/microchip/xc8/v2.46/pic/sources/c99/common/doprnt.c: 1553:      c = sizeof(dbuf);
  2051   001D0A  0E20               	movlw	32
  2052   001D0C  6E1F               	movwf	vfpfcnvrt@c^0,c
  2053   001D0E                     l3718:
  2054                           
  2055                           ;/opt/microchip/xc8/v2.46/pic/sources/c99/common/doprnt.c: 1558:       x = (convarg.uint
      +                           & 0xf);
  2056   001D0E  5019               	movf	vfpfcnvrt@convarg^0,w,c
  2057   001D10  0B0F               	andlw	15
  2058   001D12  6E1D               	movwf	vfpfcnvrt@x^0,c
  2059   001D14                     
  2060                           ;/opt/microchip/xc8/v2.46/pic/sources/c99/common/doprnt.c: 1559:       if (x < 10) {
  2061   001D14  0E0A               	movlw	10
  2062   001D16  601D               	cpfslt	vfpfcnvrt@x^0,c
  2063   001D18  EF90  F00E         	goto	u3441
  2064   001D1C  EF92  F00E         	goto	u3440
  2065   001D20                     u3441:
  2066   001D20  EF96  F00E         	goto	l3724
  2067   001D24                     u3440:
  2068   001D24                     
  2069                           ;/opt/microchip/xc8/v2.46/pic/sources/c99/common/doprnt.c: 1560:        x += '0';
  2070   001D24  0E30               	movlw	48
  2071   001D26  261D               	addwf	vfpfcnvrt@x^0,f,c
  2072                           
  2073                           ;/opt/microchip/xc8/v2.46/pic/sources/c99/common/doprnt.c: 1561:       }
  2074   001D28  EF98  F00E         	goto	l3726
  2075   001D2C                     l3724:
  2076                           
  2077                           ;/opt/microchip/xc8/v2.46/pic/sources/c99/common/doprnt.c: 1566:        x += 'a' - 10;
  2078   001D2C  0E57               	movlw	87
  2079   001D2E  261D               	addwf	vfpfcnvrt@x^0,f,c
  2080   001D30                     l3726:
  2081                           
  2082                           ;/opt/microchip/xc8/v2.46/pic/sources/c99/common/doprnt.c: 1571:       dbuf[--c] = x;
  2083   001D30  061F               	decf	vfpfcnvrt@c^0,f,c
  2084   001D32  501F               	movf	vfpfcnvrt@c^0,w,c
  2085   001D34  0F81               	addlw	low _dbuf
  2086   001D36  6ED9               	movwf	fsr2l,c
  2087   001D38  6ADA               	clrf	fsr2h,c
  2088   001D3A  C01D  FFDF         	movff	vfpfcnvrt@x,indf2
  2089   001D3E                     
  2090                           ;/opt/microchip/xc8/v2.46/pic/sources/c99/common/doprnt.c: 1572:       convarg.uint >>= 
      +                          4;
  2091   001D3E  3A19               	swapf	vfpfcnvrt@convarg^0,f,c
  2092   001D40  3A1A               	swapf	(vfpfcnvrt@convarg+1)^0,f,c
  2093   001D42  0E0F               	movlw	15
  2094   001D44  1619               	andwf	vfpfcnvrt@convarg^0,f,c
  2095   001D46  501A               	movf	(vfpfcnvrt@convarg+1)^0,w,c
  2096   001D48  0BF0               	andlw	240
  2097   001D4A  1219               	iorwf	vfpfcnvrt@convarg^0,f,c
  2098   001D4C  0E0F               	movlw	15
  2099   001D4E  161A               	andwf	(vfpfcnvrt@convarg+1)^0,f,c
  2100   001D50                     
  2101                           ;/opt/microchip/xc8/v2.46/pic/sources/c99/common/doprnt.c: 1576:      } while (convarg.u
      +                          int != 0 && c != 0);
  2102   001D50  5019               	movf	vfpfcnvrt@convarg^0,w,c
  2103   001D52  101A               	iorwf	(vfpfcnvrt@convarg+1)^0,w,c
  2104   001D54  B4D8               	btfsc	status,2,c
  2105   001D56  EFAF  F00E         	goto	u3451
  2106   001D5A  EFB1  F00E         	goto	u3450
  2107   001D5E                     u3451:
  2108   001D5E  EFC9  F00E         	goto	l3738
  2109   001D62                     u3450:
  2110   001D62  501F               	movf	vfpfcnvrt@c^0,w,c
  2111   001D64  A4D8               	btfss	status,2,c
  2112   001D66  EFB7  F00E         	goto	u3461
  2113   001D6A  EFB9  F00E         	goto	u3460
  2114   001D6E                     u3461:
  2115   001D6E  EF87  F00E         	goto	l3718
  2116   001D72                     u3460:
  2117   001D72  EFC9  F00E         	goto	l3738
  2118   001D76                     l3734:
  2119                           
  2120                           ;/opt/microchip/xc8/v2.46/pic/sources/c99/common/doprnt.c: 1578:       fputc(dbuf[c++], 
      +                          fp);
  2121   001D76  501F               	movf	vfpfcnvrt@c^0,w,c
  2122   001D78  0F81               	addlw	low _dbuf
  2123   001D7A  6ED9               	movwf	fsr2l,c
  2124   001D7C  6ADA               	clrf	fsr2h,c
  2125   001D7E  50DF               	movf	indf2,w,c
  2126   001D80  6E18               	movwf	??_vfpfcnvrt^0,c
  2127   001D82  5018               	movf	??_vfpfcnvrt^0,w,c
  2128   001D84  6E0D               	movwf	fputc@c^0,c
  2129   001D86  6A0E               	clrf	(fputc@c+1)^0,c
  2130   001D88  C015  F00F         	movff	vfpfcnvrt@fp,fputc@fp
  2131   001D8C  EC7C  F00F         	call	_fputc	;wreg free
  2132   001D90  2A1F               	incf	vfpfcnvrt@c^0,f,c
  2133   001D92                     l3738:
  2134                           
  2135                           ;/opt/microchip/xc8/v2.46/pic/sources/c99/common/doprnt.c: 1577:      while (c != sizeof
      +                          (dbuf)) {
  2136   001D92  0E20               	movlw	32
  2137   001D94  181F               	xorwf	vfpfcnvrt@c^0,w,c
  2138   001D96  A4D8               	btfss	status,2,c
  2139   001D98  EFD0  F00E         	goto	u3471
  2140   001D9C  EFD2  F00E         	goto	u3470
  2141   001DA0                     u3471:
  2142   001DA0  EFBB  F00E         	goto	l3734
  2143   001DA4                     u3470:
  2144   001DA4  EFF7  F00E         	goto	l1014
  2145   001DA8                     l3742:
  2146                           
  2147                           ; BSR set to: 0
  2148   001DA8  C01E  FFF6         	movff	vfpfcnvrt@cp,tblptrl
  2149   001DAC                     	if	1	;There is more than 1 active tblptr byte
  2150   001DAC  0E06               	movlw	high __smallconst
  2151   001DAE  6EF7               	movwf	tblptrh,c
  2152   001DB0                     	endif
  2153   001DB0                     	if	0	;tblptru may be non-zero
  2154   001DB0                     	endif
  2155   001DB0                     	if	0	;tblptru may be non-zero
  2156   001DB0                     	endif
  2157   001DB0  0008               	tblrd		*
  2158   001DB2  50F5               	movf	tablat,w,c
  2159                           
  2160                           ; Switch size 1, requested type "simple"
  2161                           ; Number of cases is 1, Range of values is 120 to 120
  2162                           ; switch strategies available:
  2163                           ; Name         Instructions Cycles
  2164                           ; simple_byte            4     3 (average)
  2165                           ;	Chosen strategy is simple_byte
  2166   001DB4  0A78               	xorlw	120	; case 120
  2167   001DB6  B4D8               	btfsc	status,2,c
  2168   001DB8  EF85  F00E         	goto	l3716
  2169   001DBC  EFE0  F00E         	goto	l3744
  2170   001DC0                     l3744:
  2171                           
  2172                           ;/opt/microchip/xc8/v2.46/pic/sources/c99/common/doprnt.c: 1806:         ++*fmt;
  2173   001DC0  5016               	movf	vfpfcnvrt@fmt^0,w,c
  2174   001DC2  6ED9               	movwf	fsr2l,c
  2175   001DC4  6ADA               	clrf	fsr2h,c
  2176   001DC6  2ADF               	incf	indf2,f,c
  2177   001DC8  EFF7  F00E         	goto	l1014
  2178   001DCC                     l3748:
  2179                           
  2180                           ;/opt/microchip/xc8/v2.46/pic/sources/c99/common/doprnt.c: 1811:     fputc((int)(*fmt)[0
      +                          ], fp);
  2181   001DCC  5016               	movf	vfpfcnvrt@fmt^0,w,c
  2182   001DCE  6ED9               	movwf	fsr2l,c
  2183   001DD0  6ADA               	clrf	fsr2h,c
  2184   001DD2  CFDF FFF6          	movff	indf2,tblptrl
  2185   001DD6                     	if	1	;There is more than 1 active tblptr byte
  2186   001DD6  0E06               	movlw	high __smallconst
  2187   001DD8  6EF7               	movwf	tblptrh,c
  2188   001DDA                     	endif
  2189   001DDA                     	if	0	;tblptru may be non-zero
  2190   001DDA                     	endif
  2191   001DDA                     	if	0	;tblptru may be non-zero
  2192   001DDA                     	endif
  2193   001DDA  0008               	tblrd		*
  2194   001DDC  50F5               	movf	tablat,w,c
  2195   001DDE  6E0D               	movwf	fputc@c^0,c
  2196   001DE0  6A0E               	clrf	(fputc@c+1)^0,c
  2197   001DE2  C015  F00F         	movff	vfpfcnvrt@fp,fputc@fp
  2198   001DE6  EC7C  F00F         	call	_fputc	;wreg free
  2199   001DEA  EFE0  F00E         	goto	l3744
  2200   001DEE                     l1014:
  2201   001DEE  0012               	return		;funcret
  2202   001DF0                     __end_of_vfpfcnvrt:
  2203                           	callstack 0
  2204                           
  2205 ;; *************** function _fputc *****************
  2206 ;; Defined at:
  2207 ;;		line 8 in file "/opt/microchip/xc8/v2.46/pic/sources/c99/common/nf_fputc.c"
  2208 ;; Parameters:    Size  Location     Type
  2209 ;;  c               2   12[COMRAM] int 
  2210 ;;  fp              1   14[COMRAM] PTR struct _IO_FILE
  2211 ;;		 -> sprintf@f(12), 
  2212 ;; Auto vars:     Size  Location     Type
  2213 ;;		None
  2214 ;; Return value:  Size  Location     Type
  2215 ;;                  2   12[COMRAM] int 
  2216 ;; Registers used:
  2217 ;;		wreg, fsr1l, fsr1h, fsr2l, fsr2h, status,2, status,0, cstack
  2218 ;; Tracked objects:
  2219 ;;		On entry : 0/0
  2220 ;;		On exit  : 0/0
  2221 ;;		Unchanged: 0/0
  2222 ;; Data sizes:     COMRAM   BANK0   BANK1   BANK2   BANK3   BANK4   BANK5
  2223 ;;      Params:         3       0       0       0       0       0       0
  2224 ;;      Locals:         0       0       0       0       0       0       0
  2225 ;;      Temps:          5       0       0       0       0       0       0
  2226 ;;      Totals:         8       0       0       0       0       0       0
  2227 ;;Total ram usage:        8 bytes
  2228 ;; Hardware stack levels used: 1
  2229 ;; Hardware stack levels required when called: 4
  2230 ;; This function calls:
  2231 ;;		_putch
  2232 ;; This function is called by:
  2233 ;;		_vfpfcnvrt
  2234 ;; This function uses a non-reentrant model
  2235 ;;
  2236                           
  2237                           	psect	text4
  2238   001EF8                     __ptext4:
  2239                           	callstack 0
  2240   001EF8                     _fputc:
  2241                           	callstack 23
  2242   001EF8  500F               	movf	fputc@fp^0,w,c
  2243   001EFA  B4D8               	btfsc	status,2,c
  2244   001EFC  EF82  F00F         	goto	u2971
  2245   001F00  EF84  F00F         	goto	u2970
  2246   001F04                     u2971:
  2247   001F04  EF8C  F00F         	goto	l3484
  2248   001F08                     u2970:
  2249   001F08  500F               	movf	fputc@fp^0,w,c
  2250   001F0A  A4D8               	btfss	status,2,c
  2251   001F0C  EF8A  F00F         	goto	u2981
  2252   001F10  EF8C  F00F         	goto	u2980
  2253   001F14                     u2981:
  2254   001F14  EF91  F00F         	goto	l3486
  2255   001F18                     u2980:
  2256   001F18                     l3484:
  2257   001F18  500D               	movf	fputc@c^0,w,c
  2258   001F1A  EC87  F012         	call	_putch
  2259   001F1E  EFD8  F00F         	goto	l1033
  2260   001F22                     l3486:
  2261   001F22  500F               	movf	fputc@fp^0,w,c
  2262   001F24  6ED9               	movwf	fsr2l,c
  2263   001F26  6ADA               	clrf	fsr2h,c
  2264   001F28  0E0A               	movlw	10
  2265   001F2A  26D9               	addwf	fsr2l,f,c
  2266   001F2C  50DE               	movf	postinc2,w,c
  2267   001F2E  10DE               	iorwf	postinc2,w,c
  2268   001F30  B4D8               	btfsc	status,2,c
  2269   001F32  EF9D  F00F         	goto	u2991
  2270   001F36  EF9F  F00F         	goto	u2990
  2271   001F3A                     u2991:
  2272   001F3A  EFB8  F00F         	goto	l3490
  2273   001F3E                     u2990:
  2274   001F3E  500F               	movf	fputc@fp^0,w,c
  2275   001F40  6ED9               	movwf	fsr2l,c
  2276   001F42  6ADA               	clrf	fsr2h,c
  2277   001F44  0E0A               	movlw	10
  2278   001F46  26D9               	addwf	fsr2l,f,c
  2279   001F48  500F               	movf	fputc@fp^0,w,c
  2280   001F4A  6EE1               	movwf	fsr1l,c
  2281   001F4C  6AE2               	clrf	fsr1h,c
  2282   001F4E  0E03               	movlw	3
  2283   001F50  26E1               	addwf	fsr1l,f,c
  2284   001F52  50DE               	movf	postinc2,w,c
  2285   001F54  5CE6               	subwf	postinc1,w,c
  2286   001F56  50E6               	movf	postinc1,w,c
  2287   001F58  0A80               	xorlw	128
  2288   001F5A  6E14               	movwf	(??_fputc+4)^0,c
  2289   001F5C  50DE               	movf	postinc2,w,c
  2290   001F5E  0A80               	xorlw	128
  2291   001F60  5814               	subwfb	(??_fputc+4)^0,w,c
  2292   001F62  B0D8               	btfsc	status,0,c
  2293   001F64  EFB6  F00F         	goto	u3001
  2294   001F68  EFB8  F00F         	goto	u3000
  2295   001F6C                     u3001:
  2296   001F6C  EFD8  F00F         	goto	l1033
  2297   001F70                     u3000:
  2298   001F70                     l3490:
  2299   001F70  500F               	movf	fputc@fp^0,w,c
  2300   001F72  6ED9               	movwf	fsr2l,c
  2301   001F74  6ADA               	clrf	fsr2h,c
  2302   001F76  0E03               	movlw	3
  2303   001F78  26D9               	addwf	fsr2l,f,c
  2304   001F7A  CFDE F010          	movff	postinc2,??_fputc
  2305   001F7E  CFDD F011          	movff	postdec2,??_fputc+1
  2306   001F82  500F               	movf	fputc@fp^0,w,c
  2307   001F84  6ED9               	movwf	fsr2l,c
  2308   001F86  6ADA               	clrf	fsr2h,c
  2309   001F88  CFDE F012          	movff	postinc2,??_fputc+2
  2310   001F8C  CFDD F013          	movff	postdec2,??_fputc+3
  2311   001F90  5010               	movf	??_fputc^0,w,c
  2312   001F92  2412               	addwf	(??_fputc+2)^0,w,c
  2313   001F94  6ED9               	movwf	fsr2l,c
  2314   001F96  5011               	movf	(??_fputc+1)^0,w,c
  2315   001F98  2013               	addwfc	(??_fputc+3)^0,w,c
  2316   001F9A  6EDA               	movwf	fsr2h,c
  2317   001F9C  C00D  FFDF         	movff	fputc@c,indf2
  2318   001FA0  500F               	movf	fputc@fp^0,w,c
  2319   001FA2  6ED9               	movwf	fsr2l,c
  2320   001FA4  6ADA               	clrf	fsr2h,c
  2321   001FA6  0E03               	movlw	3
  2322   001FA8  26D9               	addwf	fsr2l,f,c
  2323   001FAA  2ADE               	incf	postinc2,f,c
  2324   001FAC  0E00               	movlw	0
  2325   001FAE  22DD               	addwfc	postdec2,f,c
  2326   001FB0                     l1033:
  2327   001FB0  0012               	return		;funcret
  2328   001FB2                     __end_of_fputc:
  2329                           	callstack 0
  2330                           
  2331 ;; *************** function _putch *****************
  2332 ;; Defined at:
  2333 ;;		line 7 in file "/opt/microchip/xc8/v2.46/pic/sources/c99/common/putch.c"
  2334 ;; Parameters:    Size  Location     Type
  2335 ;;  c               1    wreg     unsigned char 
  2336 ;; Auto vars:     Size  Location     Type
  2337 ;;  c               1    0[COMRAM] unsigned char 
  2338 ;; Return value:  Size  Location     Type
  2339 ;;                  1    wreg      void 
  2340 ;; Registers used:
  2341 ;;		wreg
  2342 ;; Tracked objects:
  2343 ;;		On entry : 0/0
  2344 ;;		On exit  : 0/0
  2345 ;;		Unchanged: 0/0
  2346 ;; Data sizes:     COMRAM   BANK0   BANK1   BANK2   BANK3   BANK4   BANK5
  2347 ;;      Params:         0       0       0       0       0       0       0
  2348 ;;      Locals:         0       0       0       0       0       0       0
  2349 ;;      Temps:          0       0       0       0       0       0       0
  2350 ;;      Totals:         0       0       0       0       0       0       0
  2351 ;;Total ram usage:        0 bytes
  2352 ;; Hardware stack levels used: 1
  2353 ;; Hardware stack levels required when called: 3
  2354 ;; This function calls:
  2355 ;;		Nothing
  2356 ;; This function is called by:
  2357 ;;		_fputc
  2358 ;; This function uses a non-reentrant model
  2359 ;;
  2360                           
  2361                           	psect	text5
  2362   00250E                     __ptext5:
  2363                           	callstack 0
  2364   00250E                     _putch:
  2365                           	callstack 23
  2366   00250E  0012               	return		;funcret
  2367   002510                     __end_of_putch:
  2368                           	callstack 0
  2369                           
  2370 ;; *************** function _i2c_repStart *****************
  2371 ;; Defined at:
  2372 ;;		line 54 in file "i2c.c"
  2373 ;; Parameters:    Size  Location     Type
  2374 ;;		None
  2375 ;; Auto vars:     Size  Location     Type
  2376 ;;		None
  2377 ;; Return value:  Size  Location     Type
  2378 ;;                  1    wreg      void 
  2379 ;; Registers used:
  2380 ;;		wreg, status,2, status,0, cstack
  2381 ;; Tracked objects:
  2382 ;;		On entry : 0/0
  2383 ;;		On exit  : 0/0
  2384 ;;		Unchanged: 0/0
  2385 ;; Data sizes:     COMRAM   BANK0   BANK1   BANK2   BANK3   BANK4   BANK5
  2386 ;;      Params:         0       0       0       0       0       0       0
  2387 ;;      Locals:         0       0       0       0       0       0       0
  2388 ;;      Temps:          0       0       0       0       0       0       0
  2389 ;;      Totals:         0       0       0       0       0       0       0
  2390 ;;Total ram usage:        0 bytes
  2391 ;; Hardware stack levels used: 1
  2392 ;; Hardware stack levels required when called: 4
  2393 ;; This function calls:
  2394 ;;		_i2c_waitForIdle
  2395 ;; This function is called by:
  2396 ;;		_main
  2397 ;; This function uses a non-reentrant model
  2398 ;;
  2399                           
  2400                           	psect	text6
  2401   002468                     __ptext6:
  2402                           	callstack 0
  2403   002468                     _i2c_repStart:
  2404                           	callstack 26
  2405   002468                     
  2406                           ;i2c.c: 56:     i2c_waitForIdle();
  2407   002468  ECED  F011         	call	_i2c_waitForIdle	;wreg free
  2408   00246C                     
  2409                           ;i2c.c: 58:     PIR1bits.SSP1IF = 0;
  2410   00246C  969E               	bcf	158,3,c	;volatile
  2411   00246E                     
  2412                           ;i2c.c: 59:     SSP1CON2bits.RSEN = 1;
  2413   00246E  82C5               	bsf	197,1,c	;volatile
  2414   002470                     l261:
  2415   002470  A69E               	btfss	158,3,c	;volatile
  2416   002472  EF3D  F012         	goto	u4201
  2417   002476  EF3F  F012         	goto	u4200
  2418   00247A                     u4201:
  2419   00247A  EF38  F012         	goto	l261
  2420   00247E                     u4200:
  2421   00247E  0012               	return		;funcret
  2422   002480                     __end_of_i2c_repStart:
  2423                           	callstack 0
  2424                           
  2425 ;; *************** function _i2c_init *****************
  2426 ;; Defined at:
  2427 ;;		line 15 in file "i2c.c"
  2428 ;; Parameters:    Size  Location     Type
  2429 ;;		None
  2430 ;; Auto vars:     Size  Location     Type
  2431 ;;		None
  2432 ;; Return value:  Size  Location     Type
  2433 ;;                  1    wreg      void 
  2434 ;; Registers used:
  2435 ;;		wreg, status,2
  2436 ;; Tracked objects:
  2437 ;;		On entry : 0/0
  2438 ;;		On exit  : 0/0
  2439 ;;		Unchanged: 0/0
  2440 ;; Data sizes:     COMRAM   BANK0   BANK1   BANK2   BANK3   BANK4   BANK5
  2441 ;;      Params:         0       0       0       0       0       0       0
  2442 ;;      Locals:         0       0       0       0       0       0       0
  2443 ;;      Temps:          0       0       0       0       0       0       0
  2444 ;;      Totals:         0       0       0       0       0       0       0
  2445 ;;Total ram usage:        0 bytes
  2446 ;; Hardware stack levels used: 1
  2447 ;; Hardware stack levels required when called: 3
  2448 ;; This function calls:
  2449 ;;		Nothing
  2450 ;; This function is called by:
  2451 ;;		_main
  2452 ;; This function uses a non-reentrant model
  2453 ;;
  2454                           
  2455                           	psect	text7
  2456   0023AE                     __ptext7:
  2457                           	callstack 0
  2458   0023AE                     _i2c_init:
  2459                           	callstack 27
  2460   0023AE                     
  2461                           ;i2c.c: 17:     TRISCbits.TRISC3 = 1;
  2462   0023AE  8694               	bsf	148,3,c	;volatile
  2463                           
  2464                           ;i2c.c: 18:     TRISCbits.TRISC4 = 1;
  2465   0023B0  8894               	bsf	148,4,c	;volatile
  2466                           
  2467                           ;i2c.c: 19:     ANSELCbits.ANSC3 = 0;
  2468   0023B2  010F               	movlb	15	; () banked
  2469   0023B4  973A               	bcf	58,3,b	;volatile
  2470                           
  2471                           ;i2c.c: 20:     ANSELCbits.ANSC4 = 0;
  2472   0023B6  993A               	bcf	58,4,b	;volatile
  2473   0023B8                     
  2474                           ; BSR set to: 15
  2475                           ;i2c.c: 22:     SSP1CON1 = 0b00101000;
  2476   0023B8  0E28               	movlw	40
  2477   0023BA  6EC6               	movwf	198,c	;volatile
  2478   0023BC                     
  2479                           ; BSR set to: 15
  2480                           ;i2c.c: 23:     __nop();
  2481   0023BC  0000               	nop	
  2482   0023BE                     
  2483                           ;i2c.c: 24:     __nop();
  2484   0023BE  0000               	nop	
  2485   0023C0                     
  2486                           ;i2c.c: 25:     __nop();
  2487   0023C0  0000               	nop	
  2488                           
  2489                           ;i2c.c: 27:     SSP1ADD = 4;
  2490   0023C2  0E04               	movlw	4
  2491   0023C4  6EC8               	movwf	200,c	;volatile
  2492   0023C6                     
  2493                           ;i2c.c: 28:     __nop();
  2494   0023C6  0000               	nop	
  2495   0023C8                     
  2496                           ;i2c.c: 29:     __nop();
  2497   0023C8  0000               	nop	
  2498   0023CA                     
  2499                           ;i2c.c: 30:     __nop();
  2500   0023CA  0000               	nop	
  2501   0023CC                     
  2502                           ;i2c.c: 31:     SSP1STATbits.SMP = 1;
  2503   0023CC  8EC7               	bsf	199,7,c	;volatile
  2504   0023CE                     
  2505                           ;i2c.c: 32:     SSP1STATbits.CKE = 1;
  2506   0023CE  8CC7               	bsf	199,6,c	;volatile
  2507   0023D0                     
  2508                           ;i2c.c: 33:     SSP1CON3bits.SCIE = 0;
  2509   0023D0  9ACB               	bcf	203,5,c	;volatile
  2510   0023D2                     
  2511                           ;i2c.c: 34:     SSP1CON3bits.PCIE = 0;
  2512   0023D2  9CCB               	bcf	203,6,c	;volatile
  2513   0023D4                     
  2514                           ;i2c.c: 37:     PIR1bits.SSP1IF = 0;
  2515   0023D4  969E               	bcf	158,3,c	;volatile
  2516   0023D6                     
  2517                           ;i2c.c: 38:     PIR2bits.BCL1IF = 0;
  2518   0023D6  96A1               	bcf	161,3,c	;volatile
  2519   0023D8  0012               	return		;funcret
  2520   0023DA                     __end_of_i2c_init:
  2521                           	callstack 0
  2522                           
  2523 ;; *************** function _UARTWriteStrLn *****************
  2524 ;; Defined at:
  2525 ;;		line 72 in file "uart.c"
  2526 ;; Parameters:    Size  Location     Type
  2527 ;;  string          2   13[COMRAM] PTR unsigned char 
  2528 ;;		 -> buffer(50), STR_8(14), STR_7(9), STR_6(32), 
  2529 ;;		 -> STR_5(32), STR_4(48), STR_3(14), STR_2(14), 
  2530 ;;		 -> STR_1(14), 
  2531 ;; Auto vars:     Size  Location     Type
  2532 ;;  i               1   17[COMRAM] unsigned char 
  2533 ;; Return value:  Size  Location     Type
  2534 ;;                  1    wreg      void 
  2535 ;; Registers used:
  2536 ;;		wreg, fsr0l, fsr0h, status,2, status,0, tblptrl, tblptrh, tblptru, cstack
  2537 ;; Tracked objects:
  2538 ;;		On entry : 0/0
  2539 ;;		On exit  : 0/0
  2540 ;;		Unchanged: 0/0
  2541 ;; Data sizes:     COMRAM   BANK0   BANK1   BANK2   BANK3   BANK4   BANK5
  2542 ;;      Params:         2       0       0       0       0       0       0
  2543 ;;      Locals:         1       0       0       0       0       0       0
  2544 ;;      Temps:          2       0       0       0       0       0       0
  2545 ;;      Totals:         5       0       0       0       0       0       0
  2546 ;;Total ram usage:        5 bytes
  2547 ;; Hardware stack levels used: 1
  2548 ;; Hardware stack levels required when called: 4
  2549 ;; This function calls:
  2550 ;;		_UARTWriteByte
  2551 ;; This function is called by:
  2552 ;;		_main
  2553 ;; This function uses a non-reentrant model
  2554 ;;
  2555                           
  2556                           	psect	text8
  2557   002114                     __ptext8:
  2558                           	callstack 0
  2559   002114                     _UARTWriteStrLn:
  2560                           	callstack 26
  2561   002114                     
  2562                           ;uart.c: 72: void UARTWriteStrLn(char *string);uart.c: 73: {;uart.c: 74:   UINT8_T i = 0
      +                          ;
  2563   002114  0E00               	movlw	0
  2564   002116  6E12               	movwf	UARTWriteStrLn@i^0,c
  2565                           
  2566                           ;uart.c: 76:   while (string[i]){
  2567   002118  EFA7  F010         	goto	l4286
  2568   00211C                     l4282:
  2569                           
  2570                           ;uart.c: 77:     UARTWriteByte(string[i++]);
  2571   00211C  5012               	movf	UARTWriteStrLn@i^0,w,c
  2572   00211E  240E               	addwf	UARTWriteStrLn@string^0,w,c
  2573   002120  6E10               	movwf	??_UARTWriteStrLn^0,c
  2574   002122  0E00               	movlw	0
  2575   002124  200F               	addwfc	(UARTWriteStrLn@string+1)^0,w,c
  2576   002126  6E11               	movwf	(??_UARTWriteStrLn+1)^0,c
  2577   002128  C010  FFF6         	movff	??_UARTWriteStrLn,tblptrl
  2578   00212C  C011  FFF7         	movff	??_UARTWriteStrLn+1,tblptrh
  2579   002130  6AF8               	clrf	tblptru,c
  2580   002132  0E05               	movlw	(high __ramtop+-1)
  2581   002134  64F7               	cpfsgt	tblptrh,c
  2582   002136  D003               	bra	u4177
  2583   002138  0008               	tblrd		*
  2584   00213A  50F5               	movf	tablat,w,c
  2585   00213C  D005               	bra	u4170
  2586   00213E                     u4177:
  2587   00213E  CFF6 FFE9          	movff	tblptrl,fsr0l
  2588   002142  CFF7 FFEA          	movff	tblptrh,fsr0h
  2589   002146  50EF               	movf	indf0,w,c
  2590   002148                     u4170:
  2591   002148  EC4C  F012         	call	_UARTWriteByte
  2592   00214C  2A12               	incf	UARTWriteStrLn@i^0,f,c
  2593   00214E                     l4286:
  2594                           
  2595                           ;uart.c: 76:   while (string[i]){
  2596   00214E  5012               	movf	UARTWriteStrLn@i^0,w,c
  2597   002150  240E               	addwf	UARTWriteStrLn@string^0,w,c
  2598   002152  6E10               	movwf	??_UARTWriteStrLn^0,c
  2599   002154  0E00               	movlw	0
  2600   002156  200F               	addwfc	(UARTWriteStrLn@string+1)^0,w,c
  2601   002158  6E11               	movwf	(??_UARTWriteStrLn+1)^0,c
  2602   00215A  C010  FFF6         	movff	??_UARTWriteStrLn,tblptrl
  2603   00215E  C011  FFF7         	movff	??_UARTWriteStrLn+1,tblptrh
  2604   002162  6AF8               	clrf	tblptru,c
  2605   002164  0E05               	movlw	(high __ramtop+-1)
  2606   002166  64F7               	cpfsgt	tblptrh,c
  2607   002168  D003               	bra	u4187
  2608   00216A  0008               	tblrd		*
  2609   00216C  50F5               	movf	tablat,w,c
  2610   00216E  D005               	bra	u4180
  2611   002170                     u4187:
  2612   002170  CFF6 FFE9          	movff	tblptrl,fsr0l
  2613   002174  CFF7 FFEA          	movff	tblptrh,fsr0h
  2614   002178  50EF               	movf	indf0,w,c
  2615   00217A                     u4180:
  2616   00217A  0900               	iorlw	0
  2617   00217C  A4D8               	btfss	status,2,c
  2618   00217E  EFC3  F010         	goto	u4191
  2619   002182  EFC5  F010         	goto	u4190
  2620   002186                     u4191:
  2621   002186  EF8E  F010         	goto	l4282
  2622   00218A                     u4190:
  2623   00218A                     
  2624                           ;uart.c: 79:   UARTWriteByte(0x0D);
  2625   00218A  0E0D               	movlw	13
  2626   00218C  EC4C  F012         	call	_UARTWriteByte
  2627                           
  2628                           ;uart.c: 80:   UARTWriteByte(0x0A);
  2629   002190  0E0A               	movlw	10
  2630   002192  EC4C  F012         	call	_UARTWriteByte
  2631   002196  0012               	return		;funcret
  2632   002198                     __end_of_UARTWriteStrLn:
  2633                           	callstack 0
  2634                           
  2635 ;; *************** function _UARTWriteByte *****************
  2636 ;; Defined at:
  2637 ;;		line 52 in file "uart.c"
  2638 ;; Parameters:    Size  Location     Type
  2639 ;;  data            1    wreg     unsigned char 
  2640 ;; Auto vars:     Size  Location     Type
  2641 ;;  data            1   12[COMRAM] unsigned char 
  2642 ;; Return value:  Size  Location     Type
  2643 ;;                  1    wreg      void 
  2644 ;; Registers used:
  2645 ;;		wreg
  2646 ;; Tracked objects:
  2647 ;;		On entry : 0/0
  2648 ;;		On exit  : 0/0
  2649 ;;		Unchanged: 0/0
  2650 ;; Data sizes:     COMRAM   BANK0   BANK1   BANK2   BANK3   BANK4   BANK5
  2651 ;;      Params:         0       0       0       0       0       0       0
  2652 ;;      Locals:         1       0       0       0       0       0       0
  2653 ;;      Temps:          0       0       0       0       0       0       0
  2654 ;;      Totals:         1       0       0       0       0       0       0
  2655 ;;Total ram usage:        1 bytes
  2656 ;; Hardware stack levels used: 1
  2657 ;; Hardware stack levels required when called: 3
  2658 ;; This function calls:
  2659 ;;		Nothing
  2660 ;; This function is called by:
  2661 ;;		_UARTWriteStrLn
  2662 ;;		_UARTWriteStr
  2663 ;;		_UARTWriteByteHex
  2664 ;;		_UARTWriteStrHex
  2665 ;;		_UARTWriteByteDec
  2666 ;; This function uses a non-reentrant model
  2667 ;;
  2668                           
  2669                           	psect	text9
  2670   002498                     __ptext9:
  2671                           	callstack 0
  2672   002498                     _UARTWriteByte:
  2673                           	callstack 26
  2674                           
  2675                           ;incstack = 0
  2676                           ;UARTWriteByte@data stored from wreg
  2677   002498  6E0D               	movwf	UARTWriteByte@data^0,c
  2678   00249A                     l189:
  2679   00249A  A2AC               	btfss	172,1,c	;volatile
  2680   00249C  EF52  F012         	goto	u3541
  2681   0024A0  EF54  F012         	goto	u3540
  2682   0024A4                     u3541:
  2683   0024A4  EF4D  F012         	goto	l189
  2684   0024A8                     u3540:
  2685   0024A8                     
  2686                           ;uart.c: 56:     TXREG1 = data;
  2687   0024A8  C00D  FFAD         	movff	UARTWriteByte@data,4013	;volatile
  2688   0024AC  0012               	return		;funcret
  2689   0024AE                     __end_of_UARTWriteByte:
  2690                           	callstack 0
  2691                           
  2692 ;; *************** function _UARTReadByte *****************
  2693 ;; Defined at:
  2694 ;;		line 59 in file "uart.c"
  2695 ;; Parameters:    Size  Location     Type
  2696 ;;		None
  2697 ;; Auto vars:     Size  Location     Type
  2698 ;;		None
  2699 ;; Return value:  Size  Location     Type
  2700 ;;                  1    wreg      unsigned char 
  2701 ;; Registers used:
  2702 ;;		wreg, status,2
  2703 ;; Tracked objects:
  2704 ;;		On entry : 0/0
  2705 ;;		On exit  : 0/0
  2706 ;;		Unchanged: 0/0
  2707 ;; Data sizes:     COMRAM   BANK0   BANK1   BANK2   BANK3   BANK4   BANK5
  2708 ;;      Params:         0       0       0       0       0       0       0
  2709 ;;      Locals:         0       0       0       0       0       0       0
  2710 ;;      Temps:          0       0       0       0       0       0       0
  2711 ;;      Totals:         0       0       0       0       0       0       0
  2712 ;;Total ram usage:        0 bytes
  2713 ;; Hardware stack levels used: 1
  2714 ;; Hardware stack levels required when called: 3
  2715 ;; This function calls:
  2716 ;;		Nothing
  2717 ;; This function is called by:
  2718 ;;		_main
  2719 ;; This function uses a non-reentrant model
  2720 ;;
  2721                           
  2722                           	psect	text10
  2723   002504                     __ptext10:
  2724                           	callstack 0
  2725   002504                     _UARTReadByte:
  2726                           	callstack 27
  2727   002504                     
  2728                           ;uart.c: 61:     return RCREG1;
  2729   002504  50AE               	movf	174,w,c	;volatile
  2730   002506  0012               	return		;funcret
  2731   002508                     __end_of_UARTReadByte:
  2732                           	callstack 0
  2733                           
  2734 ;; *************** function _UARTInit *****************
  2735 ;; Defined at:
  2736 ;;		line 15 in file "uart.c"
  2737 ;; Parameters:    Size  Location     Type
  2738 ;;		None
  2739 ;; Auto vars:     Size  Location     Type
  2740 ;;		None
  2741 ;; Return value:  Size  Location     Type
  2742 ;;                  1    wreg      void 
  2743 ;; Registers used:
  2744 ;;		wreg, status,2
  2745 ;; Tracked objects:
  2746 ;;		On entry : 0/0
  2747 ;;		On exit  : 0/0
  2748 ;;		Unchanged: 0/0
  2749 ;; Data sizes:     COMRAM   BANK0   BANK1   BANK2   BANK3   BANK4   BANK5
  2750 ;;      Params:         0       0       0       0       0       0       0
  2751 ;;      Locals:         0       0       0       0       0       0       0
  2752 ;;      Temps:          0       0       0       0       0       0       0
  2753 ;;      Totals:         0       0       0       0       0       0       0
  2754 ;;Total ram usage:        0 bytes
  2755 ;; Hardware stack levels used: 1
  2756 ;; Hardware stack levels required when called: 3
  2757 ;; This function calls:
  2758 ;;		Nothing
  2759 ;; This function is called by:
  2760 ;;		_main
  2761 ;; This function uses a non-reentrant model
  2762 ;;
  2763                           
  2764                           	psect	text11
  2765   002378                     __ptext11:
  2766                           	callstack 0
  2767   002378                     _UARTInit:
  2768                           	callstack 27
  2769   002378                     
  2770                           ;uart.c: 17:     TRISCbits.TRISC6 = 1;
  2771   002378  8C94               	bsf	148,6,c	;volatile
  2772                           
  2773                           ;uart.c: 18:     TRISCbits.TRISC7 = 1;
  2774   00237A  8E94               	bsf	148,7,c	;volatile
  2775                           
  2776                           ;uart.c: 19:     ANSELCbits.ANSC7 = 0;
  2777   00237C  010F               	movlb	15	; () banked
  2778   00237E  9F3A               	bcf	58,7,b	;volatile
  2779   002380                     
  2780                           ; BSR set to: 15
  2781                           ;uart.c: 22:     TXSTA1 = 0;
  2782   002380  0E00               	movlw	0
  2783   002382  6EAC               	movwf	172,c	;volatile
  2784                           
  2785                           ;uart.c: 23:     RCSTA1 = 0;
  2786   002384  0E00               	movlw	0
  2787   002386  6EAB               	movwf	171,c	;volatile
  2788   002388                     
  2789                           ; BSR set to: 15
  2790                           ;uart.c: 25:     TXSTA1bits.SYNC = 0;
  2791   002388  98AC               	bcf	172,4,c	;volatile
  2792   00238A                     
  2793                           ; BSR set to: 15
  2794                           ;uart.c: 26:     TXSTA1bits.TX9 = 0;
  2795   00238A  9CAC               	bcf	172,6,c	;volatile
  2796   00238C                     
  2797                           ; BSR set to: 15
  2798                           ;uart.c: 27:     RCSTA1bits.RX9 = 0;
  2799   00238C  9CAB               	bcf	171,6,c	;volatile
  2800   00238E                     
  2801                           ; BSR set to: 15
  2802                           ;uart.c: 28:     RCSTA1bits.CREN = 1;
  2803   00238E  88AB               	bsf	171,4,c	;volatile
  2804   002390                     
  2805                           ; BSR set to: 15
  2806                           ;uart.c: 29:     RCSTA1bits.ADDEN = 0;
  2807   002390  96AB               	bcf	171,3,c	;volatile
  2808   002392                     
  2809                           ; BSR set to: 15
  2810                           ;uart.c: 31:     PIE1bits.RC1IE = 1;
  2811   002392  8A9D               	bsf	157,5,c	;volatile
  2812   002394                     
  2813                           ; BSR set to: 15
  2814                           ;uart.c: 32:     PIE1bits.TX1IE = 0;
  2815   002394  989D               	bcf	157,4,c	;volatile
  2816   002396                     
  2817                           ; BSR set to: 15
  2818                           ;uart.c: 34:     TXSTA1bits.BRGH = 1;
  2819   002396  84AC               	bsf	172,2,c	;volatile
  2820   002398                     
  2821                           ; BSR set to: 15
  2822                           ;uart.c: 35:     BAUDCON1bits.BRG16 = 1;
  2823   002398  86B8               	bsf	184,3,c	;volatile
  2824                           
  2825                           ;uart.c: 38:     SPBRGH1 = 0;
  2826   00239A  0E00               	movlw	0
  2827   00239C  6EB0               	movwf	176,c	;volatile
  2828                           
  2829                           ;uart.c: 40:     SPBRG1 = 16;
  2830   00239E  0E10               	movlw	16
  2831   0023A0  6EAF               	movwf	175,c	;volatile
  2832   0023A2                     
  2833                           ; BSR set to: 15
  2834                           ;uart.c: 42:     TXSTA1bits.TXEN = 1;
  2835   0023A2  8AAC               	bsf	172,5,c	;volatile
  2836   0023A4                     
  2837                           ; BSR set to: 15
  2838                           ;uart.c: 43:     RCSTA1bits.SPEN = 1;
  2839   0023A4  8EAB               	bsf	171,7,c	;volatile
  2840   0023A6                     
  2841                           ; BSR set to: 15
  2842                           ;uart.c: 45:     RCIF = 0;
  2843   0023A6  9A9E               	bcf	3998,5,c	;volatile
  2844   0023A8                     
  2845                           ; BSR set to: 15
  2846                           ;uart.c: 47:     RCIE = 1;
  2847   0023A8  8A9D               	bsf	3997,5,c	;volatile
  2848   0023AA                     
  2849                           ; BSR set to: 15
  2850                           ;uart.c: 48:     PEIE = 1;
  2851   0023AA  8CF2               	bsf	4082,6,c	;volatile
  2852   0023AC                     
  2853                           ; BSR set to: 15
  2854   0023AC  0012               	return		;funcret
  2855   0023AE                     __end_of_UARTInit:
  2856                           	callstack 0
  2857                           
  2858 ;; *************** function _I2C_Write_Register *****************
  2859 ;; Defined at:
  2860 ;;		line 117 in file "main.c"
  2861 ;; Parameters:    Size  Location     Type
  2862 ;;  reg             1    wreg     unsigned char 
  2863 ;;  value           2   14[COMRAM] unsigned int 
  2864 ;;  address         2   16[COMRAM] unsigned int 
  2865 ;; Auto vars:     Size  Location     Type
  2866 ;;  reg             1   18[COMRAM] unsigned char 
  2867 ;; Return value:  Size  Location     Type
  2868 ;;                  1    wreg      void 
  2869 ;; Registers used:
  2870 ;;		wreg, status,2, status,0, cstack
  2871 ;; Tracked objects:
  2872 ;;		On entry : 0/0
  2873 ;;		On exit  : 0/0
  2874 ;;		Unchanged: 0/0
  2875 ;; Data sizes:     COMRAM   BANK0   BANK1   BANK2   BANK3   BANK4   BANK5
  2876 ;;      Params:         4       0       0       0       0       0       0
  2877 ;;      Locals:         1       0       0       0       0       0       0
  2878 ;;      Temps:          0       0       0       0       0       0       0
  2879 ;;      Totals:         5       0       0       0       0       0       0
  2880 ;;Total ram usage:        5 bytes
  2881 ;; Hardware stack levels used: 1
  2882 ;; Hardware stack levels required when called: 5
  2883 ;; This function calls:
  2884 ;;		_i2c_start
  2885 ;;		_i2c_stop
  2886 ;;		_i2c_write
  2887 ;; This function is called by:
  2888 ;;		_main
  2889 ;; This function uses a non-reentrant model
  2890 ;;
  2891                           
  2892                           	psect	text12
  2893   002406                     __ptext12:
  2894                           	callstack 0
  2895   002406                     _I2C_Write_Register:
  2896                           	callstack 25
  2897                           
  2898                           ; BSR set to: 15
  2899                           ;incstack = 0
  2900                           ;I2C_Write_Register@reg stored from wreg
  2901   002406  6E13               	movwf	I2C_Write_Register@reg^0,c
  2902   002408                     
  2903                           ;main.c: 118:     i2c_start();
  2904   002408  EC78  F012         	call	_i2c_start	;wreg free
  2905   00240C                     
  2906                           ;main.c: 119:     i2c_write(0xED);
  2907   00240C  5011               	movf	I2C_Write_Register@address^0,w,c
  2908   00240E  2411               	addwf	I2C_Write_Register@address^0,w,c
  2909   002410  EC26  F012         	call	_i2c_write
  2910   002414                     
  2911                           ;main.c: 120:     msb = i2c_read();
  2912   002414  5013               	movf	I2C_Write_Register@reg^0,w,c
  2913   002416  EC26  F012         	call	_i2c_write
  2914   00241A                     
  2915                           ;main.c: 121:     i2c_ACK();
  2916   00241A  5010               	movf	(I2C_Write_Register@value+1)^0,w,c
  2917   00241C  EC26  F012         	call	_i2c_write
  2918   002420                     
  2919                           ;main.c: 122:     lsb = i2c_read();
  2920   002420  500F               	movf	I2C_Write_Register@value^0,w,c
  2921   002422  EC26  F012         	call	_i2c_write
  2922   002426                     
  2923                           ;main.c: 123:     i2c_ACK();
  2924   002426  EC40  F012         	call	_i2c_stop	;wreg free
  2925   00242A  0012               	return		;funcret
  2926   00242C                     __end_of_I2C_Write_Register:
  2927                           	callstack 0
  2928                           
  2929 ;; *************** function _BME280_Read_Temperature *****************
  2930 ;; Defined at:
  2931 ;;		line 190 in file "main.c"
  2932 ;; Parameters:    Size  Location     Type
  2933 ;;		None
  2934 ;; Auto vars:     Size  Location     Type
  2935 ;;  adc_T           4   25[COMRAM] long 
  2936 ;;  xlsb            1   31[COMRAM] unsigned char 
  2937 ;;  lsb             1   30[COMRAM] unsigned char 
  2938 ;;  msb             1   29[COMRAM] unsigned char 
  2939 ;; Return value:  Size  Location     Type
  2940 ;;                  4   14[COMRAM] long 
  2941 ;; Registers used:
  2942 ;;		wreg, status,2, status,0, cstack
  2943 ;; Tracked objects:
  2944 ;;		On entry : 0/0
  2945 ;;		On exit  : 0/0
  2946 ;;		Unchanged: 0/0
  2947 ;; Data sizes:     COMRAM   BANK0   BANK1   BANK2   BANK3   BANK4   BANK5
  2948 ;;      Params:         4       0       0       0       0       0       0
  2949 ;;      Locals:         7       0       0       0       0       0       0
  2950 ;;      Temps:          7       0       0       0       0       0       0
  2951 ;;      Totals:        18       0       0       0       0       0       0
  2952 ;;Total ram usage:       18 bytes
  2953 ;; Hardware stack levels used: 1
  2954 ;; Hardware stack levels required when called: 5
  2955 ;; This function calls:
  2956 ;;		_i2c_ACK
  2957 ;;		_i2c_NAK
  2958 ;;		_i2c_read
  2959 ;;		_i2c_start
  2960 ;;		_i2c_stop
  2961 ;;		_i2c_write
  2962 ;; This function is called by:
  2963 ;;		_main
  2964 ;; This function uses a non-reentrant model
  2965 ;;
  2966                           
  2967                           	psect	text13
  2968   002066                     __ptext13:
  2969                           	callstack 0
  2970   002066                     _BME280_Read_Temperature:
  2971                           	callstack 25
  2972   002066  EC78  F012         	call	_i2c_start	;wreg free
  2973   00206A  0EEC               	movlw	236
  2974   00206C  EC26  F012         	call	_i2c_write
  2975   002070  0EFA               	movlw	250
  2976   002072  EC26  F012         	call	_i2c_write
  2977   002076  EC40  F012         	call	_i2c_stop	;wreg free
  2978   00207A  EC78  F012         	call	_i2c_start	;wreg free
  2979   00207E  0EED               	movlw	237
  2980   002080  EC26  F012         	call	_i2c_write
  2981   002084  EC16  F012         	call	_i2c_read	;wreg free
  2982   002088  6E1E               	movwf	BME280_Read_Temperature@msb^0,c
  2983   00208A  EC62  F012         	call	_i2c_ACK	;wreg free
  2984   00208E  EC16  F012         	call	_i2c_read	;wreg free
  2985   002092  6E1F               	movwf	BME280_Read_Temperature@lsb^0,c
  2986   002094  EC62  F012         	call	_i2c_ACK	;wreg free
  2987   002098  EC16  F012         	call	_i2c_read	;wreg free
  2988   00209C  6E20               	movwf	BME280_Read_Temperature@xlsb^0,c
  2989   00209E  EC57  F012         	call	_i2c_NAK	;wreg free
  2990   0020A2  EC40  F012         	call	_i2c_stop	;wreg free
  2991   0020A6                     
  2992                           ;main.c: 217:     adc_T = (long)((msb << 12) | (lsb << 4) | (xlsb >> 4));
  2993   0020A6  501F               	movf	BME280_Read_Temperature@lsb^0,w,c
  2994   0020A8  6E13               	movwf	??_BME280_Read_Temperature^0,c
  2995   0020AA  6A14               	clrf	(??_BME280_Read_Temperature+1)^0,c
  2996   0020AC  3A13               	swapf	??_BME280_Read_Temperature^0,f,c
  2997   0020AE  3A14               	swapf	(??_BME280_Read_Temperature+1)^0,f,c
  2998   0020B0  0EF0               	movlw	240
  2999   0020B2  1614               	andwf	(??_BME280_Read_Temperature+1)^0,f,c
  3000   0020B4  5013               	movf	??_BME280_Read_Temperature^0,w,c
  3001   0020B6  0B0F               	andlw	15
  3002   0020B8  1214               	iorwf	(??_BME280_Read_Temperature+1)^0,f,c
  3003   0020BA  0EF0               	movlw	240
  3004   0020BC  1613               	andwf	??_BME280_Read_Temperature^0,f,c
  3005   0020BE  501E               	movf	BME280_Read_Temperature@msb^0,w,c
  3006   0020C0  6E15               	movwf	(??_BME280_Read_Temperature+2)^0,c
  3007   0020C2  6A16               	clrf	(??_BME280_Read_Temperature+3)^0,c
  3008   0020C4  0E0C               	movlw	12
  3009   0020C6                     u4165:
  3010   0020C6  90D8               	bcf	status,0,c
  3011   0020C8  3615               	rlcf	(??_BME280_Read_Temperature+2)^0,f,c
  3012   0020CA  3616               	rlcf	(??_BME280_Read_Temperature+3)^0,f,c
  3013   0020CC  2EE8               	decfsz	wreg,f,c
  3014   0020CE  EF63  F010         	goto	u4165
  3015   0020D2  5013               	movf	??_BME280_Read_Temperature^0,w,c
  3016   0020D4  1015               	iorwf	(??_BME280_Read_Temperature+2)^0,w,c
  3017   0020D6  6E17               	movwf	(??_BME280_Read_Temperature+4)^0,c
  3018   0020D8  5014               	movf	(??_BME280_Read_Temperature+1)^0,w,c
  3019   0020DA  1016               	iorwf	(??_BME280_Read_Temperature+3)^0,w,c
  3020   0020DC  6E18               	movwf	(??_BME280_Read_Temperature+5)^0,c
  3021   0020DE  C020  F019         	movff	BME280_Read_Temperature@xlsb,??_BME280_Read_Temperature+6
  3022   0020E2  3A19               	swapf	(??_BME280_Read_Temperature+6)^0,f,c
  3023   0020E4  0E0F               	movlw	15
  3024   0020E6  1619               	andwf	(??_BME280_Read_Temperature+6)^0,f,c
  3025   0020E8  5019               	movf	(??_BME280_Read_Temperature+6)^0,w,c
  3026   0020EA  1217               	iorwf	(??_BME280_Read_Temperature+4)^0,f,c
  3027   0020EC  0E00               	movlw	0
  3028   0020EE  1218               	iorwf	(??_BME280_Read_Temperature+5)^0,f,c
  3029   0020F0  C017  F01A         	movff	??_BME280_Read_Temperature+4,BME280_Read_Temperature@adc_T
  3030   0020F4  C018  F01B         	movff	??_BME280_Read_Temperature+5,BME280_Read_Temperature@adc_T+1
  3031   0020F8  0E00               	movlw	0
  3032   0020FA  BE1B               	btfsc	(BME280_Read_Temperature@adc_T+1)^0,7,c
  3033   0020FC  0EFF               	movlw	-1
  3034   0020FE  6E1C               	movwf	(BME280_Read_Temperature@adc_T+2)^0,c
  3035   002100  6E1D               	movwf	(BME280_Read_Temperature@adc_T+3)^0,c
  3036   002102                     
  3037                           ;main.c: 220:     return adc_T;
  3038   002102  C01A  F00F         	movff	BME280_Read_Temperature@adc_T,?_BME280_Read_Temperature
  3039   002106  C01B  F010         	movff	BME280_Read_Temperature@adc_T+1,?_BME280_Read_Temperature+1
  3040   00210A  C01C  F011         	movff	BME280_Read_Temperature@adc_T+2,?_BME280_Read_Temperature+2
  3041   00210E  C01D  F012         	movff	BME280_Read_Temperature@adc_T+3,?_BME280_Read_Temperature+3
  3042   002112  0012               	return		;funcret
  3043   002114                     __end_of_BME280_Read_Temperature:
  3044                           	callstack 0
  3045                           
  3046 ;; *************** function _BME280_Read_Compensation_Params *****************
  3047 ;; Defined at:
  3048 ;;		line 166 in file "main.c"
  3049 ;; Parameters:    Size  Location     Type
  3050 ;;		None
  3051 ;; Auto vars:     Size  Location     Type
  3052 ;;  i               2   28[COMRAM] int 
  3053 ;;  data           12   16[COMRAM] unsigned int [6]
  3054 ;; Return value:  Size  Location     Type
  3055 ;;                  1    wreg      void 
  3056 ;; Registers used:
  3057 ;;		wreg, fsr2l, fsr2h, status,2, status,0, prodl, prodh, cstack
  3058 ;; Tracked objects:
  3059 ;;		On entry : 0/0
  3060 ;;		On exit  : 0/0
  3061 ;;		Unchanged: 0/0
  3062 ;; Data sizes:     COMRAM   BANK0   BANK1   BANK2   BANK3   BANK4   BANK5
  3063 ;;      Params:         0       0       0       0       0       0       0
  3064 ;;      Locals:        14       0       0       0       0       0       0
  3065 ;;      Temps:          2       0       0       0       0       0       0
  3066 ;;      Totals:        16       0       0       0       0       0       0
  3067 ;;Total ram usage:       16 bytes
  3068 ;; Hardware stack levels used: 1
  3069 ;; Hardware stack levels required when called: 5
  3070 ;; This function calls:
  3071 ;;		_i2c_ACK
  3072 ;;		_i2c_NAK
  3073 ;;		_i2c_read
  3074 ;;		_i2c_start
  3075 ;;		_i2c_stop
  3076 ;;		_i2c_write
  3077 ;; This function is called by:
  3078 ;;		_main
  3079 ;; This function uses a non-reentrant model
  3080 ;;
  3081                           
  3082                           	psect	text14
  3083   001FB2                     __ptext14:
  3084                           	callstack 0
  3085   001FB2                     _BME280_Read_Compensation_Params:
  3086                           	callstack 25
  3087   001FB2  EC78  F012         	call	_i2c_start	;wreg free
  3088   001FB6  0EEC               	movlw	236
  3089   001FB8  EC26  F012         	call	_i2c_write
  3090   001FBC  0E88               	movlw	136
  3091   001FBE  EC26  F012         	call	_i2c_write
  3092   001FC2  EC40  F012         	call	_i2c_stop	;wreg free
  3093   001FC6  EC78  F012         	call	_i2c_start	;wreg free
  3094   001FCA  0EED               	movlw	237
  3095   001FCC  EC26  F012         	call	_i2c_write
  3096   001FD0  0E00               	movlw	0
  3097   001FD2  6E1E               	movwf	(BME280_Read_Compensation_Params@i+1)^0,c
  3098   001FD4  0E00               	movlw	0
  3099   001FD6  6E1D               	movwf	BME280_Read_Compensation_Params@i^0,c
  3100   001FD8                     l4216:
  3101   001FD8  EC16  F012         	call	_i2c_read	;wreg free
  3102   001FDC  6E0F               	movwf	??_BME280_Read_Compensation_Params^0,c
  3103   001FDE  6A10               	clrf	(??_BME280_Read_Compensation_Params+1)^0,c
  3104   001FE0  501D               	movf	BME280_Read_Compensation_Params@i^0,w,c
  3105   001FE2  0D02               	mullw	2
  3106   001FE4  50F3               	movf	243,w,c
  3107   001FE6  0F11               	addlw	low BME280_Read_Compensation_Params@data
  3108   001FE8  6ED9               	movwf	fsr2l,c
  3109   001FEA  6ADA               	clrf	fsr2h,c
  3110   001FEC  C00F  FFDE         	movff	??_BME280_Read_Compensation_Params,postinc2
  3111   001FF0  C010  FFDD         	movff	??_BME280_Read_Compensation_Params+1,postdec2
  3112   001FF4  EC62  F012         	call	_i2c_ACK	;wreg free
  3113   001FF8  4A1D               	infsnz	BME280_Read_Compensation_Params@i^0,f,c
  3114   001FFA  2A1E               	incf	(BME280_Read_Compensation_Params@i+1)^0,f,c
  3115   001FFC  BE1E               	btfsc	(BME280_Read_Compensation_Params@i+1)^0,7,c
  3116   001FFE  EF0A  F010         	goto	u4151
  3117   002002  501E               	movf	(BME280_Read_Compensation_Params@i+1)^0,w,c
  3118   002004  E109               	bnz	u4150
  3119   002006  0E05               	movlw	5
  3120   002008  5C1D               	subwf	BME280_Read_Compensation_Params@i^0,w,c
  3121   00200A  A0D8               	btfss	status,0,c
  3122   00200C  EF0A  F010         	goto	u4151
  3123   002010  EF0C  F010         	goto	u4150
  3124   002014                     u4151:
  3125   002014  EFEC  F00F         	goto	l4216
  3126   002018                     u4150:
  3127   002018  EC16  F012         	call	_i2c_read	;wreg free
  3128   00201C  6E0F               	movwf	??_BME280_Read_Compensation_Params^0,c
  3129   00201E  500F               	movf	??_BME280_Read_Compensation_Params^0,w,c
  3130   002020  6E1B               	movwf	(BME280_Read_Compensation_Params@data+10)^0,c
  3131   002022  6A1C               	clrf	(BME280_Read_Compensation_Params@data+11)^0,c
  3132   002024  EC57  F012         	call	_i2c_NAK	;wreg free
  3133   002028  EC40  F012         	call	_i2c_stop	;wreg free
  3134   00202C  5013               	movf	(BME280_Read_Compensation_Params@data+2)^0,w,c
  3135   00202E  6E10               	movwf	(??_BME280_Read_Compensation_Params+1)^0,c
  3136   002030  6A0F               	clrf	??_BME280_Read_Compensation_Params^0,c
  3137   002032  5011               	movf	BME280_Read_Compensation_Params@data^0,w,c
  3138   002034  100F               	iorwf	??_BME280_Read_Compensation_Params^0,w,c
  3139   002036  0100               	movlb	0	; () banked
  3140   002038  6F60               	movwf	_compParams& (0+255),b
  3141   00203A  5012               	movf	(BME280_Read_Compensation_Params@data+1)^0,w,c
  3142   00203C  1010               	iorwf	(??_BME280_Read_Compensation_Params+1)^0,w,c
  3143   00203E  6F61               	movwf	(_compParams+1)& (0+255),b
  3144   002040                     
  3145                           ; BSR set to: 0
  3146   002040  5017               	movf	(BME280_Read_Compensation_Params@data+6)^0,w,c
  3147   002042  6E10               	movwf	(??_BME280_Read_Compensation_Params+1)^0,c
  3148   002044  6A0F               	clrf	??_BME280_Read_Compensation_Params^0,c
  3149   002046  5015               	movf	(BME280_Read_Compensation_Params@data+4)^0,w,c
  3150   002048  100F               	iorwf	??_BME280_Read_Compensation_Params^0,w,c
  3151   00204A  6F62               	movwf	(_compParams+2)& (0+255),b
  3152   00204C  5016               	movf	(BME280_Read_Compensation_Params@data+5)^0,w,c
  3153   00204E  1010               	iorwf	(??_BME280_Read_Compensation_Params+1)^0,w,c
  3154   002050  6F63               	movwf	(_compParams+3)& (0+255),b
  3155   002052                     
  3156                           ; BSR set to: 0
  3157   002052  501B               	movf	(BME280_Read_Compensation_Params@data+10)^0,w,c
  3158   002054  6E10               	movwf	(??_BME280_Read_Compensation_Params+1)^0,c
  3159   002056  6A0F               	clrf	??_BME280_Read_Compensation_Params^0,c
  3160   002058  5019               	movf	(BME280_Read_Compensation_Params@data+8)^0,w,c
  3161   00205A  100F               	iorwf	??_BME280_Read_Compensation_Params^0,w,c
  3162   00205C  6F64               	movwf	(_compParams+4)& (0+255),b
  3163   00205E  501A               	movf	(BME280_Read_Compensation_Params@data+9)^0,w,c
  3164   002060  1010               	iorwf	(??_BME280_Read_Compensation_Params+1)^0,w,c
  3165   002062  6F65               	movwf	(_compParams+5)& (0+255),b
  3166   002064                     
  3167                           ; BSR set to: 0
  3168   002064  0012               	return		;funcret
  3169   002066                     __end_of_BME280_Read_Compensation_Params:
  3170                           	callstack 0
  3171                           
  3172 ;; *************** function _i2c_read *****************
  3173 ;; Defined at:
  3174 ;;		line 87 in file "i2c.c"
  3175 ;; Parameters:    Size  Location     Type
  3176 ;;		None
  3177 ;; Auto vars:     Size  Location     Type
  3178 ;;  i2cReadData     1   13[COMRAM] unsigned char 
  3179 ;; Return value:  Size  Location     Type
  3180 ;;                  1    wreg      unsigned char 
  3181 ;; Registers used:
  3182 ;;		wreg, status,2, status,0, cstack
  3183 ;; Tracked objects:
  3184 ;;		On entry : 0/0
  3185 ;;		On exit  : 0/0
  3186 ;;		Unchanged: 0/0
  3187 ;; Data sizes:     COMRAM   BANK0   BANK1   BANK2   BANK3   BANK4   BANK5
  3188 ;;      Params:         0       0       0       0       0       0       0
  3189 ;;      Locals:         1       0       0       0       0       0       0
  3190 ;;      Temps:          0       0       0       0       0       0       0
  3191 ;;      Totals:         1       0       0       0       0       0       0
  3192 ;;Total ram usage:        1 bytes
  3193 ;; Hardware stack levels used: 1
  3194 ;; Hardware stack levels required when called: 4
  3195 ;; This function calls:
  3196 ;;		_i2c_waitForIdle
  3197 ;; This function is called by:
  3198 ;;		_BME280_Read_Compensation_Params
  3199 ;;		_BME280_Read_Temperature
  3200 ;;		_main
  3201 ;; This function uses a non-reentrant model
  3202 ;;
  3203                           
  3204                           	psect	text15
  3205   00242C                     __ptext15:
  3206                           	callstack 0
  3207   00242C                     _i2c_read:
  3208                           	callstack 26
  3209   00242C                     
  3210                           ;i2c.c: 90:     i2c_waitForIdle();
  3211   00242C  ECED  F011         	call	_i2c_waitForIdle	;wreg free
  3212   002430                     
  3213                           ;i2c.c: 92:     PIR1bits.SSP1IF = 0;
  3214   002430  969E               	bcf	158,3,c	;volatile
  3215   002432                     
  3216                           ;i2c.c: 93:     SSP1CON2bits.RCEN = 1;
  3217   002432  86C5               	bsf	197,3,c	;volatile
  3218   002434                     l285:
  3219   002434  A0C7               	btfss	199,0,c	;volatile
  3220   002436  EF1F  F012         	goto	u3511
  3221   00243A  EF21  F012         	goto	u3510
  3222   00243E                     u3511:
  3223   00243E  EF1A  F012         	goto	l285
  3224   002442                     u3510:
  3225   002442                     
  3226                           ;i2c.c: 96:     PIR1bits.SSP1IF = 0;
  3227   002442  969E               	bcf	158,3,c	;volatile
  3228                           
  3229                           ;i2c.c: 97:     i2cReadData = SSP1BUF;
  3230   002444  CFC9 F00E          	movff	4041,i2c_read@i2cReadData	;volatile
  3231   002448                     
  3232                           ;i2c.c: 98:     return i2cReadData;
  3233   002448  500E               	movf	i2c_read@i2cReadData^0,w,c
  3234   00244A  0012               	return		;funcret
  3235   00244C                     __end_of_i2c_read:
  3236                           	callstack 0
  3237                           
  3238 ;; *************** function _i2c_NAK *****************
  3239 ;; Defined at:
  3240 ;;		line 79 in file "i2c.c"
  3241 ;; Parameters:    Size  Location     Type
  3242 ;;		None
  3243 ;; Auto vars:     Size  Location     Type
  3244 ;;		None
  3245 ;; Return value:  Size  Location     Type
  3246 ;;                  1    wreg      void 
  3247 ;; Registers used:
  3248 ;;		None
  3249 ;; Tracked objects:
  3250 ;;		On entry : 0/0
  3251 ;;		On exit  : 0/0
  3252 ;;		Unchanged: 0/0
  3253 ;; Data sizes:     COMRAM   BANK0   BANK1   BANK2   BANK3   BANK4   BANK5
  3254 ;;      Params:         0       0       0       0       0       0       0
  3255 ;;      Locals:         0       0       0       0       0       0       0
  3256 ;;      Temps:          0       0       0       0       0       0       0
  3257 ;;      Totals:         0       0       0       0       0       0       0
  3258 ;;Total ram usage:        0 bytes
  3259 ;; Hardware stack levels used: 1
  3260 ;; Hardware stack levels required when called: 3
  3261 ;; This function calls:
  3262 ;;		Nothing
  3263 ;; This function is called by:
  3264 ;;		_BME280_Read_Compensation_Params
  3265 ;;		_BME280_Read_Temperature
  3266 ;;		_main
  3267 ;; This function uses a non-reentrant model
  3268 ;;
  3269                           
  3270                           	psect	text16
  3271   0024AE                     __ptext16:
  3272                           	callstack 0
  3273   0024AE                     _i2c_NAK:
  3274                           	callstack 27
  3275   0024AE                     
  3276                           ;i2c.c: 81:     PIR1bits.SSP1IF = 0;
  3277   0024AE  969E               	bcf	158,3,c	;volatile
  3278                           
  3279                           ;i2c.c: 82:     SSP1CON2bits.ACKDT = 1;
  3280   0024B0  8AC5               	bsf	197,5,c	;volatile
  3281                           
  3282                           ;i2c.c: 83:     SSP1CON2bits.ACKEN = 1;
  3283   0024B2  88C5               	bsf	197,4,c	;volatile
  3284   0024B4                     l279:
  3285   0024B4  A69E               	btfss	158,3,c	;volatile
  3286   0024B6  EF5F  F012         	goto	u3531
  3287   0024BA  EF61  F012         	goto	u3530
  3288   0024BE                     u3531:
  3289   0024BE  EF5A  F012         	goto	l279
  3290   0024C2                     u3530:
  3291   0024C2  0012               	return		;funcret
  3292   0024C4                     __end_of_i2c_NAK:
  3293                           	callstack 0
  3294                           
  3295 ;; *************** function _i2c_ACK *****************
  3296 ;; Defined at:
  3297 ;;		line 72 in file "i2c.c"
  3298 ;; Parameters:    Size  Location     Type
  3299 ;;		None
  3300 ;; Auto vars:     Size  Location     Type
  3301 ;;		None
  3302 ;; Return value:  Size  Location     Type
  3303 ;;                  1    wreg      void 
  3304 ;; Registers used:
  3305 ;;		None
  3306 ;; Tracked objects:
  3307 ;;		On entry : 0/0
  3308 ;;		On exit  : 0/0
  3309 ;;		Unchanged: 0/0
  3310 ;; Data sizes:     COMRAM   BANK0   BANK1   BANK2   BANK3   BANK4   BANK5
  3311 ;;      Params:         0       0       0       0       0       0       0
  3312 ;;      Locals:         0       0       0       0       0       0       0
  3313 ;;      Temps:          0       0       0       0       0       0       0
  3314 ;;      Totals:         0       0       0       0       0       0       0
  3315 ;;Total ram usage:        0 bytes
  3316 ;; Hardware stack levels used: 1
  3317 ;; Hardware stack levels required when called: 3
  3318 ;; This function calls:
  3319 ;;		Nothing
  3320 ;; This function is called by:
  3321 ;;		_BME280_Read_Compensation_Params
  3322 ;;		_BME280_Read_Temperature
  3323 ;;		_main
  3324 ;; This function uses a non-reentrant model
  3325 ;;
  3326                           
  3327                           	psect	text17
  3328   0024C4                     __ptext17:
  3329                           	callstack 0
  3330   0024C4                     _i2c_ACK:
  3331                           	callstack 27
  3332   0024C4                     
  3333                           ;i2c.c: 74:     PIR1bits.SSP1IF = 0;
  3334   0024C4  969E               	bcf	158,3,c	;volatile
  3335                           
  3336                           ;i2c.c: 75:     SSP1CON2bits.ACKDT= 0;
  3337   0024C6  9AC5               	bcf	197,5,c	;volatile
  3338                           
  3339                           ;i2c.c: 76:     SSP1CON2bits.ACKEN = 1;
  3340   0024C8  88C5               	bsf	197,4,c	;volatile
  3341   0024CA                     l273:
  3342   0024CA  A69E               	btfss	158,3,c	;volatile
  3343   0024CC  EF6A  F012         	goto	u3521
  3344   0024D0  EF6C  F012         	goto	u3520
  3345   0024D4                     u3521:
  3346   0024D4  EF65  F012         	goto	l273
  3347   0024D8                     u3520:
  3348   0024D8  0012               	return		;funcret
  3349   0024DA                     __end_of_i2c_ACK:
  3350                           	callstack 0
  3351                           
  3352 ;; *************** function _BME280_Init *****************
  3353 ;; Defined at:
  3354 ;;		line 146 in file "main.c"
  3355 ;; Parameters:    Size  Location     Type
  3356 ;;		None
  3357 ;; Auto vars:     Size  Location     Type
  3358 ;;		None
  3359 ;; Return value:  Size  Location     Type
  3360 ;;                  1    wreg      void 
  3361 ;; Registers used:
  3362 ;;		wreg, status,2, status,0, cstack
  3363 ;; Tracked objects:
  3364 ;;		On entry : 0/0
  3365 ;;		On exit  : 0/0
  3366 ;;		Unchanged: 0/0
  3367 ;; Data sizes:     COMRAM   BANK0   BANK1   BANK2   BANK3   BANK4   BANK5
  3368 ;;      Params:         0       0       0       0       0       0       0
  3369 ;;      Locals:         0       0       0       0       0       0       0
  3370 ;;      Temps:          0       0       0       0       0       0       0
  3371 ;;      Totals:         0       0       0       0       0       0       0
  3372 ;;Total ram usage:        0 bytes
  3373 ;; Hardware stack levels used: 1
  3374 ;; Hardware stack levels required when called: 5
  3375 ;; This function calls:
  3376 ;;		_i2c_start
  3377 ;;		_i2c_stop
  3378 ;;		_i2c_write
  3379 ;; This function is called by:
  3380 ;;		_main
  3381 ;; This function uses a non-reentrant model
  3382 ;;
  3383                           
  3384                           	psect	text18
  3385   00221C                     __ptext18:
  3386                           	callstack 0
  3387   00221C                     _BME280_Init:
  3388                           	callstack 25
  3389   00221C  EC78  F012         	call	_i2c_start	;wreg free
  3390   002220  0EEC               	movlw	236
  3391   002222  EC26  F012         	call	_i2c_write
  3392   002226  0EF2               	movlw	242
  3393   002228  EC26  F012         	call	_i2c_write
  3394   00222C  0E01               	movlw	1
  3395   00222E  EC26  F012         	call	_i2c_write
  3396   002232  EC40  F012         	call	_i2c_stop	;wreg free
  3397   002236  EC78  F012         	call	_i2c_start	;wreg free
  3398   00223A  0EEC               	movlw	236
  3399   00223C  EC26  F012         	call	_i2c_write
  3400   002240  0EF4               	movlw	244
  3401   002242  EC26  F012         	call	_i2c_write
  3402   002246  0E27               	movlw	39
  3403   002248  EC26  F012         	call	_i2c_write
  3404   00224C  EC40  F012         	call	_i2c_stop	;wreg free
  3405   002250  EC78  F012         	call	_i2c_start	;wreg free
  3406   002254  0EEC               	movlw	236
  3407   002256  EC26  F012         	call	_i2c_write
  3408   00225A  0EF5               	movlw	245
  3409   00225C  EC26  F012         	call	_i2c_write
  3410   002260  0EA0               	movlw	160
  3411   002262  EC26  F012         	call	_i2c_write
  3412   002266  EC40  F012         	call	_i2c_stop	;wreg free
  3413   00226A  0012               	return		;funcret
  3414   00226C                     __end_of_BME280_Init:
  3415                           	callstack 0
  3416                           
  3417 ;; *************** function _i2c_write *****************
  3418 ;; Defined at:
  3419 ;;		line 101 in file "i2c.c"
  3420 ;; Parameters:    Size  Location     Type
  3421 ;;  i2cWriteData    1    wreg     unsigned char 
  3422 ;; Auto vars:     Size  Location     Type
  3423 ;;  i2cWriteData    1   13[COMRAM] unsigned char 
  3424 ;; Return value:  Size  Location     Type
  3425 ;;                  1    wreg      void 
  3426 ;; Registers used:
  3427 ;;		wreg, status,2, status,0, cstack
  3428 ;; Tracked objects:
  3429 ;;		On entry : 0/0
  3430 ;;		On exit  : 0/0
  3431 ;;		Unchanged: 0/0
  3432 ;; Data sizes:     COMRAM   BANK0   BANK1   BANK2   BANK3   BANK4   BANK5
  3433 ;;      Params:         0       0       0       0       0       0       0
  3434 ;;      Locals:         1       0       0       0       0       0       0
  3435 ;;      Temps:          0       0       0       0       0       0       0
  3436 ;;      Totals:         1       0       0       0       0       0       0
  3437 ;;Total ram usage:        1 bytes
  3438 ;; Hardware stack levels used: 1
  3439 ;; Hardware stack levels required when called: 4
  3440 ;; This function calls:
  3441 ;;		_i2c_waitForIdle
  3442 ;; This function is called by:
  3443 ;;		_I2C_Write_Register
  3444 ;;		_BME280_Init
  3445 ;;		_BME280_Read_Compensation_Params
  3446 ;;		_BME280_Read_Temperature
  3447 ;;		_main
  3448 ;; This function uses a non-reentrant model
  3449 ;;
  3450                           
  3451                           	psect	text19
  3452   00244C                     __ptext19:
  3453                           	callstack 0
  3454   00244C                     _i2c_write:
  3455                           	callstack 26
  3456                           
  3457                           ;incstack = 0
  3458                           ;i2c_write@i2cWriteData stored from wreg
  3459   00244C  6E0E               	movwf	i2c_write@i2cWriteData^0,c
  3460   00244E                     
  3461                           ;i2c.c: 103:     i2c_waitForIdle();
  3462   00244E  ECED  F011         	call	_i2c_waitForIdle	;wreg free
  3463   002452                     
  3464                           ;i2c.c: 105:     PIR1bits.SSP1IF = 0;
  3465   002452  969E               	bcf	158,3,c	;volatile
  3466   002454                     
  3467                           ;i2c.c: 106:     SSP1BUF = i2cWriteData;
  3468   002454  C00E  FFC9         	movff	i2c_write@i2cWriteData,4041	;volatile
  3469   002458                     l291:
  3470   002458  A69E               	btfss	158,3,c	;volatile
  3471   00245A  EF31  F012         	goto	u3491
  3472   00245E  EF33  F012         	goto	u3490
  3473   002462                     u3491:
  3474   002462  EF2C  F012         	goto	l291
  3475   002466                     u3490:
  3476   002466  0012               	return		;funcret
  3477   002468                     __end_of_i2c_write:
  3478                           	callstack 0
  3479                           
  3480 ;; *************** function _i2c_stop *****************
  3481 ;; Defined at:
  3482 ;;		line 63 in file "i2c.c"
  3483 ;; Parameters:    Size  Location     Type
  3484 ;;		None
  3485 ;; Auto vars:     Size  Location     Type
  3486 ;;		None
  3487 ;; Return value:  Size  Location     Type
  3488 ;;                  1    wreg      void 
  3489 ;; Registers used:
  3490 ;;		wreg, status,2, status,0, cstack
  3491 ;; Tracked objects:
  3492 ;;		On entry : 0/0
  3493 ;;		On exit  : 0/0
  3494 ;;		Unchanged: 0/0
  3495 ;; Data sizes:     COMRAM   BANK0   BANK1   BANK2   BANK3   BANK4   BANK5
  3496 ;;      Params:         0       0       0       0       0       0       0
  3497 ;;      Locals:         0       0       0       0       0       0       0
  3498 ;;      Temps:          0       0       0       0       0       0       0
  3499 ;;      Totals:         0       0       0       0       0       0       0
  3500 ;;Total ram usage:        0 bytes
  3501 ;; Hardware stack levels used: 1
  3502 ;; Hardware stack levels required when called: 4
  3503 ;; This function calls:
  3504 ;;		_i2c_waitForIdle
  3505 ;; This function is called by:
  3506 ;;		_I2C_Write_Register
  3507 ;;		_BME280_Init
  3508 ;;		_BME280_Read_Compensation_Params
  3509 ;;		_BME280_Read_Temperature
  3510 ;;		_main
  3511 ;;		_I2C_Scan
  3512 ;; This function uses a non-reentrant model
  3513 ;;
  3514                           
  3515                           	psect	text20
  3516   002480                     __ptext20:
  3517                           	callstack 0
  3518   002480                     _i2c_stop:
  3519                           	callstack 26
  3520   002480                     
  3521                           ;i2c.c: 65:     i2c_waitForIdle();
  3522   002480  ECED  F011         	call	_i2c_waitForIdle	;wreg free
  3523   002484                     
  3524                           ;i2c.c: 67:     PIR1bits.SSP1IF = 0;
  3525   002484  969E               	bcf	158,3,c	;volatile
  3526   002486                     
  3527                           ;i2c.c: 68:     SSP1CON2bits.PEN = 1;
  3528   002486  84C5               	bsf	197,2,c	;volatile
  3529   002488                     l267:
  3530   002488  A69E               	btfss	158,3,c	;volatile
  3531   00248A  EF49  F012         	goto	u3501
  3532   00248E  EF4B  F012         	goto	u3500
  3533   002492                     u3501:
  3534   002492  EF44  F012         	goto	l267
  3535   002496                     u3500:
  3536   002496  0012               	return		;funcret
  3537   002498                     __end_of_i2c_stop:
  3538                           	callstack 0
  3539                           
  3540 ;; *************** function _i2c_waitForIdle *****************
  3541 ;; Defined at:
  3542 ;;		line 41 in file "i2c.c"
  3543 ;; Parameters:    Size  Location     Type
  3544 ;;		None
  3545 ;; Auto vars:     Size  Location     Type
  3546 ;;		None
  3547 ;; Return value:  Size  Location     Type
  3548 ;;                  1    wreg      void 
  3549 ;; Registers used:
  3550 ;;		wreg, status,2, status,0
  3551 ;; Tracked objects:
  3552 ;;		On entry : 0/0
  3553 ;;		On exit  : 0/0
  3554 ;;		Unchanged: 0/0
  3555 ;; Data sizes:     COMRAM   BANK0   BANK1   BANK2   BANK3   BANK4   BANK5
  3556 ;;      Params:         0       0       0       0       0       0       0
  3557 ;;      Locals:         0       0       0       0       0       0       0
  3558 ;;      Temps:          1       0       0       0       0       0       0
  3559 ;;      Totals:         1       0       0       0       0       0       0
  3560 ;;Total ram usage:        1 bytes
  3561 ;; Hardware stack levels used: 1
  3562 ;; Hardware stack levels required when called: 3
  3563 ;; This function calls:
  3564 ;;		Nothing
  3565 ;; This function is called by:
  3566 ;;		_i2c_repStart
  3567 ;;		_i2c_stop
  3568 ;;		_i2c_read
  3569 ;;		_i2c_write
  3570 ;; This function uses a non-reentrant model
  3571 ;;
  3572                           
  3573                           	psect	text21
  3574   0023DA                     __ptext21:
  3575                           	callstack 0
  3576   0023DA                     _i2c_waitForIdle:
  3577                           	callstack 26
  3578   0023DA                     l3496:
  3579   0023DA  B4C7               	btfsc	199,2,c	;volatile
  3580   0023DC  EFF2  F011         	goto	u3011
  3581   0023E0  EFF6  F011         	goto	u3010
  3582   0023E4                     u3011:
  3583   0023E4  6A0D               	clrf	??_i2c_waitForIdle^0,c
  3584   0023E6  2A0D               	incf	??_i2c_waitForIdle^0,f,c
  3585   0023E8  EFF7  F011         	goto	u3018
  3586   0023EC                     u3010:
  3587   0023EC  6A0D               	clrf	??_i2c_waitForIdle^0,c
  3588   0023EE                     u3018:
  3589   0023EE  50C5               	movf	197,w,c	;volatile
  3590   0023F0  0B1F               	andlw	31
  3591   0023F2  100D               	iorwf	??_i2c_waitForIdle^0,w,c
  3592   0023F4  0900               	iorlw	0
  3593   0023F6  A4D8               	btfss	status,2,c
  3594   0023F8  EF00  F012         	goto	u3021
  3595   0023FC  EF02  F012         	goto	u3020
  3596   002400                     u3021:
  3597   002400  EFED  F011         	goto	l3496
  3598   002404                     u3020:
  3599   002404  0012               	return		;funcret
  3600   002406                     __end_of_i2c_waitForIdle:
  3601                           	callstack 0
  3602                           
  3603 ;; *************** function _i2c_start *****************
  3604 ;; Defined at:
  3605 ;;		line 47 in file "i2c.c"
  3606 ;; Parameters:    Size  Location     Type
  3607 ;;		None
  3608 ;; Auto vars:     Size  Location     Type
  3609 ;;		None
  3610 ;; Return value:  Size  Location     Type
  3611 ;;                  1    wreg      void 
  3612 ;; Registers used:
  3613 ;;		None
  3614 ;; Tracked objects:
  3615 ;;		On entry : 0/0
  3616 ;;		On exit  : 0/0
  3617 ;;		Unchanged: 0/0
  3618 ;; Data sizes:     COMRAM   BANK0   BANK1   BANK2   BANK3   BANK4   BANK5
  3619 ;;      Params:         0       0       0       0       0       0       0
  3620 ;;      Locals:         0       0       0       0       0       0       0
  3621 ;;      Temps:          0       0       0       0       0       0       0
  3622 ;;      Totals:         0       0       0       0       0       0       0
  3623 ;;Total ram usage:        0 bytes
  3624 ;; Hardware stack levels used: 1
  3625 ;; Hardware stack levels required when called: 3
  3626 ;; This function calls:
  3627 ;;		Nothing
  3628 ;; This function is called by:
  3629 ;;		_I2C_Write_Register
  3630 ;;		_BME280_Init
  3631 ;;		_BME280_Read_Compensation_Params
  3632 ;;		_BME280_Read_Temperature
  3633 ;;		_main
  3634 ;;		_I2C_Scan
  3635 ;; This function uses a non-reentrant model
  3636 ;;
  3637                           
  3638                           	psect	text22
  3639   0024F0                     __ptext22:
  3640                           	callstack 0
  3641   0024F0                     _i2c_start:
  3642                           	callstack 27
  3643   0024F0                     
  3644                           ;i2c.c: 49:     PIR1bits.SSP1IF = 0;
  3645   0024F0  969E               	bcf	158,3,c	;volatile
  3646                           
  3647                           ;i2c.c: 50:     SSP1CON2bits.SEN = 1;
  3648   0024F2  80C5               	bsf	197,0,c	;volatile
  3649   0024F4                     l255:
  3650   0024F4  A69E               	btfss	158,3,c	;volatile
  3651   0024F6  EF7F  F012         	goto	u3481
  3652   0024FA  EF81  F012         	goto	u3480
  3653   0024FE                     u3481:
  3654   0024FE  EF7A  F012         	goto	l255
  3655   002502                     u3480:
  3656   002502  0012               	return		;funcret
  3657   002504                     __end_of_i2c_start:
  3658                           	callstack 0
  3659                           
  3660 ;; *************** function _BME280_Compensate_Temperature *****************
  3661 ;; Defined at:
  3662 ;;		line 223 in file "main.c"
  3663 ;; Parameters:    Size  Location     Type
  3664 ;;  adc_T           4    8[BANK0 ] long 
  3665 ;; Auto vars:     Size  Location     Type
  3666 ;;  var2            4   28[BANK0 ] long 
  3667 ;;  var1            4   24[BANK0 ] long 
  3668 ;;  temperature     4   16[BANK0 ] long 
  3669 ;;  t_fine          4    0        long 
  3670 ;;  temperature_    4   12[BANK0 ] long 
  3671 ;;  temperature_    4    0        long 
  3672 ;; Return value:  Size  Location     Type
  3673 ;;                  4    8[BANK0 ] long 
  3674 ;; Registers used:
  3675 ;;		wreg, fsr2l, fsr2h, status,2, status,0, prodl, prodh, cstack
  3676 ;; Tracked objects:
  3677 ;;		On entry : 0/0
  3678 ;;		On exit  : 0/0
  3679 ;;		Unchanged: 0/0
  3680 ;; Data sizes:     COMRAM   BANK0   BANK1   BANK2   BANK3   BANK4   BANK5
  3681 ;;      Params:         0       4       0       0       0       0       0
  3682 ;;      Locals:         0      20       0       0       0       0       0
  3683 ;;      Temps:          0       0       0       0       0       0       0
  3684 ;;      Totals:         0      24       0       0       0       0       0
  3685 ;;Total ram usage:       24 bytes
  3686 ;; Hardware stack levels used: 1
  3687 ;; Hardware stack levels required when called: 5
  3688 ;; This function calls:
  3689 ;;		___fladd
  3690 ;;		___fldiv
  3691 ;;		___flmul
  3692 ;;		___flsub
  3693 ;;		___fltol
  3694 ;;		___xxtofl
  3695 ;; This function is called by:
  3696 ;;		_main
  3697 ;; This function uses a non-reentrant model
  3698 ;;
  3699                           
  3700                           	psect	text23
  3701   0017E8                     __ptext23:
  3702                           	callstack 0
  3703   0017E8                     _BME280_Compensate_Temperature:
  3704                           	callstack 25
  3705   0017E8                     
  3706                           ;main.c: 253:     double temperature_max = 85;double t_fine;
  3707   0017E8  0E00               	movlw	0
  3708   0017EA  0100               	movlb	0	; () banked
  3709   0017EC  6FC8               	movwf	BME280_Compensate_Temperature@temperature_max& (0+255),b
  3710   0017EE  0E00               	movlw	0
  3711   0017F0  6FC9               	movwf	(BME280_Compensate_Temperature@temperature_max+1)& (0+255),b
  3712   0017F2  0EAA               	movlw	170
  3713   0017F4  6FCA               	movwf	(BME280_Compensate_Temperature@temperature_max+2)& (0+255),b
  3714   0017F6  0E42               	movlw	66
  3715   0017F8  6FCB               	movwf	(BME280_Compensate_Temperature@temperature_max+3)& (0+255),b
  3716   0017FA                     
  3717                           ; BSR set to: 0
  3718                           ;main.c: 255:     var1 = (((double)adc_T) / 16384.0 - ((double)compParams.dig_T1) / 1024
      +                          .0);
  3719   0017FA  0E00               	movlw	0
  3720   0017FC  6E2F               	movwf	___fldiv@a^0,c
  3721   0017FE  0E00               	movlw	0
  3722   001800  6E30               	movwf	(___fldiv@a+1)^0,c
  3723   001802  0E80               	movlw	128
  3724   001804  6E31               	movwf	(___fldiv@a+2)^0,c
  3725   001806  0E46               	movlw	70
  3726   001808  6E32               	movwf	(___fldiv@a+3)^0,c
  3727   00180A  C0C4  F01D         	movff	BME280_Compensate_Temperature@adc_T,___xxtofl@val
  3728   00180E  C0C5  F01E         	movff	BME280_Compensate_Temperature@adc_T+1,___xxtofl@val+1
  3729   001812  C0C6  F01F         	movff	BME280_Compensate_Temperature@adc_T+2,___xxtofl@val+2
  3730   001816  C0C7  F020         	movff	BME280_Compensate_Temperature@adc_T+3,___xxtofl@val+3
  3731   00181A  0E01               	movlw	1
  3732   00181C  EC67  F00D         	call	___xxtofl
  3733   001820  C01D  F02B         	movff	?___xxtofl,___fldiv@b
  3734   001824  C01E  F02C         	movff	?___xxtofl+1,___fldiv@b+1
  3735   001828  C01F  F02D         	movff	?___xxtofl+2,___fldiv@b+2
  3736   00182C  C020  F02E         	movff	?___xxtofl+3,___fldiv@b+3
  3737   001830  EC27  F00A         	call	___fldiv	;wreg free
  3738   001834  C02B  F0BC         	movff	?___fldiv,___flsub@b
  3739   001838  C02C  F0BD         	movff	?___fldiv+1,___flsub@b+1
  3740   00183C  C02D  F0BE         	movff	?___fldiv+2,___flsub@b+2
  3741   001840  C02E  F0BF         	movff	?___fldiv+3,___flsub@b+3
  3742   001844  0E00               	movlw	0
  3743   001846  6E2F               	movwf	___fldiv@a^0,c
  3744   001848  0E00               	movlw	0
  3745   00184A  6E30               	movwf	(___fldiv@a+1)^0,c
  3746   00184C  0E80               	movlw	128
  3747   00184E  6E31               	movwf	(___fldiv@a+2)^0,c
  3748   001850  0E44               	movlw	68
  3749   001852  6E32               	movwf	(___fldiv@a+3)^0,c
  3750   001854  C060  F01D         	movff	_compParams,___xxtofl@val
  3751   001858  C061  F01E         	movff	_compParams+1,___xxtofl@val+1
  3752   00185C  6A1F               	clrf	(___xxtofl@val+2)^0,c
  3753   00185E  6A20               	clrf	(___xxtofl@val+3)^0,c
  3754   001860  0E00               	movlw	0
  3755   001862  EC67  F00D         	call	___xxtofl
  3756   001866  C01D  F02B         	movff	?___xxtofl,___fldiv@b
  3757   00186A  C01E  F02C         	movff	?___xxtofl+1,___fldiv@b+1
  3758   00186E  C01F  F02D         	movff	?___xxtofl+2,___fldiv@b+2
  3759   001872  C020  F02E         	movff	?___xxtofl+3,___fldiv@b+3
  3760   001876  EC27  F00A         	call	___fldiv	;wreg free
  3761   00187A  C02B  F0C0         	movff	?___fldiv,___flsub@a
  3762   00187E  C02C  F0C1         	movff	?___fldiv+1,___flsub@a+1
  3763   001882  C02D  F0C2         	movff	?___fldiv+2,___flsub@a+2
  3764   001886  C02E  F0C3         	movff	?___fldiv+3,___flsub@a+3
  3765   00188A  EC5B  F011         	call	___flsub	;wreg free
  3766   00188E  C0BC  F0D4         	movff	?___flsub,BME280_Compensate_Temperature@var1
  3767   001892  C0BD  F0D5         	movff	?___flsub+1,BME280_Compensate_Temperature@var1+1
  3768   001896  C0BE  F0D6         	movff	?___flsub+2,BME280_Compensate_Temperature@var1+2
  3769   00189A  C0BF  F0D7         	movff	?___flsub+3,BME280_Compensate_Temperature@var1+3
  3770   00189E                     
  3771                           ;main.c: 256:     var1 = var1 * ((double)compParams.dig_T2);
  3772   00189E  EE20  F062         	lfsr	2,_compParams+2
  3773   0018A2  CFDE F01D          	movff	postinc2,___xxtofl@val
  3774   0018A6  CFDD F01E          	movff	postdec2,___xxtofl@val+1
  3775   0018AA  0E00               	movlw	0
  3776   0018AC  BE1E               	btfsc	(___xxtofl@val+1)^0,7,c
  3777   0018AE  0EFF               	movlw	-1
  3778   0018B0  6E1F               	movwf	(___xxtofl@val+2)^0,c
  3779   0018B2  6E20               	movwf	(___xxtofl@val+3)^0,c
  3780   0018B4  0E01               	movlw	1
  3781   0018B6  EC67  F00D         	call	___xxtofl
  3782   0018BA  C01D  F02B         	movff	?___xxtofl,___flmul@b
  3783   0018BE  C01E  F02C         	movff	?___xxtofl+1,___flmul@b+1
  3784   0018C2  C01F  F02D         	movff	?___xxtofl+2,___flmul@b+2
  3785   0018C6  C020  F02E         	movff	?___xxtofl+3,___flmul@b+3
  3786   0018CA  C0D4  F02F         	movff	BME280_Compensate_Temperature@var1,___flmul@a
  3787   0018CE  C0D5  F030         	movff	BME280_Compensate_Temperature@var1+1,___flmul@a+1
  3788   0018D2  C0D6  F031         	movff	BME280_Compensate_Temperature@var1+2,___flmul@a+2
  3789   0018D6  C0D7  F032         	movff	BME280_Compensate_Temperature@var1+3,___flmul@a+3
  3790   0018DA  EC12  F008         	call	___flmul	;wreg free
  3791   0018DE  C02B  F0D4         	movff	?___flmul,BME280_Compensate_Temperature@var1
  3792   0018E2  C02C  F0D5         	movff	?___flmul+1,BME280_Compensate_Temperature@var1+1
  3793   0018E6  C02D  F0D6         	movff	?___flmul+2,BME280_Compensate_Temperature@var1+2
  3794   0018EA  C02E  F0D7         	movff	?___flmul+3,BME280_Compensate_Temperature@var1+3
  3795   0018EE                     
  3796                           ;main.c: 257:     var2 = (((double)adc_T) / 131072.0 - ((double)compParams.dig_T1) / 819
      +                          2.0);
  3797   0018EE  0E00               	movlw	0
  3798   0018F0  6E2F               	movwf	___fldiv@a^0,c
  3799   0018F2  0E00               	movlw	0
  3800   0018F4  6E30               	movwf	(___fldiv@a+1)^0,c
  3801   0018F6  0E00               	movlw	0
  3802   0018F8  6E31               	movwf	(___fldiv@a+2)^0,c
  3803   0018FA  0E48               	movlw	72
  3804   0018FC  6E32               	movwf	(___fldiv@a+3)^0,c
  3805   0018FE  C0C4  F01D         	movff	BME280_Compensate_Temperature@adc_T,___xxtofl@val
  3806   001902  C0C5  F01E         	movff	BME280_Compensate_Temperature@adc_T+1,___xxtofl@val+1
  3807   001906  C0C6  F01F         	movff	BME280_Compensate_Temperature@adc_T+2,___xxtofl@val+2
  3808   00190A  C0C7  F020         	movff	BME280_Compensate_Temperature@adc_T+3,___xxtofl@val+3
  3809   00190E  0E01               	movlw	1
  3810   001910  EC67  F00D         	call	___xxtofl
  3811   001914  C01D  F02B         	movff	?___xxtofl,___fldiv@b
  3812   001918  C01E  F02C         	movff	?___xxtofl+1,___fldiv@b+1
  3813   00191C  C01F  F02D         	movff	?___xxtofl+2,___fldiv@b+2
  3814   001920  C020  F02E         	movff	?___xxtofl+3,___fldiv@b+3
  3815   001924  EC27  F00A         	call	___fldiv	;wreg free
  3816   001928  C02B  F0BC         	movff	?___fldiv,___flsub@b
  3817   00192C  C02C  F0BD         	movff	?___fldiv+1,___flsub@b+1
  3818   001930  C02D  F0BE         	movff	?___fldiv+2,___flsub@b+2
  3819   001934  C02E  F0BF         	movff	?___fldiv+3,___flsub@b+3
  3820   001938  0E00               	movlw	0
  3821   00193A  6E2F               	movwf	___fldiv@a^0,c
  3822   00193C  0E00               	movlw	0
  3823   00193E  6E30               	movwf	(___fldiv@a+1)^0,c
  3824   001940  0E00               	movlw	0
  3825   001942  6E31               	movwf	(___fldiv@a+2)^0,c
  3826   001944  0E46               	movlw	70
  3827   001946  6E32               	movwf	(___fldiv@a+3)^0,c
  3828   001948  C060  F01D         	movff	_compParams,___xxtofl@val
  3829   00194C  C061  F01E         	movff	_compParams+1,___xxtofl@val+1
  3830   001950  6A1F               	clrf	(___xxtofl@val+2)^0,c
  3831   001952  6A20               	clrf	(___xxtofl@val+3)^0,c
  3832   001954  0E00               	movlw	0
  3833   001956  EC67  F00D         	call	___xxtofl
  3834   00195A  C01D  F02B         	movff	?___xxtofl,___fldiv@b
  3835   00195E  C01E  F02C         	movff	?___xxtofl+1,___fldiv@b+1
  3836   001962  C01F  F02D         	movff	?___xxtofl+2,___fldiv@b+2
  3837   001966  C020  F02E         	movff	?___xxtofl+3,___fldiv@b+3
  3838   00196A  EC27  F00A         	call	___fldiv	;wreg free
  3839   00196E  C02B  F0C0         	movff	?___fldiv,___flsub@a
  3840   001972  C02C  F0C1         	movff	?___fldiv+1,___flsub@a+1
  3841   001976  C02D  F0C2         	movff	?___fldiv+2,___flsub@a+2
  3842   00197A  C02E  F0C3         	movff	?___fldiv+3,___flsub@a+3
  3843   00197E  EC5B  F011         	call	___flsub	;wreg free
  3844   001982  C0BC  F0D8         	movff	?___flsub,BME280_Compensate_Temperature@var2
  3845   001986  C0BD  F0D9         	movff	?___flsub+1,BME280_Compensate_Temperature@var2+1
  3846   00198A  C0BE  F0DA         	movff	?___flsub+2,BME280_Compensate_Temperature@var2+2
  3847   00198E  C0BF  F0DB         	movff	?___flsub+3,BME280_Compensate_Temperature@var2+3
  3848   001992                     
  3849                           ;main.c: 258:     var2 = (var2 * var2) * ((double)compParams.dig_T3);
  3850   001992  C0D8  F02F         	movff	BME280_Compensate_Temperature@var2,___flmul@a
  3851   001996  C0D9  F030         	movff	BME280_Compensate_Temperature@var2+1,___flmul@a+1
  3852   00199A  C0DA  F031         	movff	BME280_Compensate_Temperature@var2+2,___flmul@a+2
  3853   00199E  C0DB  F032         	movff	BME280_Compensate_Temperature@var2+3,___flmul@a+3
  3854   0019A2  C0D8  F02B         	movff	BME280_Compensate_Temperature@var2,___flmul@b
  3855   0019A6  C0D9  F02C         	movff	BME280_Compensate_Temperature@var2+1,___flmul@b+1
  3856   0019AA  C0DA  F02D         	movff	BME280_Compensate_Temperature@var2+2,___flmul@b+2
  3857   0019AE  C0DB  F02E         	movff	BME280_Compensate_Temperature@var2+3,___flmul@b+3
  3858   0019B2  EC12  F008         	call	___flmul	;wreg free
  3859   0019B6  C02B  F0D0         	movff	?___flmul,_BME280_Compensate_Temperature$2196
  3860   0019BA  C02C  F0D1         	movff	?___flmul+1,_BME280_Compensate_Temperature$2196+1
  3861   0019BE  C02D  F0D2         	movff	?___flmul+2,_BME280_Compensate_Temperature$2196+2
  3862   0019C2  C02E  F0D3         	movff	?___flmul+3,_BME280_Compensate_Temperature$2196+3
  3863   0019C6                     
  3864                           ;main.c: 258:     var2 = (var2 * var2) * ((double)compParams.dig_T3);
  3865   0019C6  C0D0  F02B         	movff	_BME280_Compensate_Temperature$2196,___flmul@b
  3866   0019CA  C0D1  F02C         	movff	_BME280_Compensate_Temperature$2196+1,___flmul@b+1
  3867   0019CE  C0D2  F02D         	movff	_BME280_Compensate_Temperature$2196+2,___flmul@b+2
  3868   0019D2  C0D3  F02E         	movff	_BME280_Compensate_Temperature$2196+3,___flmul@b+3
  3869   0019D6  EE20  F064         	lfsr	2,_compParams+4
  3870   0019DA  CFDE F01D          	movff	postinc2,___xxtofl@val
  3871   0019DE  CFDD F01E          	movff	postdec2,___xxtofl@val+1
  3872   0019E2  0E00               	movlw	0
  3873   0019E4  BE1E               	btfsc	(___xxtofl@val+1)^0,7,c
  3874   0019E6  0EFF               	movlw	-1
  3875   0019E8  6E1F               	movwf	(___xxtofl@val+2)^0,c
  3876   0019EA  6E20               	movwf	(___xxtofl@val+3)^0,c
  3877   0019EC  0E01               	movlw	1
  3878   0019EE  EC67  F00D         	call	___xxtofl
  3879   0019F2  C01D  F02F         	movff	?___xxtofl,___flmul@a
  3880   0019F6  C01E  F030         	movff	?___xxtofl+1,___flmul@a+1
  3881   0019FA  C01F  F031         	movff	?___xxtofl+2,___flmul@a+2
  3882   0019FE  C020  F032         	movff	?___xxtofl+3,___flmul@a+3
  3883   001A02  EC12  F008         	call	___flmul	;wreg free
  3884   001A06  C02B  F0D8         	movff	?___flmul,BME280_Compensate_Temperature@var2
  3885   001A0A  C02C  F0D9         	movff	?___flmul+1,BME280_Compensate_Temperature@var2+1
  3886   001A0E  C02D  F0DA         	movff	?___flmul+2,BME280_Compensate_Temperature@var2+2
  3887   001A12  C02E  F0DB         	movff	?___flmul+3,BME280_Compensate_Temperature@var2+3
  3888   001A16  C0D8  F011         	movff	BME280_Compensate_Temperature@var2,___fladd@a
  3889   001A1A  C0D9  F012         	movff	BME280_Compensate_Temperature@var2+1,___fladd@a+1
  3890   001A1E  C0DA  F013         	movff	BME280_Compensate_Temperature@var2+2,___fladd@a+2
  3891   001A22  C0DB  F014         	movff	BME280_Compensate_Temperature@var2+3,___fladd@a+3
  3892   001A26  C0D4  F00D         	movff	BME280_Compensate_Temperature@var1,___fladd@b
  3893   001A2A  C0D5  F00E         	movff	BME280_Compensate_Temperature@var1+1,___fladd@b+1
  3894   001A2E  C0D6  F00F         	movff	BME280_Compensate_Temperature@var1+2,___fladd@b+2
  3895   001A32  C0D7  F010         	movff	BME280_Compensate_Temperature@var1+3,___fladd@b+3
  3896   001A36  EC6C  F003         	call	___fladd	;wreg free
  3897   001A3A  C00D  F044         	movff	?___fladd,___fltol@f1
  3898   001A3E  C00E  F045         	movff	?___fladd+1,___fltol@f1+1
  3899   001A42  C00F  F046         	movff	?___fladd+2,___fltol@f1+2
  3900   001A46  C010  F047         	movff	?___fladd+3,___fltol@f1+3
  3901   001A4A  ECF8  F00E         	call	___fltol	;wreg free
  3902   001A4E  C044  F01D         	movff	?___fltol,___xxtofl@val
  3903   001A52  C045  F01E         	movff	?___fltol+1,___xxtofl@val+1
  3904   001A56  C046  F01F         	movff	?___fltol+2,___xxtofl@val+2
  3905   001A5A  C047  F020         	movff	?___fltol+3,___xxtofl@val+3
  3906   001A5E  0E01               	movlw	1
  3907   001A60  EC67  F00D         	call	___xxtofl
  3908   001A64                     
  3909                           ;main.c: 260:     temperature = (var1 + var2) / 5120.0;
  3910   001A64  C0D8  F011         	movff	BME280_Compensate_Temperature@var2,___fladd@a
  3911   001A68  C0D9  F012         	movff	BME280_Compensate_Temperature@var2+1,___fladd@a+1
  3912   001A6C  C0DA  F013         	movff	BME280_Compensate_Temperature@var2+2,___fladd@a+2
  3913   001A70  C0DB  F014         	movff	BME280_Compensate_Temperature@var2+3,___fladd@a+3
  3914   001A74  C0D4  F00D         	movff	BME280_Compensate_Temperature@var1,___fladd@b
  3915   001A78  C0D5  F00E         	movff	BME280_Compensate_Temperature@var1+1,___fladd@b+1
  3916   001A7C  C0D6  F00F         	movff	BME280_Compensate_Temperature@var1+2,___fladd@b+2
  3917   001A80  C0D7  F010         	movff	BME280_Compensate_Temperature@var1+3,___fladd@b+3
  3918   001A84  EC6C  F003         	call	___fladd	;wreg free
  3919   001A88  C00D  F02B         	movff	?___fladd,___fldiv@b
  3920   001A8C  C00E  F02C         	movff	?___fladd+1,___fldiv@b+1
  3921   001A90  C00F  F02D         	movff	?___fladd+2,___fldiv@b+2
  3922   001A94  C010  F02E         	movff	?___fladd+3,___fldiv@b+3
  3923   001A98  0E00               	movlw	0
  3924   001A9A  6E2F               	movwf	___fldiv@a^0,c
  3925   001A9C  0E00               	movlw	0
  3926   001A9E  6E30               	movwf	(___fldiv@a+1)^0,c
  3927   001AA0  0EA0               	movlw	160
  3928   001AA2  6E31               	movwf	(___fldiv@a+2)^0,c
  3929   001AA4  0E45               	movlw	69
  3930   001AA6  6E32               	movwf	(___fldiv@a+3)^0,c
  3931   001AA8  EC27  F00A         	call	___fldiv	;wreg free
  3932   001AAC  C02B  F0CC         	movff	?___fldiv,BME280_Compensate_Temperature@temperature
  3933   001AB0  C02C  F0CD         	movff	?___fldiv+1,BME280_Compensate_Temperature@temperature+1
  3934   001AB4  C02D  F0CE         	movff	?___fldiv+2,BME280_Compensate_Temperature@temperature+2
  3935   001AB8  C02E  F0CF         	movff	?___fldiv+3,BME280_Compensate_Temperature@temperature+3
  3936   001ABC                     
  3937                           ;main.c: 271:     return temperature;
  3938   001ABC  C0CC  F0C4         	movff	BME280_Compensate_Temperature@temperature,?_BME280_Compensate_Temperature
  3939   001AC0  C0CD  F0C5         	movff	BME280_Compensate_Temperature@temperature+1,?_BME280_Compensate_Temperature+1
  3940   001AC4  C0CE  F0C6         	movff	BME280_Compensate_Temperature@temperature+2,?_BME280_Compensate_Temperature+2
  3941   001AC8  C0CF  F0C7         	movff	BME280_Compensate_Temperature@temperature+3,?_BME280_Compensate_Temperature+3
  3942   001ACC  0012               	return		;funcret
  3943   001ACE                     __end_of_BME280_Compensate_Temperature:
  3944                           	callstack 0
  3945                           
  3946 ;; *************** function ___xxtofl *****************
  3947 ;; Defined at:
  3948 ;;		line 10 in file "/opt/microchip/xc8/v2.46/pic/sources/c99/common/xxtofl.c"
  3949 ;; Parameters:    Size  Location     Type
  3950 ;;  sign            1    wreg     unsigned char 
  3951 ;;  val             4   28[COMRAM] long 
  3952 ;; Auto vars:     Size  Location     Type
  3953 ;;  sign            1   36[COMRAM] unsigned char 
  3954 ;;  arg             4   38[COMRAM] unsigned long 
  3955 ;;  exp             1   37[COMRAM] unsigned char 
  3956 ;; Return value:  Size  Location     Type
  3957 ;;                  4   28[COMRAM] unsigned char 
  3958 ;; Registers used:
  3959 ;;		wreg, status,2, status,0
  3960 ;; Tracked objects:
  3961 ;;		On entry : 0/0
  3962 ;;		On exit  : 0/0
  3963 ;;		Unchanged: 0/0
  3964 ;; Data sizes:     COMRAM   BANK0   BANK1   BANK2   BANK3   BANK4   BANK5
  3965 ;;      Params:         4       0       0       0       0       0       0
  3966 ;;      Locals:         6       0       0       0       0       0       0
  3967 ;;      Temps:          4       0       0       0       0       0       0
  3968 ;;      Totals:        14       0       0       0       0       0       0
  3969 ;;Total ram usage:       14 bytes
  3970 ;; Hardware stack levels used: 1
  3971 ;; Hardware stack levels required when called: 3
  3972 ;; This function calls:
  3973 ;;		Nothing
  3974 ;; This function is called by:
  3975 ;;		_BME280_Compensate_Temperature
  3976 ;; This function uses a non-reentrant model
  3977 ;;
  3978                           
  3979                           	psect	text24
  3980   001ACE                     __ptext24:
  3981                           	callstack 0
  3982   001ACE                     ___xxtofl:
  3983                           	callstack 26
  3984                           
  3985                           ;incstack = 0
  3986                           ;___xxtofl@sign stored from wreg
  3987   001ACE  6E25               	movwf	___xxtofl@sign^0,c
  3988   001AD0  5025               	movf	___xxtofl@sign^0,w,c
  3989   001AD2  B4D8               	btfsc	status,2,c
  3990   001AD4  EF6E  F00D         	goto	u4041
  3991   001AD8  EF70  F00D         	goto	u4040
  3992   001ADC                     u4041:
  3993   001ADC  EF92  F00D         	goto	l952
  3994   001AE0                     u4040:
  3995   001AE0  BE20               	btfsc	(___xxtofl@val+3)^0,7,c
  3996   001AE2  EF77  F00D         	goto	u4050
  3997   001AE6  EF75  F00D         	goto	u4051
  3998   001AEA                     u4051:
  3999   001AEA  EF92  F00D         	goto	l952
  4000   001AEE                     u4050:
  4001   001AEE  C01D  F021         	movff	___xxtofl@val,??___xxtofl
  4002   001AF2  C01E  F022         	movff	___xxtofl@val+1,??___xxtofl+1
  4003   001AF6  C01F  F023         	movff	___xxtofl@val+2,??___xxtofl+2
  4004   001AFA  C020  F024         	movff	___xxtofl@val+3,??___xxtofl+3
  4005   001AFE  1E21               	comf	??___xxtofl^0,f,c
  4006   001B00  1E22               	comf	(??___xxtofl+1)^0,f,c
  4007   001B02  1E23               	comf	(??___xxtofl+2)^0,f,c
  4008   001B04  1E24               	comf	(??___xxtofl+3)^0,f,c
  4009   001B06  2A21               	incf	??___xxtofl^0,f,c
  4010   001B08  0E00               	movlw	0
  4011   001B0A  2222               	addwfc	(??___xxtofl+1)^0,f,c
  4012   001B0C  2223               	addwfc	(??___xxtofl+2)^0,f,c
  4013   001B0E  2224               	addwfc	(??___xxtofl+3)^0,f,c
  4014   001B10  C021  F027         	movff	??___xxtofl,___xxtofl@arg
  4015   001B14  C022  F028         	movff	??___xxtofl+1,___xxtofl@arg+1
  4016   001B18  C023  F029         	movff	??___xxtofl+2,___xxtofl@arg+2
  4017   001B1C  C024  F02A         	movff	??___xxtofl+3,___xxtofl@arg+3
  4018   001B20  EF9A  F00D         	goto	l4112
  4019   001B24                     l952:
  4020   001B24  C01D  F027         	movff	___xxtofl@val,___xxtofl@arg
  4021   001B28  C01E  F028         	movff	___xxtofl@val+1,___xxtofl@arg+1
  4022   001B2C  C01F  F029         	movff	___xxtofl@val+2,___xxtofl@arg+2
  4023   001B30  C020  F02A         	movff	___xxtofl@val+3,___xxtofl@arg+3
  4024   001B34                     l4112:
  4025   001B34  501D               	movf	___xxtofl@val^0,w,c
  4026   001B36  101E               	iorwf	(___xxtofl@val+1)^0,w,c
  4027   001B38  101F               	iorwf	(___xxtofl@val+2)^0,w,c
  4028   001B3A  1020               	iorwf	(___xxtofl@val+3)^0,w,c
  4029   001B3C  A4D8               	btfss	status,2,c
  4030   001B3E  EFA3  F00D         	goto	u4061
  4031   001B42  EFA5  F00D         	goto	u4060
  4032   001B46                     u4061:
  4033   001B46  EFAF  F00D         	goto	l4118
  4034   001B4A                     u4060:
  4035   001B4A  0E00               	movlw	0
  4036   001B4C  6E1D               	movwf	?___xxtofl^0,c
  4037   001B4E  0E00               	movlw	0
  4038   001B50  6E1E               	movwf	(?___xxtofl+1)^0,c
  4039   001B52  0E00               	movlw	0
  4040   001B54  6E1F               	movwf	(?___xxtofl+2)^0,c
  4041   001B56  0E00               	movlw	0
  4042   001B58  6E20               	movwf	(?___xxtofl+3)^0,c
  4043   001B5A  EF40  F00E         	goto	l955
  4044   001B5E                     l4118:
  4045   001B5E  0E96               	movlw	150
  4046   001B60  6E26               	movwf	___xxtofl@exp^0,c
  4047   001B62  EFB9  F00D         	goto	l4122
  4048   001B66                     l4120:
  4049   001B66  2A26               	incf	___xxtofl@exp^0,f,c
  4050   001B68  90D8               	bcf	status,0,c
  4051   001B6A  322A               	rrcf	(___xxtofl@arg+3)^0,f,c
  4052   001B6C  3229               	rrcf	(___xxtofl@arg+2)^0,f,c
  4053   001B6E  3228               	rrcf	(___xxtofl@arg+1)^0,f,c
  4054   001B70  3227               	rrcf	___xxtofl@arg^0,f,c
  4055   001B72                     l4122:
  4056   001B72  0E00               	movlw	0
  4057   001B74  1427               	andwf	___xxtofl@arg^0,w,c
  4058   001B76  6E21               	movwf	??___xxtofl^0,c
  4059   001B78  0E00               	movlw	0
  4060   001B7A  1428               	andwf	(___xxtofl@arg+1)^0,w,c
  4061   001B7C  6E22               	movwf	(??___xxtofl+1)^0,c
  4062   001B7E  0E00               	movlw	0
  4063   001B80  1429               	andwf	(___xxtofl@arg+2)^0,w,c
  4064   001B82  6E23               	movwf	(??___xxtofl+2)^0,c
  4065   001B84  0EFE               	movlw	254
  4066   001B86  142A               	andwf	(___xxtofl@arg+3)^0,w,c
  4067   001B88  6E24               	movwf	(??___xxtofl+3)^0,c
  4068   001B8A  5021               	movf	??___xxtofl^0,w,c
  4069   001B8C  1022               	iorwf	(??___xxtofl+1)^0,w,c
  4070   001B8E  1023               	iorwf	(??___xxtofl+2)^0,w,c
  4071   001B90  1024               	iorwf	(??___xxtofl+3)^0,w,c
  4072   001B92  A4D8               	btfss	status,2,c
  4073   001B94  EFCE  F00D         	goto	u4071
  4074   001B98  EFD0  F00D         	goto	u4070
  4075   001B9C                     u4071:
  4076   001B9C  EFB3  F00D         	goto	l4120
  4077   001BA0                     u4070:
  4078   001BA0  EFDE  F00D         	goto	l959
  4079   001BA4                     l4124:
  4080   001BA4  2A26               	incf	___xxtofl@exp^0,f,c
  4081   001BA6  0E01               	movlw	1
  4082   001BA8  2627               	addwf	___xxtofl@arg^0,f,c
  4083   001BAA  0E00               	movlw	0
  4084   001BAC  2228               	addwfc	(___xxtofl@arg+1)^0,f,c
  4085   001BAE  2229               	addwfc	(___xxtofl@arg+2)^0,f,c
  4086   001BB0  222A               	addwfc	(___xxtofl@arg+3)^0,f,c
  4087   001BB2  90D8               	bcf	status,0,c
  4088   001BB4  322A               	rrcf	(___xxtofl@arg+3)^0,f,c
  4089   001BB6  3229               	rrcf	(___xxtofl@arg+2)^0,f,c
  4090   001BB8  3228               	rrcf	(___xxtofl@arg+1)^0,f,c
  4091   001BBA  3227               	rrcf	___xxtofl@arg^0,f,c
  4092   001BBC                     l959:
  4093   001BBC  0E00               	movlw	0
  4094   001BBE  1427               	andwf	___xxtofl@arg^0,w,c
  4095   001BC0  6E21               	movwf	??___xxtofl^0,c
  4096   001BC2  0E00               	movlw	0
  4097   001BC4  1428               	andwf	(___xxtofl@arg+1)^0,w,c
  4098   001BC6  6E22               	movwf	(??___xxtofl+1)^0,c
  4099   001BC8  0E00               	movlw	0
  4100   001BCA  1429               	andwf	(___xxtofl@arg+2)^0,w,c
  4101   001BCC  6E23               	movwf	(??___xxtofl+2)^0,c
  4102   001BCE  0EFF               	movlw	255
  4103   001BD0  142A               	andwf	(___xxtofl@arg+3)^0,w,c
  4104   001BD2  6E24               	movwf	(??___xxtofl+3)^0,c
  4105   001BD4  5021               	movf	??___xxtofl^0,w,c
  4106   001BD6  1022               	iorwf	(??___xxtofl+1)^0,w,c
  4107   001BD8  1023               	iorwf	(??___xxtofl+2)^0,w,c
  4108   001BDA  1024               	iorwf	(??___xxtofl+3)^0,w,c
  4109   001BDC  A4D8               	btfss	status,2,c
  4110   001BDE  EFF3  F00D         	goto	u4081
  4111   001BE2  EFF5  F00D         	goto	u4080
  4112   001BE6                     u4081:
  4113   001BE6  EFD2  F00D         	goto	l4124
  4114   001BEA                     u4080:
  4115   001BEA  EFFD  F00D         	goto	l4132
  4116   001BEE                     l4130:
  4117   001BEE  0626               	decf	___xxtofl@exp^0,f,c
  4118   001BF0  90D8               	bcf	status,0,c
  4119   001BF2  3627               	rlcf	___xxtofl@arg^0,f,c
  4120   001BF4  3628               	rlcf	(___xxtofl@arg+1)^0,f,c
  4121   001BF6  3629               	rlcf	(___xxtofl@arg+2)^0,f,c
  4122   001BF8  362A               	rlcf	(___xxtofl@arg+3)^0,f,c
  4123   001BFA                     l4132:
  4124   001BFA  BE29               	btfsc	(___xxtofl@arg+2)^0,7,c
  4125   001BFC  EF02  F00E         	goto	u4091
  4126   001C00  EF04  F00E         	goto	u4090
  4127   001C04                     u4091:
  4128   001C04  EF0C  F00E         	goto	l966
  4129   001C08                     u4090:
  4130   001C08  0E02               	movlw	2
  4131   001C0A  6026               	cpfslt	___xxtofl@exp^0,c
  4132   001C0C  EF0A  F00E         	goto	u4101
  4133   001C10  EF0C  F00E         	goto	u4100
  4134   001C14                     u4101:
  4135   001C14  EFF7  F00D         	goto	l4130
  4136   001C18                     u4100:
  4137   001C18                     l966:
  4138   001C18  B026               	btfsc	___xxtofl@exp^0,0,c
  4139   001C1A  EF11  F00E         	goto	u4111
  4140   001C1E  EF13  F00E         	goto	u4110
  4141   001C22                     u4111:
  4142   001C22  EF14  F00E         	goto	l4138
  4143   001C26                     u4110:
  4144   001C26  9E29               	bcf	(___xxtofl@arg+2)^0,7,c
  4145   001C28                     l4138:
  4146   001C28  90D8               	bcf	status,0,c
  4147   001C2A  3226               	rrcf	___xxtofl@exp^0,f,c
  4148   001C2C  C026  F021         	movff	___xxtofl@exp,??___xxtofl
  4149   001C30  6A22               	clrf	(??___xxtofl+1)^0,c
  4150   001C32  6A23               	clrf	(??___xxtofl+2)^0,c
  4151   001C34  6A24               	clrf	(??___xxtofl+3)^0,c
  4152   001C36  C021  F024         	movff	??___xxtofl,??___xxtofl+3
  4153   001C3A  6A23               	clrf	(??___xxtofl+2)^0,c
  4154   001C3C  6A22               	clrf	(??___xxtofl+1)^0,c
  4155   001C3E  6A21               	clrf	??___xxtofl^0,c
  4156   001C40  5021               	movf	??___xxtofl^0,w,c
  4157   001C42  1227               	iorwf	___xxtofl@arg^0,f,c
  4158   001C44  5022               	movf	(??___xxtofl+1)^0,w,c
  4159   001C46  1228               	iorwf	(___xxtofl@arg+1)^0,f,c
  4160   001C48  5023               	movf	(??___xxtofl+2)^0,w,c
  4161   001C4A  1229               	iorwf	(___xxtofl@arg+2)^0,f,c
  4162   001C4C  5024               	movf	(??___xxtofl+3)^0,w,c
  4163   001C4E  122A               	iorwf	(___xxtofl@arg+3)^0,f,c
  4164   001C50  5025               	movf	___xxtofl@sign^0,w,c
  4165   001C52  B4D8               	btfsc	status,2,c
  4166   001C54  EF2E  F00E         	goto	u4121
  4167   001C58  EF30  F00E         	goto	u4120
  4168   001C5C                     u4121:
  4169   001C5C  EF38  F00E         	goto	l4148
  4170   001C60                     u4120:
  4171   001C60  BE20               	btfsc	(___xxtofl@val+3)^0,7,c
  4172   001C62  EF37  F00E         	goto	u4130
  4173   001C66  EF35  F00E         	goto	u4131
  4174   001C6A                     u4131:
  4175   001C6A  EF38  F00E         	goto	l4148
  4176   001C6E                     u4130:
  4177   001C6E  8E2A               	bsf	(___xxtofl@arg+3)^0,7,c
  4178   001C70                     l4148:
  4179   001C70  C027  F01D         	movff	___xxtofl@arg,?___xxtofl
  4180   001C74  C028  F01E         	movff	___xxtofl@arg+1,?___xxtofl+1
  4181   001C78  C029  F01F         	movff	___xxtofl@arg+2,?___xxtofl+2
  4182   001C7C  C02A  F020         	movff	___xxtofl@arg+3,?___xxtofl+3
  4183   001C80                     l955:
  4184   001C80  0012               	return		;funcret
  4185   001C82                     __end_of___xxtofl:
  4186                           	callstack 0
  4187                           
  4188 ;; *************** function ___fltol *****************
  4189 ;; Defined at:
  4190 ;;		line 43 in file "/opt/microchip/xc8/v2.46/pic/sources/c99/common/fltol.c"
  4191 ;; Parameters:    Size  Location     Type
  4192 ;;  f1              4   67[COMRAM] unsigned char 
  4193 ;; Auto vars:     Size  Location     Type
  4194 ;;  exp1            1    5[BANK0 ] unsigned char 
  4195 ;;  sign1           1    4[BANK0 ] unsigned char 
  4196 ;; Return value:  Size  Location     Type
  4197 ;;                  4   67[COMRAM] long 
  4198 ;; Registers used:
  4199 ;;		wreg, status,2, status,0
  4200 ;; Tracked objects:
  4201 ;;		On entry : 0/0
  4202 ;;		On exit  : 0/0
  4203 ;;		Unchanged: 0/0
  4204 ;; Data sizes:     COMRAM   BANK0   BANK1   BANK2   BANK3   BANK4   BANK5
  4205 ;;      Params:         4       0       0       0       0       0       0
  4206 ;;      Locals:         0       2       0       0       0       0       0
  4207 ;;      Temps:          0       4       0       0       0       0       0
  4208 ;;      Totals:         4       6       0       0       0       0       0
  4209 ;;Total ram usage:       10 bytes
  4210 ;; Hardware stack levels used: 1
  4211 ;; Hardware stack levels required when called: 3
  4212 ;; This function calls:
  4213 ;;		Nothing
  4214 ;; This function is called by:
  4215 ;;		_BME280_Compensate_Temperature
  4216 ;;		_main
  4217 ;; This function uses a non-reentrant model
  4218 ;;
  4219                           
  4220                           	psect	text25
  4221   001DF0                     __ptext25:
  4222                           	callstack 0
  4223   001DF0                     ___fltol:
  4224                           	callstack 27
  4225   001DF0  3446               	rlcf	(___fltol@f1+2)^0,w,c
  4226   001DF2  3447               	rlcf	(___fltol@f1+3)^0,w,c
  4227   001DF4  0100               	movlb	0	; () banked
  4228   001DF6  6FC1               	movwf	___fltol@exp1& (0+255),b
  4229   001DF8  51C1               	movf	___fltol@exp1& (0+255),w,b
  4230   001DFA  A4D8               	btfss	status,2,c
  4231   001DFC  EF02  F00F         	goto	u3971
  4232   001E00  EF04  F00F         	goto	u3970
  4233   001E04                     u3971:
  4234   001E04  EF0E  F00F         	goto	l4068
  4235   001E08                     u3970:
  4236   001E08                     l4064:
  4237                           
  4238                           ; BSR set to: 0
  4239   001E08  0E00               	movlw	0
  4240   001E0A  6E44               	movwf	?___fltol^0,c
  4241   001E0C  0E00               	movlw	0
  4242   001E0E  6E45               	movwf	(?___fltol+1)^0,c
  4243   001E10  0E00               	movlw	0
  4244   001E12  6E46               	movwf	(?___fltol+2)^0,c
  4245   001E14  0E00               	movlw	0
  4246   001E16  6E47               	movwf	(?___fltol+3)^0,c
  4247   001E18  EF7B  F00F         	goto	l594
  4248   001E1C                     l4068:
  4249                           
  4250                           ; BSR set to: 0
  4251   001E1C  C044  F0BC         	movff	___fltol@f1,??___fltol
  4252   001E20  C045  F0BD         	movff	___fltol@f1+1,??___fltol+1
  4253   001E24  C046  F0BE         	movff	___fltol@f1+2,??___fltol+2
  4254   001E28  C047  F0BF         	movff	___fltol@f1+3,??___fltol+3
  4255   001E2C  0E20               	movlw	32
  4256   001E2E  EF1E  F00F         	goto	u3980
  4257   001E32                     u3985:
  4258   001E32  90D8               	bcf	status,0,c
  4259   001E34  33BF               	rrcf	(??___fltol+3)& (0+255),f,b
  4260   001E36  33BE               	rrcf	(??___fltol+2)& (0+255),f,b
  4261   001E38  33BD               	rrcf	(??___fltol+1)& (0+255),f,b
  4262   001E3A  33BC               	rrcf	??___fltol& (0+255),f,b
  4263   001E3C                     u3980:
  4264   001E3C  2EE8               	decfsz	wreg,f,c
  4265   001E3E  EF19  F00F         	goto	u3985
  4266   001E42  51BC               	movf	??___fltol& (0+255),w,b
  4267   001E44  6FC0               	movwf	___fltol@sign1& (0+255),b
  4268   001E46                     
  4269                           ; BSR set to: 0
  4270   001E46  8E46               	bsf	(___fltol@f1+2)^0,7,c
  4271   001E48                     
  4272                           ; BSR set to: 0
  4273   001E48  0EFF               	movlw	255
  4274   001E4A  1644               	andwf	___fltol@f1^0,f,c
  4275   001E4C  0EFF               	movlw	255
  4276   001E4E  1645               	andwf	(___fltol@f1+1)^0,f,c
  4277   001E50  0EFF               	movlw	255
  4278   001E52  1646               	andwf	(___fltol@f1+2)^0,f,c
  4279   001E54  0E00               	movlw	0
  4280   001E56  1647               	andwf	(___fltol@f1+3)^0,f,c
  4281   001E58                     
  4282                           ; BSR set to: 0
  4283   001E58  0E96               	movlw	150
  4284   001E5A  5FC1               	subwf	___fltol@exp1& (0+255),f,b
  4285   001E5C                     
  4286                           ; BSR set to: 0
  4287   001E5C  BFC1               	btfsc	___fltol@exp1& (0+255),7,b
  4288   001E5E  EF35  F00F         	goto	u3990
  4289   001E62  EF33  F00F         	goto	u3991
  4290   001E66                     u3991:
  4291   001E66  EF4B  F00F         	goto	l4088
  4292   001E6A                     u3990:
  4293   001E6A                     
  4294                           ; BSR set to: 0
  4295   001E6A  51C1               	movf	___fltol@exp1& (0+255),w,b
  4296   001E6C  0A80               	xorlw	128
  4297   001E6E  0F97               	addlw	151
  4298   001E70  B0D8               	btfsc	status,0,c
  4299   001E72  EF3D  F00F         	goto	u4001
  4300   001E76  EF3F  F00F         	goto	u4000
  4301   001E7A                     u4001:
  4302   001E7A  EF41  F00F         	goto	l4084
  4303   001E7E                     u4000:
  4304   001E7E  EF04  F00F         	goto	l4064
  4305   001E82                     l4084:
  4306                           
  4307                           ; BSR set to: 0
  4308   001E82  90D8               	bcf	status,0,c
  4309   001E84  3247               	rrcf	(___fltol@f1+3)^0,f,c
  4310   001E86  3246               	rrcf	(___fltol@f1+2)^0,f,c
  4311   001E88  3245               	rrcf	(___fltol@f1+1)^0,f,c
  4312   001E8A  3244               	rrcf	___fltol@f1^0,f,c
  4313   001E8C                     
  4314                           ; BSR set to: 0
  4315   001E8C  3FC1               	incfsz	___fltol@exp1& (0+255),f,b
  4316   001E8E  EF41  F00F         	goto	l4084
  4317   001E92  EF63  F00F         	goto	l4098
  4318   001E96                     l4088:
  4319                           
  4320                           ; BSR set to: 0
  4321   001E96  0E1F               	movlw	31
  4322   001E98  65C1               	cpfsgt	___fltol@exp1& (0+255),b
  4323   001E9A  EF51  F00F         	goto	u4011
  4324   001E9E  EF53  F00F         	goto	u4010
  4325   001EA2                     u4011:
  4326   001EA2  EF5B  F00F         	goto	l4096
  4327   001EA6                     u4010:
  4328   001EA6  EF04  F00F         	goto	l4064
  4329   001EAA                     l4094:
  4330                           
  4331                           ; BSR set to: 0
  4332   001EAA  90D8               	bcf	status,0,c
  4333   001EAC  3644               	rlcf	___fltol@f1^0,f,c
  4334   001EAE  3645               	rlcf	(___fltol@f1+1)^0,f,c
  4335   001EB0  3646               	rlcf	(___fltol@f1+2)^0,f,c
  4336   001EB2  3647               	rlcf	(___fltol@f1+3)^0,f,c
  4337   001EB4  07C1               	decf	___fltol@exp1& (0+255),f,b
  4338   001EB6                     l4096:
  4339                           
  4340                           ; BSR set to: 0
  4341   001EB6  51C1               	movf	___fltol@exp1& (0+255),w,b
  4342   001EB8  A4D8               	btfss	status,2,c
  4343   001EBA  EF61  F00F         	goto	u4021
  4344   001EBE  EF63  F00F         	goto	u4020
  4345   001EC2                     u4021:
  4346   001EC2  EF55  F00F         	goto	l4094
  4347   001EC6                     u4020:
  4348   001EC6                     l4098:
  4349                           
  4350                           ; BSR set to: 0
  4351   001EC6  51C0               	movf	___fltol@sign1& (0+255),w,b
  4352   001EC8  B4D8               	btfsc	status,2,c
  4353   001ECA  EF69  F00F         	goto	u4031
  4354   001ECE  EF6B  F00F         	goto	u4030
  4355   001ED2                     u4031:
  4356   001ED2  EF73  F00F         	goto	l4102
  4357   001ED6                     u4030:
  4358   001ED6                     
  4359                           ; BSR set to: 0
  4360   001ED6  1E47               	comf	(___fltol@f1+3)^0,f,c
  4361   001ED8  1E46               	comf	(___fltol@f1+2)^0,f,c
  4362   001EDA  1E45               	comf	(___fltol@f1+1)^0,f,c
  4363   001EDC  6C44               	negf	___fltol@f1^0,c
  4364   001EDE  0E00               	movlw	0
  4365   001EE0  2245               	addwfc	(___fltol@f1+1)^0,f,c
  4366   001EE2  2246               	addwfc	(___fltol@f1+2)^0,f,c
  4367   001EE4  2247               	addwfc	(___fltol@f1+3)^0,f,c
  4368   001EE6                     l4102:
  4369                           
  4370                           ; BSR set to: 0
  4371   001EE6  C044  F044         	movff	___fltol@f1,?___fltol
  4372   001EEA  C045  F045         	movff	___fltol@f1+1,?___fltol+1
  4373   001EEE  C046  F046         	movff	___fltol@f1+2,?___fltol+2
  4374   001EF2  C047  F047         	movff	___fltol@f1+3,?___fltol+3
  4375   001EF6                     l594:
  4376                           
  4377                           ; BSR set to: 0
  4378   001EF6  0012               	return		;funcret
  4379   001EF8                     __end_of___fltol:
  4380                           	callstack 0
  4381                           
  4382 ;; *************** function ___flsub *****************
  4383 ;; Defined at:
  4384 ;;		line 245 in file "/opt/microchip/xc8/v2.46/pic/sources/c99/common/sprcadd.c"
  4385 ;; Parameters:    Size  Location     Type
  4386 ;;  b               4    0[BANK0 ] long 
  4387 ;;  a               4    4[BANK0 ] long 
  4388 ;; Auto vars:     Size  Location     Type
  4389 ;;		None
  4390 ;; Return value:  Size  Location     Type
  4391 ;;                  4    0[BANK0 ] long 
  4392 ;; Registers used:
  4393 ;;		wreg, status,2, status,0, cstack
  4394 ;; Tracked objects:
  4395 ;;		On entry : 0/0
  4396 ;;		On exit  : 0/0
  4397 ;;		Unchanged: 0/0
  4398 ;; Data sizes:     COMRAM   BANK0   BANK1   BANK2   BANK3   BANK4   BANK5
  4399 ;;      Params:         0       8       0       0       0       0       0
  4400 ;;      Locals:         0       0       0       0       0       0       0
  4401 ;;      Temps:          0       0       0       0       0       0       0
  4402 ;;      Totals:         0       8       0       0       0       0       0
  4403 ;;Total ram usage:        8 bytes
  4404 ;; Hardware stack levels used: 1
  4405 ;; Hardware stack levels required when called: 4
  4406 ;; This function calls:
  4407 ;;		___fladd
  4408 ;; This function is called by:
  4409 ;;		_BME280_Compensate_Temperature
  4410 ;; This function uses a non-reentrant model
  4411 ;;
  4412                           
  4413                           	psect	text26
  4414   0022B6                     __ptext26:
  4415                           	callstack 0
  4416   0022B6                     ___flsub:
  4417                           	callstack 25
  4418   0022B6  0E00               	movlw	0
  4419   0022B8  0100               	movlb	0	; () banked
  4420   0022BA  1BC0               	xorwf	___flsub@a& (0+255),f,b
  4421   0022BC  0E00               	movlw	0
  4422   0022BE  1BC1               	xorwf	(___flsub@a+1)& (0+255),f,b
  4423   0022C0  0E00               	movlw	0
  4424   0022C2  1BC2               	xorwf	(___flsub@a+2)& (0+255),f,b
  4425   0022C4  0E80               	movlw	128
  4426   0022C6  1BC3               	xorwf	(___flsub@a+3)& (0+255),f,b
  4427   0022C8                     
  4428                           ; BSR set to: 0
  4429   0022C8  C0BC  F00D         	movff	___flsub@b,___fladd@b
  4430   0022CC  C0BD  F00E         	movff	___flsub@b+1,___fladd@b+1
  4431   0022D0  C0BE  F00F         	movff	___flsub@b+2,___fladd@b+2
  4432   0022D4  C0BF  F010         	movff	___flsub@b+3,___fladd@b+3
  4433   0022D8  C0C0  F011         	movff	___flsub@a,___fladd@a
  4434   0022DC  C0C1  F012         	movff	___flsub@a+1,___fladd@a+1
  4435   0022E0  C0C2  F013         	movff	___flsub@a+2,___fladd@a+2
  4436   0022E4  C0C3  F014         	movff	___flsub@a+3,___fladd@a+3
  4437   0022E8  EC6C  F003         	call	___fladd	;wreg free
  4438   0022EC  C00D  F0BC         	movff	?___fladd,?___flsub
  4439   0022F0  C00E  F0BD         	movff	?___fladd+1,?___flsub+1
  4440   0022F4  C00F  F0BE         	movff	?___fladd+2,?___flsub+2
  4441   0022F8  C010  F0BF         	movff	?___fladd+3,?___flsub+3
  4442   0022FC  0012               	return		;funcret
  4443   0022FE                     __end_of___flsub:
  4444                           	callstack 0
  4445                           
  4446 ;; *************** function ___fladd *****************
  4447 ;; Defined at:
  4448 ;;		line 10 in file "/opt/microchip/xc8/v2.46/pic/sources/c99/common/sprcadd.c"
  4449 ;; Parameters:    Size  Location     Type
  4450 ;;  b               4   12[COMRAM] long 
  4451 ;;  a               4   16[COMRAM] long 
  4452 ;; Auto vars:     Size  Location     Type
  4453 ;;  grs             1   27[COMRAM] unsigned char 
  4454 ;;  bexp            1   26[COMRAM] unsigned char 
  4455 ;;  aexp            1   25[COMRAM] unsigned char 
  4456 ;;  signs           1   24[COMRAM] unsigned char 
  4457 ;; Return value:  Size  Location     Type
  4458 ;;                  4   12[COMRAM] unsigned char 
  4459 ;; Registers used:
  4460 ;;		wreg, status,2, status,0
  4461 ;; Tracked objects:
  4462 ;;		On entry : 0/0
  4463 ;;		On exit  : 0/0
  4464 ;;		Unchanged: 0/0
  4465 ;; Data sizes:     COMRAM   BANK0   BANK1   BANK2   BANK3   BANK4   BANK5
  4466 ;;      Params:         8       0       0       0       0       0       0
  4467 ;;      Locals:         4       0       0       0       0       0       0
  4468 ;;      Temps:          4       0       0       0       0       0       0
  4469 ;;      Totals:        16       0       0       0       0       0       0
  4470 ;;Total ram usage:       16 bytes
  4471 ;; Hardware stack levels used: 1
  4472 ;; Hardware stack levels required when called: 3
  4473 ;; This function calls:
  4474 ;;		Nothing
  4475 ;; This function is called by:
  4476 ;;		_BME280_Compensate_Temperature
  4477 ;;		___flsub
  4478 ;; This function uses a non-reentrant model
  4479 ;;
  4480                           
  4481                           	psect	text27
  4482   0006D8                     __ptext27:
  4483                           	callstack 0
  4484   0006D8                     ___fladd:
  4485                           	callstack 25
  4486   0006D8  5010               	movf	(___fladd@b+3)^0,w,c
  4487   0006DA  0B80               	andlw	128
  4488   0006DC  6E19               	movwf	___fladd@signs^0,c
  4489   0006DE  5010               	movf	(___fladd@b+3)^0,w,c
  4490   0006E0  2410               	addwf	(___fladd@b+3)^0,w,c
  4491   0006E2  6E1B               	movwf	___fladd@bexp^0,c
  4492   0006E4  AE0F               	btfss	(___fladd@b+2)^0,7,c
  4493   0006E6  EF77  F003         	goto	u3031
  4494   0006EA  EF79  F003         	goto	u3030
  4495   0006EE                     u3031:
  4496   0006EE  EF7A  F003         	goto	l3504
  4497   0006F2                     u3030:
  4498   0006F2  801B               	bsf	___fladd@bexp^0,0,c
  4499   0006F4                     l3504:
  4500   0006F4  501B               	movf	___fladd@bexp^0,w,c
  4501   0006F6  B4D8               	btfsc	status,2,c
  4502   0006F8  EF80  F003         	goto	u3041
  4503   0006FC  EF82  F003         	goto	u3040
  4504   000700                     u3041:
  4505   000700  EF97  F003         	goto	l3514
  4506   000704                     u3040:
  4507   000704  281B               	incf	___fladd@bexp^0,w,c
  4508   000706  A4D8               	btfss	status,2,c
  4509   000708  EF88  F003         	goto	u3051
  4510   00070C  EF8A  F003         	goto	u3050
  4511   000710                     u3051:
  4512   000710  EF92  F003         	goto	l3510
  4513   000714                     u3050:
  4514   000714  0E00               	movlw	0
  4515   000716  6E0D               	movwf	___fladd@b^0,c
  4516   000718  0E00               	movlw	0
  4517   00071A  6E0E               	movwf	(___fladd@b+1)^0,c
  4518   00071C  0E00               	movlw	0
  4519   00071E  6E0F               	movwf	(___fladd@b+2)^0,c
  4520   000720  0E00               	movlw	0
  4521   000722  6E10               	movwf	(___fladd@b+3)^0,c
  4522   000724                     l3510:
  4523   000724  8E0F               	bsf	(___fladd@b+2)^0,7,c
  4524   000726  0E00               	movlw	0
  4525   000728  6E10               	movwf	(___fladd@b+3)^0,c
  4526   00072A  EF9F  F003         	goto	l3516
  4527   00072E                     l3514:
  4528   00072E  0E00               	movlw	0
  4529   000730  6E0D               	movwf	___fladd@b^0,c
  4530   000732  0E00               	movlw	0
  4531   000734  6E0E               	movwf	(___fladd@b+1)^0,c
  4532   000736  0E00               	movlw	0
  4533   000738  6E0F               	movwf	(___fladd@b+2)^0,c
  4534   00073A  0E00               	movlw	0
  4535   00073C  6E10               	movwf	(___fladd@b+3)^0,c
  4536   00073E                     l3516:
  4537   00073E  5014               	movf	(___fladd@a+3)^0,w,c
  4538   000740  0B80               	andlw	128
  4539   000742  6E1A               	movwf	___fladd@aexp^0,c
  4540   000744  5019               	movf	___fladd@signs^0,w,c
  4541   000746  181A               	xorwf	___fladd@aexp^0,w,c
  4542   000748  B4D8               	btfsc	status,2,c
  4543   00074A  EFA9  F003         	goto	u3061
  4544   00074E  EFAB  F003         	goto	u3060
  4545   000752                     u3061:
  4546   000752  EFAC  F003         	goto	l3522
  4547   000756                     u3060:
  4548   000756  8C19               	bsf	___fladd@signs^0,6,c
  4549   000758                     l3522:
  4550   000758  5014               	movf	(___fladd@a+3)^0,w,c
  4551   00075A  2414               	addwf	(___fladd@a+3)^0,w,c
  4552   00075C  6E1A               	movwf	___fladd@aexp^0,c
  4553   00075E  AE13               	btfss	(___fladd@a+2)^0,7,c
  4554   000760  EFB4  F003         	goto	u3071
  4555   000764  EFB6  F003         	goto	u3070
  4556   000768                     u3071:
  4557   000768  EFB7  F003         	goto	l3528
  4558   00076C                     u3070:
  4559   00076C  801A               	bsf	___fladd@aexp^0,0,c
  4560   00076E                     l3528:
  4561   00076E  501A               	movf	___fladd@aexp^0,w,c
  4562   000770  B4D8               	btfsc	status,2,c
  4563   000772  EFBD  F003         	goto	u3081
  4564   000776  EFBF  F003         	goto	u3080
  4565   00077A                     u3081:
  4566   00077A  EFD4  F003         	goto	l3538
  4567   00077E                     u3080:
  4568   00077E  281A               	incf	___fladd@aexp^0,w,c
  4569   000780  A4D8               	btfss	status,2,c
  4570   000782  EFC5  F003         	goto	u3091
  4571   000786  EFC7  F003         	goto	u3090
  4572   00078A                     u3091:
  4573   00078A  EFCF  F003         	goto	l3534
  4574   00078E                     u3090:
  4575   00078E  0E00               	movlw	0
  4576   000790  6E11               	movwf	___fladd@a^0,c
  4577   000792  0E00               	movlw	0
  4578   000794  6E12               	movwf	(___fladd@a+1)^0,c
  4579   000796  0E00               	movlw	0
  4580   000798  6E13               	movwf	(___fladd@a+2)^0,c
  4581   00079A  0E00               	movlw	0
  4582   00079C  6E14               	movwf	(___fladd@a+3)^0,c
  4583   00079E                     l3534:
  4584   00079E  8E13               	bsf	(___fladd@a+2)^0,7,c
  4585   0007A0  0E00               	movlw	0
  4586   0007A2  6E14               	movwf	(___fladd@a+3)^0,c
  4587   0007A4  EFDC  F003         	goto	l3540
  4588   0007A8                     l3538:
  4589   0007A8  0E00               	movlw	0
  4590   0007AA  6E11               	movwf	___fladd@a^0,c
  4591   0007AC  0E00               	movlw	0
  4592   0007AE  6E12               	movwf	(___fladd@a+1)^0,c
  4593   0007B0  0E00               	movlw	0
  4594   0007B2  6E13               	movwf	(___fladd@a+2)^0,c
  4595   0007B4  0E00               	movlw	0
  4596   0007B6  6E14               	movwf	(___fladd@a+3)^0,c
  4597   0007B8                     l3540:
  4598   0007B8  501B               	movf	___fladd@bexp^0,w,c
  4599   0007BA  5C1A               	subwf	___fladd@aexp^0,w,c
  4600   0007BC  B0D8               	btfsc	status,0,c
  4601   0007BE  EFE3  F003         	goto	u3101
  4602   0007C2  EFE5  F003         	goto	u3100
  4603   0007C6                     u3101:
  4604   0007C6  EF0C  F004         	goto	l3576
  4605   0007CA                     u3100:
  4606   0007CA  AC19               	btfss	___fladd@signs^0,6,c
  4607   0007CC  EFEA  F003         	goto	u3111
  4608   0007D0  EFEC  F003         	goto	u3110
  4609   0007D4                     u3111:
  4610   0007D4  EFEE  F003         	goto	l3546
  4611   0007D8                     u3110:
  4612   0007D8  0E80               	movlw	128
  4613   0007DA  1A19               	xorwf	___fladd@signs^0,f,c
  4614   0007DC                     l3546:
  4615   0007DC  C01B  F01C         	movff	___fladd@bexp,___fladd@grs
  4616   0007E0  C01A  F01B         	movff	___fladd@aexp,___fladd@bexp
  4617   0007E4  C01C  F01A         	movff	___fladd@grs,___fladd@aexp
  4618   0007E8  C00D  F01C         	movff	___fladd@b,___fladd@grs
  4619   0007EC  C011  F00D         	movff	___fladd@a,___fladd@b
  4620   0007F0  C01C  F011         	movff	___fladd@grs,___fladd@a
  4621   0007F4  C00E  F01C         	movff	___fladd@b+1,___fladd@grs
  4622   0007F8  C012  F00E         	movff	___fladd@a+1,___fladd@b+1
  4623   0007FC  C01C  F012         	movff	___fladd@grs,___fladd@a+1
  4624   000800  C00F  F01C         	movff	___fladd@b+2,___fladd@grs
  4625   000804  C013  F00F         	movff	___fladd@a+2,___fladd@b+2
  4626   000808  C01C  F013         	movff	___fladd@grs,___fladd@a+2
  4627   00080C  C010  F01C         	movff	___fladd@b+3,___fladd@grs
  4628   000810  C014  F010         	movff	___fladd@a+3,___fladd@b+3
  4629   000814  C01C  F014         	movff	___fladd@grs,___fladd@a+3
  4630   000818                     l3576:
  4631   000818  0E00               	movlw	0
  4632   00081A  6E1C               	movwf	___fladd@grs^0,c
  4633   00081C  501B               	movf	___fladd@bexp^0,w,c
  4634   00081E  C01A  F015         	movff	___fladd@aexp,??___fladd
  4635   000822  6A16               	clrf	(??___fladd+1)^0,c
  4636   000824  5E15               	subwf	??___fladd^0,f,c
  4637   000826  0E00               	movlw	0
  4638   000828  5A16               	subwfb	(??___fladd+1)^0,f,c
  4639   00082A  BE16               	btfsc	(??___fladd+1)^0,7,c
  4640   00082C  EF21  F004         	goto	u3121
  4641   000830  5016               	movf	(??___fladd+1)^0,w,c
  4642   000832  E109               	bnz	u3120
  4643   000834  0E1A               	movlw	26
  4644   000836  5C15               	subwf	??___fladd^0,w,c
  4645   000838  A0D8               	btfss	status,0,c
  4646   00083A  EF21  F004         	goto	u3121
  4647   00083E  EF23  F004         	goto	u3120
  4648   000842                     u3121:
  4649   000842  EF5A  F004         	goto	l826
  4650   000846                     u3120:
  4651   000846  500D               	movf	___fladd@b^0,w,c
  4652   000848  100E               	iorwf	(___fladd@b+1)^0,w,c
  4653   00084A  100F               	iorwf	(___fladd@b+2)^0,w,c
  4654   00084C  1010               	iorwf	(___fladd@b+3)^0,w,c
  4655   00084E  A4D8               	btfss	status,2,c
  4656   000850  EF2C  F004         	goto	u3131
  4657   000854  EF2F  F004         	goto	u3130
  4658   000858                     u3131:
  4659   000858  0E01               	movlw	1
  4660   00085A  EF30  F004         	goto	u3140
  4661   00085E                     u3130:
  4662   00085E  0E00               	movlw	0
  4663   000860                     u3140:
  4664   000860  6E1C               	movwf	___fladd@grs^0,c
  4665   000862  0E00               	movlw	0
  4666   000864  6E0D               	movwf	___fladd@b^0,c
  4667   000866  0E00               	movlw	0
  4668   000868  6E0E               	movwf	(___fladd@b+1)^0,c
  4669   00086A  0E00               	movlw	0
  4670   00086C  6E0F               	movwf	(___fladd@b+2)^0,c
  4671   00086E  0E00               	movlw	0
  4672   000870  6E10               	movwf	(___fladd@b+3)^0,c
  4673   000872  C01A  F01B         	movff	___fladd@aexp,___fladd@bexp
  4674   000876  EF63  F004         	goto	l825
  4675   00087A                     l827:
  4676   00087A  A01C               	btfss	___fladd@grs^0,0,c
  4677   00087C  EF42  F004         	goto	u3151
  4678   000880  EF44  F004         	goto	u3150
  4679   000884                     u3151:
  4680   000884  EF4A  F004         	goto	l3588
  4681   000888                     u3150:
  4682   000888  90D8               	bcf	status,0,c
  4683   00088A  301C               	rrcf	___fladd@grs^0,w,c
  4684   00088C  0901               	iorlw	1
  4685   00088E  6E1C               	movwf	___fladd@grs^0,c
  4686   000890  EF4C  F004         	goto	l3590
  4687   000894                     l3588:
  4688   000894  90D8               	bcf	status,0,c
  4689   000896  321C               	rrcf	___fladd@grs^0,f,c
  4690   000898                     l3590:
  4691   000898  A00D               	btfss	___fladd@b^0,0,c
  4692   00089A  EF51  F004         	goto	u3161
  4693   00089E  EF53  F004         	goto	u3160
  4694   0008A2                     u3161:
  4695   0008A2  EF54  F004         	goto	l3594
  4696   0008A6                     u3160:
  4697   0008A6  8E1C               	bsf	___fladd@grs^0,7,c
  4698   0008A8                     l3594:
  4699   0008A8  3410               	rlcf	(___fladd@b+3)^0,w,c
  4700   0008AA  3210               	rrcf	(___fladd@b+3)^0,f,c
  4701   0008AC  320F               	rrcf	(___fladd@b+2)^0,f,c
  4702   0008AE  320E               	rrcf	(___fladd@b+1)^0,f,c
  4703   0008B0  320D               	rrcf	___fladd@b^0,f,c
  4704   0008B2  2A1B               	incf	___fladd@bexp^0,f,c
  4705   0008B4                     l826:
  4706   0008B4  501A               	movf	___fladd@aexp^0,w,c
  4707   0008B6  5C1B               	subwf	___fladd@bexp^0,w,c
  4708   0008B8  A0D8               	btfss	status,0,c
  4709   0008BA  EF61  F004         	goto	u3171
  4710   0008BE  EF63  F004         	goto	u3170
  4711   0008C2                     u3171:
  4712   0008C2  EF3D  F004         	goto	l827
  4713   0008C6                     u3170:
  4714   0008C6                     l825:
  4715   0008C6  BC19               	btfsc	___fladd@signs^0,6,c
  4716   0008C8  EF68  F004         	goto	u3181
  4717   0008CC  EF6A  F004         	goto	u3180
  4718   0008D0                     u3181:
  4719   0008D0  EFAA  F004         	goto	l3622
  4720   0008D4                     u3180:
  4721   0008D4  501B               	movf	___fladd@bexp^0,w,c
  4722   0008D6  A4D8               	btfss	status,2,c
  4723   0008D8  EF70  F004         	goto	u3191
  4724   0008DC  EF72  F004         	goto	u3190
  4725   0008E0                     u3191:
  4726   0008E0  EF7C  F004         	goto	l3604
  4727   0008E4                     u3190:
  4728   0008E4  0E00               	movlw	0
  4729   0008E6  6E0D               	movwf	?___fladd^0,c
  4730   0008E8  0E00               	movlw	0
  4731   0008EA  6E0E               	movwf	(?___fladd+1)^0,c
  4732   0008EC  0E00               	movlw	0
  4733   0008EE  6E0F               	movwf	(?___fladd+2)^0,c
  4734   0008F0  0E00               	movlw	0
  4735   0008F2  6E10               	movwf	(?___fladd+3)^0,c
  4736   0008F4  EFCB  F005         	goto	l834
  4737   0008F8                     l3604:
  4738   0008F8  5011               	movf	___fladd@a^0,w,c
  4739   0008FA  260D               	addwf	___fladd@b^0,f,c
  4740   0008FC  5012               	movf	(___fladd@a+1)^0,w,c
  4741   0008FE  220E               	addwfc	(___fladd@b+1)^0,f,c
  4742   000900  5013               	movf	(___fladd@a+2)^0,w,c
  4743   000902  220F               	addwfc	(___fladd@b+2)^0,f,c
  4744   000904  5014               	movf	(___fladd@a+3)^0,w,c
  4745   000906  2210               	addwfc	(___fladd@b+3)^0,f,c
  4746   000908  A010               	btfss	(___fladd@b+3)^0,0,c
  4747   00090A  EF89  F004         	goto	u3201
  4748   00090E  EF8B  F004         	goto	u3200
  4749   000912                     u3201:
  4750   000912  EF37  F005         	goto	l3658
  4751   000916                     u3200:
  4752   000916  A01C               	btfss	___fladd@grs^0,0,c
  4753   000918  EF90  F004         	goto	u3211
  4754   00091C  EF92  F004         	goto	u3210
  4755   000920                     u3211:
  4756   000920  EF98  F004         	goto	l3612
  4757   000924                     u3210:
  4758   000924  90D8               	bcf	status,0,c
  4759   000926  301C               	rrcf	___fladd@grs^0,w,c
  4760   000928  0901               	iorlw	1
  4761   00092A  6E1C               	movwf	___fladd@grs^0,c
  4762   00092C  EF9A  F004         	goto	l3614
  4763   000930                     l3612:
  4764   000930  90D8               	bcf	status,0,c
  4765   000932  321C               	rrcf	___fladd@grs^0,f,c
  4766   000934                     l3614:
  4767   000934  A00D               	btfss	___fladd@b^0,0,c
  4768   000936  EF9F  F004         	goto	u3221
  4769   00093A  EFA1  F004         	goto	u3220
  4770   00093E                     u3221:
  4771   00093E  EFA2  F004         	goto	l3618
  4772   000942                     u3220:
  4773   000942  8E1C               	bsf	___fladd@grs^0,7,c
  4774   000944                     l3618:
  4775   000944  3410               	rlcf	(___fladd@b+3)^0,w,c
  4776   000946  3210               	rrcf	(___fladd@b+3)^0,f,c
  4777   000948  320F               	rrcf	(___fladd@b+2)^0,f,c
  4778   00094A  320E               	rrcf	(___fladd@b+1)^0,f,c
  4779   00094C  320D               	rrcf	___fladd@b^0,f,c
  4780   00094E  2A1B               	incf	___fladd@bexp^0,f,c
  4781   000950  EF37  F005         	goto	l3658
  4782   000954                     l3622:
  4783   000954  5011               	movf	___fladd@a^0,w,c
  4784   000956  5C0D               	subwf	___fladd@b^0,w,c
  4785   000958  5012               	movf	(___fladd@a+1)^0,w,c
  4786   00095A  580E               	subwfb	(___fladd@b+1)^0,w,c
  4787   00095C  5013               	movf	(___fladd@a+2)^0,w,c
  4788   00095E  580F               	subwfb	(___fladd@b+2)^0,w,c
  4789   000960  5010               	movf	(___fladd@b+3)^0,w,c
  4790   000962  0A80               	xorlw	128
  4791   000964  6E15               	movwf	??___fladd^0,c
  4792   000966  5014               	movf	(___fladd@a+3)^0,w,c
  4793   000968  0A80               	xorlw	128
  4794   00096A  5815               	subwfb	??___fladd^0,w,c
  4795   00096C  B0D8               	btfsc	status,0,c
  4796   00096E  EFBB  F004         	goto	u3231
  4797   000972  EFBD  F004         	goto	u3230
  4798   000976                     u3231:
  4799   000976  EFE8  F004         	goto	l3632
  4800   00097A                     u3230:
  4801   00097A  500D               	movf	___fladd@b^0,w,c
  4802   00097C  5C11               	subwf	___fladd@a^0,w,c
  4803   00097E  6E15               	movwf	??___fladd^0,c
  4804   000980  500E               	movf	(___fladd@b+1)^0,w,c
  4805   000982  5812               	subwfb	(___fladd@a+1)^0,w,c
  4806   000984  6E16               	movwf	(??___fladd+1)^0,c
  4807   000986  500F               	movf	(___fladd@b+2)^0,w,c
  4808   000988  5813               	subwfb	(___fladd@a+2)^0,w,c
  4809   00098A  6E17               	movwf	(??___fladd+2)^0,c
  4810   00098C  5010               	movf	(___fladd@b+3)^0,w,c
  4811   00098E  5814               	subwfb	(___fladd@a+3)^0,w,c
  4812   000990  6E18               	movwf	(??___fladd+3)^0,c
  4813   000992  0EFF               	movlw	255
  4814   000994  2415               	addwf	??___fladd^0,w,c
  4815   000996  6E0D               	movwf	___fladd@b^0,c
  4816   000998  0EFF               	movlw	255
  4817   00099A  2016               	addwfc	(??___fladd+1)^0,w,c
  4818   00099C  6E0E               	movwf	(___fladd@b+1)^0,c
  4819   00099E  0EFF               	movlw	255
  4820   0009A0  2017               	addwfc	(??___fladd+2)^0,w,c
  4821   0009A2  6E0F               	movwf	(___fladd@b+2)^0,c
  4822   0009A4  0EFF               	movlw	255
  4823   0009A6  2018               	addwfc	(??___fladd+3)^0,w,c
  4824   0009A8  6E10               	movwf	(___fladd@b+3)^0,c
  4825   0009AA  0E80               	movlw	128
  4826   0009AC  1A19               	xorwf	___fladd@signs^0,f,c
  4827   0009AE  6C1C               	negf	___fladd@grs^0,c
  4828   0009B0  501C               	movf	___fladd@grs^0,w,c
  4829   0009B2  A4D8               	btfss	status,2,c
  4830   0009B4  EFDE  F004         	goto	u3241
  4831   0009B8  EFE0  F004         	goto	u3240
  4832   0009BC                     u3241:
  4833   0009BC  EFF0  F004         	goto	l842
  4834   0009C0                     u3240:
  4835   0009C0  0E01               	movlw	1
  4836   0009C2  260D               	addwf	___fladd@b^0,f,c
  4837   0009C4  0E00               	movlw	0
  4838   0009C6  220E               	addwfc	(___fladd@b+1)^0,f,c
  4839   0009C8  220F               	addwfc	(___fladd@b+2)^0,f,c
  4840   0009CA  2210               	addwfc	(___fladd@b+3)^0,f,c
  4841   0009CC  EFF0  F004         	goto	l842
  4842   0009D0                     l3632:
  4843   0009D0  5011               	movf	___fladd@a^0,w,c
  4844   0009D2  5E0D               	subwf	___fladd@b^0,f,c
  4845   0009D4  5012               	movf	(___fladd@a+1)^0,w,c
  4846   0009D6  5A0E               	subwfb	(___fladd@b+1)^0,f,c
  4847   0009D8  5013               	movf	(___fladd@a+2)^0,w,c
  4848   0009DA  5A0F               	subwfb	(___fladd@b+2)^0,f,c
  4849   0009DC  5014               	movf	(___fladd@a+3)^0,w,c
  4850   0009DE  5A10               	subwfb	(___fladd@b+3)^0,f,c
  4851   0009E0                     l842:
  4852   0009E0  500D               	movf	___fladd@b^0,w,c
  4853   0009E2  100E               	iorwf	(___fladd@b+1)^0,w,c
  4854   0009E4  100F               	iorwf	(___fladd@b+2)^0,w,c
  4855   0009E6  1010               	iorwf	(___fladd@b+3)^0,w,c
  4856   0009E8  A4D8               	btfss	status,2,c
  4857   0009EA  EFF9  F004         	goto	u3251
  4858   0009EE  EFFB  F004         	goto	u3250
  4859   0009F2                     u3251:
  4860   0009F2  EF30  F005         	goto	l3656
  4861   0009F6                     u3250:
  4862   0009F6  501C               	movf	___fladd@grs^0,w,c
  4863   0009F8  A4D8               	btfss	status,2,c
  4864   0009FA  EF01  F005         	goto	u3261
  4865   0009FE  EF03  F005         	goto	u3260
  4866   000A02                     u3261:
  4867   000A02  EF30  F005         	goto	l3656
  4868   000A06                     u3260:
  4869   000A06  0E00               	movlw	0
  4870   000A08  6E0D               	movwf	?___fladd^0,c
  4871   000A0A  0E00               	movlw	0
  4872   000A0C  6E0E               	movwf	(?___fladd+1)^0,c
  4873   000A0E  0E00               	movlw	0
  4874   000A10  6E0F               	movwf	(?___fladd+2)^0,c
  4875   000A12  0E00               	movlw	0
  4876   000A14  6E10               	movwf	(?___fladd+3)^0,c
  4877   000A16  EFCB  F005         	goto	l834
  4878   000A1A                     l3640:
  4879   000A1A  90D8               	bcf	status,0,c
  4880   000A1C  360D               	rlcf	___fladd@b^0,f,c
  4881   000A1E  360E               	rlcf	(___fladd@b+1)^0,f,c
  4882   000A20  360F               	rlcf	(___fladd@b+2)^0,f,c
  4883   000A22  3610               	rlcf	(___fladd@b+3)^0,f,c
  4884   000A24  AE1C               	btfss	___fladd@grs^0,7,c
  4885   000A26  EF17  F005         	goto	u3271
  4886   000A2A  EF19  F005         	goto	u3270
  4887   000A2E                     u3271:
  4888   000A2E  EF1A  F005         	goto	l3646
  4889   000A32                     u3270:
  4890   000A32  800D               	bsf	___fladd@b^0,0,c
  4891   000A34                     l3646:
  4892   000A34  A01C               	btfss	___fladd@grs^0,0,c
  4893   000A36  EF1F  F005         	goto	u3281
  4894   000A3A  EF21  F005         	goto	u3280
  4895   000A3E                     u3281:
  4896   000A3E  EF25  F005         	goto	l3650
  4897   000A42                     u3280:
  4898   000A42  80D8               	bsf	status,0,c
  4899   000A44  361C               	rlcf	___fladd@grs^0,f,c
  4900   000A46  EF27  F005         	goto	l3652
  4901   000A4A                     l3650:
  4902   000A4A  90D8               	bcf	status,0,c
  4903   000A4C  361C               	rlcf	___fladd@grs^0,f,c
  4904   000A4E                     l3652:
  4905   000A4E  501B               	movf	___fladd@bexp^0,w,c
  4906   000A50  B4D8               	btfsc	status,2,c
  4907   000A52  EF2D  F005         	goto	u3291
  4908   000A56  EF2F  F005         	goto	u3290
  4909   000A5A                     u3291:
  4910   000A5A  EF30  F005         	goto	l3656
  4911   000A5E                     u3290:
  4912   000A5E  061B               	decf	___fladd@bexp^0,f,c
  4913   000A60                     l3656:
  4914   000A60  AE0F               	btfss	(___fladd@b+2)^0,7,c
  4915   000A62  EF35  F005         	goto	u3301
  4916   000A66  EF37  F005         	goto	u3300
  4917   000A6A                     u3301:
  4918   000A6A  EF0D  F005         	goto	l3640
  4919   000A6E                     u3300:
  4920   000A6E                     l3658:
  4921   000A6E  0E00               	movlw	0
  4922   000A70  6E1A               	movwf	___fladd@aexp^0,c
  4923   000A72  AE1C               	btfss	___fladd@grs^0,7,c
  4924   000A74  EF3E  F005         	goto	u3311
  4925   000A78  EF40  F005         	goto	u3310
  4926   000A7C                     u3311:
  4927   000A7C  EF58  F005         	goto	l851
  4928   000A80                     u3310:
  4929   000A80  C01C  F015         	movff	___fladd@grs,??___fladd
  4930   000A84  0E7F               	movlw	127
  4931   000A86  1615               	andwf	??___fladd^0,f,c
  4932   000A88  B4D8               	btfsc	status,2,c
  4933   000A8A  EF49  F005         	goto	u3321
  4934   000A8E  EF4B  F005         	goto	u3320
  4935   000A92                     u3321:
  4936   000A92  EF4F  F005         	goto	l852
  4937   000A96                     u3320:
  4938   000A96                     l3664:
  4939   000A96  0E01               	movlw	1
  4940   000A98  6E1A               	movwf	___fladd@aexp^0,c
  4941   000A9A  EF58  F005         	goto	l851
  4942   000A9E                     l852:
  4943   000A9E  A00D               	btfss	___fladd@b^0,0,c
  4944   000AA0  EF54  F005         	goto	u3331
  4945   000AA4  EF56  F005         	goto	u3330
  4946   000AA8                     u3331:
  4947   000AA8  EF58  F005         	goto	l851
  4948   000AAC                     u3330:
  4949   000AAC  EF4B  F005         	goto	l3664
  4950   000AB0                     l851:
  4951   000AB0  501A               	movf	___fladd@aexp^0,w,c
  4952   000AB2  B4D8               	btfsc	status,2,c
  4953   000AB4  EF5E  F005         	goto	u3341
  4954   000AB8  EF60  F005         	goto	u3340
  4955   000ABC                     u3341:
  4956   000ABC  EF8B  F005         	goto	l3676
  4957   000AC0                     u3340:
  4958   000AC0  0E01               	movlw	1
  4959   000AC2  260D               	addwf	___fladd@b^0,f,c
  4960   000AC4  0E00               	movlw	0
  4961   000AC6  220E               	addwfc	(___fladd@b+1)^0,f,c
  4962   000AC8  220F               	addwfc	(___fladd@b+2)^0,f,c
  4963   000ACA  2210               	addwfc	(___fladd@b+3)^0,f,c
  4964   000ACC  A010               	btfss	(___fladd@b+3)^0,0,c
  4965   000ACE  EF6B  F005         	goto	u3351
  4966   000AD2  EF6D  F005         	goto	u3350
  4967   000AD6                     u3351:
  4968   000AD6  EF8B  F005         	goto	l3676
  4969   000ADA                     u3350:
  4970   000ADA  C00D  F015         	movff	___fladd@b,??___fladd
  4971   000ADE  C00E  F016         	movff	___fladd@b+1,??___fladd+1
  4972   000AE2  C00F  F017         	movff	___fladd@b+2,??___fladd+2
  4973   000AE6  C010  F018         	movff	___fladd@b+3,??___fladd+3
  4974   000AEA  3418               	rlcf	(??___fladd+3)^0,w,c
  4975   000AEC  3218               	rrcf	(??___fladd+3)^0,f,c
  4976   000AEE  3217               	rrcf	(??___fladd+2)^0,f,c
  4977   000AF0  3216               	rrcf	(??___fladd+1)^0,f,c
  4978   000AF2  3215               	rrcf	??___fladd^0,f,c
  4979   000AF4  C015  F00D         	movff	??___fladd,___fladd@b
  4980   000AF8  C016  F00E         	movff	??___fladd+1,___fladd@b+1
  4981   000AFC  C017  F00F         	movff	??___fladd+2,___fladd@b+2
  4982   000B00  C018  F010         	movff	??___fladd+3,___fladd@b+3
  4983   000B04  281B               	incf	___fladd@bexp^0,w,c
  4984   000B06  B4D8               	btfsc	status,2,c
  4985   000B08  EF88  F005         	goto	u3361
  4986   000B0C  EF8A  F005         	goto	u3360
  4987   000B10                     u3361:
  4988   000B10  EF8B  F005         	goto	l3676
  4989   000B14                     u3360:
  4990   000B14  2A1B               	incf	___fladd@bexp^0,f,c
  4991   000B16                     l3676:
  4992   000B16  281B               	incf	___fladd@bexp^0,w,c
  4993   000B18  B4D8               	btfsc	status,2,c
  4994   000B1A  EF91  F005         	goto	u3371
  4995   000B1E  EF93  F005         	goto	u3370
  4996   000B22                     u3371:
  4997   000B22  EF9B  F005         	goto	l3680
  4998   000B26                     u3370:
  4999   000B26  501B               	movf	___fladd@bexp^0,w,c
  5000   000B28  A4D8               	btfss	status,2,c
  5001   000B2A  EF99  F005         	goto	u3381
  5002   000B2E  EF9B  F005         	goto	u3380
  5003   000B32                     u3381:
  5004   000B32  EFAD  F005         	goto	l3684
  5005   000B36                     u3380:
  5006   000B36                     l3680:
  5007   000B36  0E00               	movlw	0
  5008   000B38  6E0D               	movwf	___fladd@b^0,c
  5009   000B3A  0E00               	movlw	0
  5010   000B3C  6E0E               	movwf	(___fladd@b+1)^0,c
  5011   000B3E  0E00               	movlw	0
  5012   000B40  6E0F               	movwf	(___fladd@b+2)^0,c
  5013   000B42  0E00               	movlw	0
  5014   000B44  6E10               	movwf	(___fladd@b+3)^0,c
  5015   000B46  501B               	movf	___fladd@bexp^0,w,c
  5016   000B48  A4D8               	btfss	status,2,c
  5017   000B4A  EFA9  F005         	goto	u3391
  5018   000B4E  EFAB  F005         	goto	u3390
  5019   000B52                     u3391:
  5020   000B52  EFAD  F005         	goto	l3684
  5021   000B56                     u3390:
  5022   000B56  0E00               	movlw	0
  5023   000B58  6E19               	movwf	___fladd@signs^0,c
  5024   000B5A                     l3684:
  5025   000B5A  A01B               	btfss	___fladd@bexp^0,0,c
  5026   000B5C  EFB2  F005         	goto	u3401
  5027   000B60  EFB4  F005         	goto	u3400
  5028   000B64                     u3401:
  5029   000B64  EFB7  F005         	goto	l3688
  5030   000B68                     u3400:
  5031   000B68  8E0F               	bsf	(___fladd@b+2)^0,7,c
  5032   000B6A  EFB8  F005         	goto	l3690
  5033   000B6E                     l3688:
  5034   000B6E  9E0F               	bcf	(___fladd@b+2)^0,7,c
  5035   000B70                     l3690:
  5036   000B70  90D8               	bcf	status,0,c
  5037   000B72  301B               	rrcf	___fladd@bexp^0,w,c
  5038   000B74  6E10               	movwf	(___fladd@b+3)^0,c
  5039   000B76  AE19               	btfss	___fladd@signs^0,7,c
  5040   000B78  EFC0  F005         	goto	u3411
  5041   000B7C  EFC2  F005         	goto	u3410
  5042   000B80                     u3411:
  5043   000B80  EFC3  F005         	goto	l3696
  5044   000B84                     u3410:
  5045   000B84  8E10               	bsf	(___fladd@b+3)^0,7,c
  5046   000B86                     l3696:
  5047   000B86  C00D  F00D         	movff	___fladd@b,?___fladd
  5048   000B8A  C00E  F00E         	movff	___fladd@b+1,?___fladd+1
  5049   000B8E  C00F  F00F         	movff	___fladd@b+2,?___fladd+2
  5050   000B92  C010  F010         	movff	___fladd@b+3,?___fladd+3
  5051   000B96                     l834:
  5052   000B96  0012               	return		;funcret
  5053   000B98                     __end_of___fladd:
  5054                           	callstack 0
  5055                           
  5056 ;; *************** function ___flmul *****************
  5057 ;; Defined at:
  5058 ;;		line 8 in file "/opt/microchip/xc8/v2.46/pic/sources/c99/common/sprcmul.c"
  5059 ;; Parameters:    Size  Location     Type
  5060 ;;  b               4   42[COMRAM] unsigned char 
  5061 ;;  a               4   46[COMRAM] unsigned char 
  5062 ;; Auto vars:     Size  Location     Type
  5063 ;;  prod            4   61[COMRAM] struct .
  5064 ;;  grs             4   56[COMRAM] unsigned long 
  5065 ;;  temp            2   65[COMRAM] struct .
  5066 ;;  bexp            1   60[COMRAM] unsigned char 
  5067 ;;  aexp            1   55[COMRAM] unsigned char 
  5068 ;;  sign            1   54[COMRAM] unsigned char 
  5069 ;; Return value:  Size  Location     Type
  5070 ;;                  4   42[COMRAM] unsigned char 
  5071 ;; Registers used:
  5072 ;;		wreg, status,2, status,0, prodl, prodh
  5073 ;; Tracked objects:
  5074 ;;		On entry : 0/0
  5075 ;;		On exit  : 0/0
  5076 ;;		Unchanged: 0/0
  5077 ;; Data sizes:     COMRAM   BANK0   BANK1   BANK2   BANK3   BANK4   BANK5
  5078 ;;      Params:         8       0       0       0       0       0       0
  5079 ;;      Locals:        13       0       0       0       0       0       0
  5080 ;;      Temps:          4       0       0       0       0       0       0
  5081 ;;      Totals:        25       0       0       0       0       0       0
  5082 ;;Total ram usage:       25 bytes
  5083 ;; Hardware stack levels used: 1
  5084 ;; Hardware stack levels required when called: 3
  5085 ;; This function calls:
  5086 ;;		Nothing
  5087 ;; This function is called by:
  5088 ;;		_BME280_Compensate_Temperature
  5089 ;;		_main
  5090 ;; This function uses a non-reentrant model
  5091 ;;
  5092                           
  5093                           	psect	text28
  5094   001024                     __ptext28:
  5095                           	callstack 0
  5096   001024                     ___flmul:
  5097                           	callstack 27
  5098   001024  502E               	movf	(___flmul@b+3)^0,w,c
  5099   001026  0B80               	andlw	128
  5100   001028  6E37               	movwf	___flmul@sign^0,c
  5101   00102A  502E               	movf	(___flmul@b+3)^0,w,c
  5102   00102C  242E               	addwf	(___flmul@b+3)^0,w,c
  5103   00102E  6E3D               	movwf	___flmul@bexp^0,c
  5104   001030  AE2D               	btfss	(___flmul@b+2)^0,7,c
  5105   001032  EF1D  F008         	goto	u3781
  5106   001036  EF1F  F008         	goto	u3780
  5107   00103A                     u3781:
  5108   00103A  EF20  F008         	goto	l3932
  5109   00103E                     u3780:
  5110   00103E  803D               	bsf	___flmul@bexp^0,0,c
  5111   001040                     l3932:
  5112   001040  503D               	movf	___flmul@bexp^0,w,c
  5113   001042  B4D8               	btfsc	status,2,c
  5114   001044  EF26  F008         	goto	u3791
  5115   001048  EF28  F008         	goto	u3790
  5116   00104C                     u3791:
  5117   00104C  EF3B  F008         	goto	l3940
  5118   001050                     u3790:
  5119   001050  283D               	incf	___flmul@bexp^0,w,c
  5120   001052  A4D8               	btfss	status,2,c
  5121   001054  EF2E  F008         	goto	u3801
  5122   001058  EF30  F008         	goto	u3800
  5123   00105C                     u3801:
  5124   00105C  EF38  F008         	goto	l3938
  5125   001060                     u3800:
  5126   001060  0E00               	movlw	0
  5127   001062  6E2B               	movwf	___flmul@b^0,c
  5128   001064  0E00               	movlw	0
  5129   001066  6E2C               	movwf	(___flmul@b+1)^0,c
  5130   001068  0E00               	movlw	0
  5131   00106A  6E2D               	movwf	(___flmul@b+2)^0,c
  5132   00106C  0E00               	movlw	0
  5133   00106E  6E2E               	movwf	(___flmul@b+3)^0,c
  5134   001070                     l3938:
  5135   001070  8E2D               	bsf	(___flmul@b+2)^0,7,c
  5136   001072  EF43  F008         	goto	l3942
  5137   001076                     l3940:
  5138   001076  0E00               	movlw	0
  5139   001078  6E2B               	movwf	___flmul@b^0,c
  5140   00107A  0E00               	movlw	0
  5141   00107C  6E2C               	movwf	(___flmul@b+1)^0,c
  5142   00107E  0E00               	movlw	0
  5143   001080  6E2D               	movwf	(___flmul@b+2)^0,c
  5144   001082  0E00               	movlw	0
  5145   001084  6E2E               	movwf	(___flmul@b+3)^0,c
  5146   001086                     l3942:
  5147   001086  5032               	movf	(___flmul@a+3)^0,w,c
  5148   001088  0B80               	andlw	128
  5149   00108A  1A37               	xorwf	___flmul@sign^0,f,c
  5150   00108C  5032               	movf	(___flmul@a+3)^0,w,c
  5151   00108E  2432               	addwf	(___flmul@a+3)^0,w,c
  5152   001090  6E38               	movwf	___flmul@aexp^0,c
  5153   001092  AE31               	btfss	(___flmul@a+2)^0,7,c
  5154   001094  EF4E  F008         	goto	u3811
  5155   001098  EF50  F008         	goto	u3810
  5156   00109C                     u3811:
  5157   00109C  EF51  F008         	goto	l3950
  5158   0010A0                     u3810:
  5159   0010A0  8038               	bsf	___flmul@aexp^0,0,c
  5160   0010A2                     l3950:
  5161   0010A2  5038               	movf	___flmul@aexp^0,w,c
  5162   0010A4  B4D8               	btfsc	status,2,c
  5163   0010A6  EF57  F008         	goto	u3821
  5164   0010AA  EF59  F008         	goto	u3820
  5165   0010AE                     u3821:
  5166   0010AE  EF6C  F008         	goto	l3958
  5167   0010B2                     u3820:
  5168   0010B2  2838               	incf	___flmul@aexp^0,w,c
  5169   0010B4  A4D8               	btfss	status,2,c
  5170   0010B6  EF5F  F008         	goto	u3831
  5171   0010BA  EF61  F008         	goto	u3830
  5172   0010BE                     u3831:
  5173   0010BE  EF69  F008         	goto	l3956
  5174   0010C2                     u3830:
  5175   0010C2  0E00               	movlw	0
  5176   0010C4  6E2F               	movwf	___flmul@a^0,c
  5177   0010C6  0E00               	movlw	0
  5178   0010C8  6E30               	movwf	(___flmul@a+1)^0,c
  5179   0010CA  0E00               	movlw	0
  5180   0010CC  6E31               	movwf	(___flmul@a+2)^0,c
  5181   0010CE  0E00               	movlw	0
  5182   0010D0  6E32               	movwf	(___flmul@a+3)^0,c
  5183   0010D2                     l3956:
  5184   0010D2  8E31               	bsf	(___flmul@a+2)^0,7,c
  5185   0010D4  EF74  F008         	goto	l911
  5186   0010D8                     l3958:
  5187   0010D8  0E00               	movlw	0
  5188   0010DA  6E2F               	movwf	___flmul@a^0,c
  5189   0010DC  0E00               	movlw	0
  5190   0010DE  6E30               	movwf	(___flmul@a+1)^0,c
  5191   0010E0  0E00               	movlw	0
  5192   0010E2  6E31               	movwf	(___flmul@a+2)^0,c
  5193   0010E4  0E00               	movlw	0
  5194   0010E6  6E32               	movwf	(___flmul@a+3)^0,c
  5195   0010E8                     l911:
  5196   0010E8  5038               	movf	___flmul@aexp^0,w,c
  5197   0010EA  B4D8               	btfsc	status,2,c
  5198   0010EC  EF7A  F008         	goto	u3841
  5199   0010F0  EF7C  F008         	goto	u3840
  5200   0010F4                     u3841:
  5201   0010F4  EF84  F008         	goto	l3962
  5202   0010F8                     u3840:
  5203   0010F8  503D               	movf	___flmul@bexp^0,w,c
  5204   0010FA  A4D8               	btfss	status,2,c
  5205   0010FC  EF82  F008         	goto	u3851
  5206   001100  EF84  F008         	goto	u3850
  5207   001104                     u3851:
  5208   001104  EF8E  F008         	goto	l3966
  5209   001108                     u3850:
  5210   001108                     l3962:
  5211   001108  0E00               	movlw	0
  5212   00110A  6E2B               	movwf	?___flmul^0,c
  5213   00110C  0E00               	movlw	0
  5214   00110E  6E2C               	movwf	(?___flmul+1)^0,c
  5215   001110  0E00               	movlw	0
  5216   001112  6E2D               	movwf	(?___flmul+2)^0,c
  5217   001114  0E00               	movlw	0
  5218   001116  6E2E               	movwf	(?___flmul+3)^0,c
  5219   001118  EF26  F00A         	goto	l915
  5220   00111C                     l3966:
  5221   00111C  5031               	movf	(___flmul@a+2)^0,w,c
  5222   00111E  022B               	mulwf	___flmul@b^0,c
  5223   001120  CFF3 F042          	movff	prodl,___flmul@temp
  5224   001124  CFF4 F043          	movff	prodh,___flmul@temp+1
  5225   001128  5042               	movf	___flmul@temp^0,w,c
  5226   00112A  6E39               	movwf	___flmul@grs^0,c
  5227   00112C  6A3A               	clrf	(___flmul@grs+1)^0,c
  5228   00112E  6A3B               	clrf	(___flmul@grs+2)^0,c
  5229   001130  6A3C               	clrf	(___flmul@grs+3)^0,c
  5230   001132  5043               	movf	(___flmul@temp+1)^0,w,c
  5231   001134  6E3E               	movwf	___flmul@prod^0,c
  5232   001136  6A3F               	clrf	(___flmul@prod+1)^0,c
  5233   001138  6A40               	clrf	(___flmul@prod+2)^0,c
  5234   00113A  6A41               	clrf	(___flmul@prod+3)^0,c
  5235   00113C  5030               	movf	(___flmul@a+1)^0,w,c
  5236   00113E  022C               	mulwf	(___flmul@b+1)^0,c
  5237   001140  CFF3 F042          	movff	prodl,___flmul@temp
  5238   001144  CFF4 F043          	movff	prodh,___flmul@temp+1
  5239   001148  5042               	movf	___flmul@temp^0,w,c
  5240   00114A  2639               	addwf	___flmul@grs^0,f,c
  5241   00114C  0E00               	movlw	0
  5242   00114E  223A               	addwfc	(___flmul@grs+1)^0,f,c
  5243   001150  223B               	addwfc	(___flmul@grs+2)^0,f,c
  5244   001152  223C               	addwfc	(___flmul@grs+3)^0,f,c
  5245   001154  5043               	movf	(___flmul@temp+1)^0,w,c
  5246   001156  263E               	addwf	___flmul@prod^0,f,c
  5247   001158  0E00               	movlw	0
  5248   00115A  223F               	addwfc	(___flmul@prod+1)^0,f,c
  5249   00115C  2240               	addwfc	(___flmul@prod+2)^0,f,c
  5250   00115E  2241               	addwfc	(___flmul@prod+3)^0,f,c
  5251   001160  502F               	movf	___flmul@a^0,w,c
  5252   001162  022D               	mulwf	(___flmul@b+2)^0,c
  5253   001164  CFF3 F042          	movff	prodl,___flmul@temp
  5254   001168  CFF4 F043          	movff	prodh,___flmul@temp+1
  5255   00116C  5042               	movf	___flmul@temp^0,w,c
  5256   00116E  2639               	addwf	___flmul@grs^0,f,c
  5257   001170  0E00               	movlw	0
  5258   001172  223A               	addwfc	(___flmul@grs+1)^0,f,c
  5259   001174  223B               	addwfc	(___flmul@grs+2)^0,f,c
  5260   001176  223C               	addwfc	(___flmul@grs+3)^0,f,c
  5261   001178  5043               	movf	(___flmul@temp+1)^0,w,c
  5262   00117A  263E               	addwf	___flmul@prod^0,f,c
  5263   00117C  0E00               	movlw	0
  5264   00117E  223F               	addwfc	(___flmul@prod+1)^0,f,c
  5265   001180  2240               	addwfc	(___flmul@prod+2)^0,f,c
  5266   001182  2241               	addwfc	(___flmul@prod+3)^0,f,c
  5267   001184  C03B  F03C         	movff	___flmul@grs+2,___flmul@grs+3
  5268   001188  C03A  F03B         	movff	___flmul@grs+1,___flmul@grs+2
  5269   00118C  C039  F03A         	movff	___flmul@grs,___flmul@grs+1
  5270   001190  6A39               	clrf	___flmul@grs^0,c
  5271   001192  502F               	movf	___flmul@a^0,w,c
  5272   001194  022C               	mulwf	(___flmul@b+1)^0,c
  5273   001196  CFF3 F042          	movff	prodl,___flmul@temp
  5274   00119A  CFF4 F043          	movff	prodh,___flmul@temp+1
  5275   00119E  5042               	movf	___flmul@temp^0,w,c
  5276   0011A0  2639               	addwf	___flmul@grs^0,f,c
  5277   0011A2  5043               	movf	(___flmul@temp+1)^0,w,c
  5278   0011A4  223A               	addwfc	(___flmul@grs+1)^0,f,c
  5279   0011A6  0E00               	movlw	0
  5280   0011A8  223B               	addwfc	(___flmul@grs+2)^0,f,c
  5281   0011AA  0E00               	movlw	0
  5282   0011AC  223C               	addwfc	(___flmul@grs+3)^0,f,c
  5283   0011AE  5030               	movf	(___flmul@a+1)^0,w,c
  5284   0011B0  022B               	mulwf	___flmul@b^0,c
  5285   0011B2  CFF3 F042          	movff	prodl,___flmul@temp
  5286   0011B6  CFF4 F043          	movff	prodh,___flmul@temp+1
  5287   0011BA  5042               	movf	___flmul@temp^0,w,c
  5288   0011BC  2639               	addwf	___flmul@grs^0,f,c
  5289   0011BE  5043               	movf	(___flmul@temp+1)^0,w,c
  5290   0011C0  223A               	addwfc	(___flmul@grs+1)^0,f,c
  5291   0011C2  0E00               	movlw	0
  5292   0011C4  223B               	addwfc	(___flmul@grs+2)^0,f,c
  5293   0011C6  0E00               	movlw	0
  5294   0011C8  223C               	addwfc	(___flmul@grs+3)^0,f,c
  5295   0011CA  C03B  F03C         	movff	___flmul@grs+2,___flmul@grs+3
  5296   0011CE  C03A  F03B         	movff	___flmul@grs+1,___flmul@grs+2
  5297   0011D2  C039  F03A         	movff	___flmul@grs,___flmul@grs+1
  5298   0011D6  6A39               	clrf	___flmul@grs^0,c
  5299   0011D8  502F               	movf	___flmul@a^0,w,c
  5300   0011DA  022B               	mulwf	___flmul@b^0,c
  5301   0011DC  CFF3 F042          	movff	prodl,___flmul@temp
  5302   0011E0  CFF4 F043          	movff	prodh,___flmul@temp+1
  5303   0011E4  5042               	movf	___flmul@temp^0,w,c
  5304   0011E6  2639               	addwf	___flmul@grs^0,f,c
  5305   0011E8  5043               	movf	(___flmul@temp+1)^0,w,c
  5306   0011EA  223A               	addwfc	(___flmul@grs+1)^0,f,c
  5307   0011EC  0E00               	movlw	0
  5308   0011EE  223B               	addwfc	(___flmul@grs+2)^0,f,c
  5309   0011F0  0E00               	movlw	0
  5310   0011F2  223C               	addwfc	(___flmul@grs+3)^0,f,c
  5311   0011F4  5031               	movf	(___flmul@a+2)^0,w,c
  5312   0011F6  022C               	mulwf	(___flmul@b+1)^0,c
  5313   0011F8  CFF3 F042          	movff	prodl,___flmul@temp
  5314   0011FC  CFF4 F043          	movff	prodh,___flmul@temp+1
  5315   001200  5042               	movf	___flmul@temp^0,w,c
  5316   001202  263E               	addwf	___flmul@prod^0,f,c
  5317   001204  5043               	movf	(___flmul@temp+1)^0,w,c
  5318   001206  223F               	addwfc	(___flmul@prod+1)^0,f,c
  5319   001208  0E00               	movlw	0
  5320   00120A  2240               	addwfc	(___flmul@prod+2)^0,f,c
  5321   00120C  0E00               	movlw	0
  5322   00120E  2241               	addwfc	(___flmul@prod+3)^0,f,c
  5323   001210  5030               	movf	(___flmul@a+1)^0,w,c
  5324   001212  022D               	mulwf	(___flmul@b+2)^0,c
  5325   001214  CFF3 F042          	movff	prodl,___flmul@temp
  5326   001218  CFF4 F043          	movff	prodh,___flmul@temp+1
  5327   00121C  5042               	movf	___flmul@temp^0,w,c
  5328   00121E  263E               	addwf	___flmul@prod^0,f,c
  5329   001220  5043               	movf	(___flmul@temp+1)^0,w,c
  5330   001222  223F               	addwfc	(___flmul@prod+1)^0,f,c
  5331   001224  0E00               	movlw	0
  5332   001226  2240               	addwfc	(___flmul@prod+2)^0,f,c
  5333   001228  0E00               	movlw	0
  5334   00122A  2241               	addwfc	(___flmul@prod+3)^0,f,c
  5335   00122C  5031               	movf	(___flmul@a+2)^0,w,c
  5336   00122E  022D               	mulwf	(___flmul@b+2)^0,c
  5337   001230  CFF3 F042          	movff	prodl,___flmul@temp
  5338   001234  CFF4 F043          	movff	prodh,___flmul@temp+1
  5339   001238  5042               	movf	___flmul@temp^0,w,c
  5340   00123A  6E33               	movwf	??___flmul^0,c
  5341   00123C  5043               	movf	(___flmul@temp+1)^0,w,c
  5342   00123E  6E34               	movwf	(??___flmul+1)^0,c
  5343   001240  6A35               	clrf	(??___flmul+2)^0,c
  5344   001242  6A36               	clrf	(??___flmul+3)^0,c
  5345   001244  C035  F036         	movff	??___flmul+2,??___flmul+3
  5346   001248  C034  F035         	movff	??___flmul+1,??___flmul+2
  5347   00124C  C033  F034         	movff	??___flmul,??___flmul+1
  5348   001250  6A33               	clrf	??___flmul^0,c
  5349   001252  5033               	movf	??___flmul^0,w,c
  5350   001254  263E               	addwf	___flmul@prod^0,f,c
  5351   001256  5034               	movf	(??___flmul+1)^0,w,c
  5352   001258  223F               	addwfc	(___flmul@prod+1)^0,f,c
  5353   00125A  5035               	movf	(??___flmul+2)^0,w,c
  5354   00125C  2240               	addwfc	(___flmul@prod+2)^0,f,c
  5355   00125E  5036               	movf	(??___flmul+3)^0,w,c
  5356   001260  2241               	addwfc	(___flmul@prod+3)^0,f,c
  5357   001262  C039  F033         	movff	___flmul@grs,??___flmul
  5358   001266  C03A  F034         	movff	___flmul@grs+1,??___flmul+1
  5359   00126A  C03B  F035         	movff	___flmul@grs+2,??___flmul+2
  5360   00126E  C03C  F036         	movff	___flmul@grs+3,??___flmul+3
  5361   001272  0E19               	movlw	25
  5362   001274  EF41  F009         	goto	u3860
  5363   001278                     u3865:
  5364   001278  90D8               	bcf	status,0,c
  5365   00127A  3236               	rrcf	(??___flmul+3)^0,f,c
  5366   00127C  3235               	rrcf	(??___flmul+2)^0,f,c
  5367   00127E  3234               	rrcf	(??___flmul+1)^0,f,c
  5368   001280  3233               	rrcf	??___flmul^0,f,c
  5369   001282                     u3860:
  5370   001282  2EE8               	decfsz	wreg,f,c
  5371   001284  EF3C  F009         	goto	u3865
  5372   001288  5033               	movf	??___flmul^0,w,c
  5373   00128A  263E               	addwf	___flmul@prod^0,f,c
  5374   00128C  5034               	movf	(??___flmul+1)^0,w,c
  5375   00128E  223F               	addwfc	(___flmul@prod+1)^0,f,c
  5376   001290  5035               	movf	(??___flmul+2)^0,w,c
  5377   001292  2240               	addwfc	(___flmul@prod+2)^0,f,c
  5378   001294  5036               	movf	(??___flmul+3)^0,w,c
  5379   001296  2241               	addwfc	(___flmul@prod+3)^0,f,c
  5380   001298  C03B  F03C         	movff	___flmul@grs+2,___flmul@grs+3
  5381   00129C  C03A  F03B         	movff	___flmul@grs+1,___flmul@grs+2
  5382   0012A0  C039  F03A         	movff	___flmul@grs,___flmul@grs+1
  5383   0012A4  6A39               	clrf	___flmul@grs^0,c
  5384   0012A6  5038               	movf	___flmul@aexp^0,w,c
  5385   0012A8  C03D  F033         	movff	___flmul@bexp,??___flmul
  5386   0012AC  6A34               	clrf	(??___flmul+1)^0,c
  5387   0012AE  2633               	addwf	??___flmul^0,f,c
  5388   0012B0  0E00               	movlw	0
  5389   0012B2  2234               	addwfc	(??___flmul+1)^0,f,c
  5390   0012B4  0E82               	movlw	130
  5391   0012B6  2433               	addwf	??___flmul^0,w,c
  5392   0012B8  6E42               	movwf	___flmul@temp^0,c
  5393   0012BA  0EFF               	movlw	255
  5394   0012BC  2034               	addwfc	(??___flmul+1)^0,w,c
  5395   0012BE  6E43               	movwf	(___flmul@temp+1)^0,c
  5396   0012C0  EF77  F009         	goto	l4014
  5397   0012C4                     l4008:
  5398   0012C4  90D8               	bcf	status,0,c
  5399   0012C6  363E               	rlcf	___flmul@prod^0,f,c
  5400   0012C8  363F               	rlcf	(___flmul@prod+1)^0,f,c
  5401   0012CA  3640               	rlcf	(___flmul@prod+2)^0,f,c
  5402   0012CC  3641               	rlcf	(___flmul@prod+3)^0,f,c
  5403   0012CE  AE3C               	btfss	(___flmul@grs+3)^0,7,c
  5404   0012D0  EF6C  F009         	goto	u3871
  5405   0012D4  EF6E  F009         	goto	u3870
  5406   0012D8                     u3871:
  5407   0012D8  EF6F  F009         	goto	l918
  5408   0012DC                     u3870:
  5409   0012DC  803E               	bsf	___flmul@prod^0,0,c
  5410   0012DE                     l918:
  5411   0012DE  90D8               	bcf	status,0,c
  5412   0012E0  3639               	rlcf	___flmul@grs^0,f,c
  5413   0012E2  363A               	rlcf	(___flmul@grs+1)^0,f,c
  5414   0012E4  363B               	rlcf	(___flmul@grs+2)^0,f,c
  5415   0012E6  363C               	rlcf	(___flmul@grs+3)^0,f,c
  5416   0012E8  0642               	decf	___flmul@temp^0,f,c
  5417   0012EA  A0D8               	btfss	status,0,c
  5418   0012EC  0643               	decf	(___flmul@temp+1)^0,f,c
  5419   0012EE                     l4014:
  5420   0012EE  AE40               	btfss	(___flmul@prod+2)^0,7,c
  5421   0012F0  EF7C  F009         	goto	u3881
  5422   0012F4  EF7E  F009         	goto	u3880
  5423   0012F8                     u3881:
  5424   0012F8  EF62  F009         	goto	l4008
  5425   0012FC                     u3880:
  5426   0012FC  0E00               	movlw	0
  5427   0012FE  6E38               	movwf	___flmul@aexp^0,c
  5428   001300  AE3C               	btfss	(___flmul@grs+3)^0,7,c
  5429   001302  EF85  F009         	goto	u3891
  5430   001306  EF87  F009         	goto	u3890
  5431   00130A                     u3891:
  5432   00130A  EFAB  F009         	goto	l920
  5433   00130E                     u3890:
  5434   00130E  0EFF               	movlw	255
  5435   001310  1439               	andwf	___flmul@grs^0,w,c
  5436   001312  6E33               	movwf	??___flmul^0,c
  5437   001314  0EFF               	movlw	255
  5438   001316  143A               	andwf	(___flmul@grs+1)^0,w,c
  5439   001318  6E34               	movwf	(??___flmul+1)^0,c
  5440   00131A  0EFF               	movlw	255
  5441   00131C  143B               	andwf	(___flmul@grs+2)^0,w,c
  5442   00131E  6E35               	movwf	(??___flmul+2)^0,c
  5443   001320  0E7F               	movlw	127
  5444   001322  143C               	andwf	(___flmul@grs+3)^0,w,c
  5445   001324  6E36               	movwf	(??___flmul+3)^0,c
  5446   001326  5033               	movf	??___flmul^0,w,c
  5447   001328  1034               	iorwf	(??___flmul+1)^0,w,c
  5448   00132A  1035               	iorwf	(??___flmul+2)^0,w,c
  5449   00132C  1036               	iorwf	(??___flmul+3)^0,w,c
  5450   00132E  B4D8               	btfsc	status,2,c
  5451   001330  EF9C  F009         	goto	u3901
  5452   001334  EF9E  F009         	goto	u3900
  5453   001338                     u3901:
  5454   001338  EFA2  F009         	goto	l921
  5455   00133C                     u3900:
  5456   00133C                     l4022:
  5457   00133C  0E01               	movlw	1
  5458   00133E  6E38               	movwf	___flmul@aexp^0,c
  5459   001340  EFAB  F009         	goto	l920
  5460   001344                     l921:
  5461   001344  A03E               	btfss	___flmul@prod^0,0,c
  5462   001346  EFA7  F009         	goto	u3911
  5463   00134A  EFA9  F009         	goto	u3910
  5464   00134E                     u3911:
  5465   00134E  EFAB  F009         	goto	l920
  5466   001352                     u3910:
  5467   001352  EF9E  F009         	goto	l4022
  5468   001356                     l920:
  5469   001356  5038               	movf	___flmul@aexp^0,w,c
  5470   001358  B4D8               	btfsc	status,2,c
  5471   00135A  EFB1  F009         	goto	u3921
  5472   00135E  EFB3  F009         	goto	u3920
  5473   001362                     u3921:
  5474   001362  EFD7  F009         	goto	l4034
  5475   001366                     u3920:
  5476   001366  0E01               	movlw	1
  5477   001368  263E               	addwf	___flmul@prod^0,f,c
  5478   00136A  0E00               	movlw	0
  5479   00136C  223F               	addwfc	(___flmul@prod+1)^0,f,c
  5480   00136E  2240               	addwfc	(___flmul@prod+2)^0,f,c
  5481   001370  2241               	addwfc	(___flmul@prod+3)^0,f,c
  5482   001372  A041               	btfss	(___flmul@prod+3)^0,0,c
  5483   001374  EFBE  F009         	goto	u3931
  5484   001378  EFC0  F009         	goto	u3930
  5485   00137C                     u3931:
  5486   00137C  EFD7  F009         	goto	l4034
  5487   001380                     u3930:
  5488   001380  C03E  F033         	movff	___flmul@prod,??___flmul
  5489   001384  C03F  F034         	movff	___flmul@prod+1,??___flmul+1
  5490   001388  C040  F035         	movff	___flmul@prod+2,??___flmul+2
  5491   00138C  C041  F036         	movff	___flmul@prod+3,??___flmul+3
  5492   001390  3436               	rlcf	(??___flmul+3)^0,w,c
  5493   001392  3236               	rrcf	(??___flmul+3)^0,f,c
  5494   001394  3235               	rrcf	(??___flmul+2)^0,f,c
  5495   001396  3234               	rrcf	(??___flmul+1)^0,f,c
  5496   001398  3233               	rrcf	??___flmul^0,f,c
  5497   00139A  C033  F03E         	movff	??___flmul,___flmul@prod
  5498   00139E  C034  F03F         	movff	??___flmul+1,___flmul@prod+1
  5499   0013A2  C035  F040         	movff	??___flmul+2,___flmul@prod+2
  5500   0013A6  C036  F041         	movff	??___flmul+3,___flmul@prod+3
  5501   0013AA  4A42               	infsnz	___flmul@temp^0,f,c
  5502   0013AC  2A43               	incf	(___flmul@temp+1)^0,f,c
  5503   0013AE                     l4034:
  5504   0013AE  BE43               	btfsc	(___flmul@temp+1)^0,7,c
  5505   0013B0  EFE2  F009         	goto	u3941
  5506   0013B4  5043               	movf	(___flmul@temp+1)^0,w,c
  5507   0013B6  E108               	bnz	u3940
  5508   0013B8  2842               	incf	___flmul@temp^0,w,c
  5509   0013BA  A0D8               	btfss	status,0,c
  5510   0013BC  EFE2  F009         	goto	u3941
  5511   0013C0  EFE4  F009         	goto	u3940
  5512   0013C4                     u3941:
  5513   0013C4  EFEE  F009         	goto	l4038
  5514   0013C8                     u3940:
  5515   0013C8  0E00               	movlw	0
  5516   0013CA  6E3E               	movwf	___flmul@prod^0,c
  5517   0013CC  0E00               	movlw	0
  5518   0013CE  6E3F               	movwf	(___flmul@prod+1)^0,c
  5519   0013D0  0E80               	movlw	128
  5520   0013D2  6E40               	movwf	(___flmul@prod+2)^0,c
  5521   0013D4  0E7F               	movlw	127
  5522   0013D6  6E41               	movwf	(___flmul@prod+3)^0,c
  5523   0013D8  EF1C  F00A         	goto	l4050
  5524   0013DC                     l4038:
  5525   0013DC  BE43               	btfsc	(___flmul@temp+1)^0,7,c
  5526   0013DE  EFFB  F009         	goto	u3950
  5527   0013E2  5043               	movf	(___flmul@temp+1)^0,w,c
  5528   0013E4  E106               	bnz	u3951
  5529   0013E6  0442               	decf	___flmul@temp^0,w,c
  5530   0013E8  B0D8               	btfsc	status,0,c
  5531   0013EA  EFF9  F009         	goto	u3951
  5532   0013EE  EFFB  F009         	goto	u3950
  5533   0013F2                     u3951:
  5534   0013F2  EF07  F00A         	goto	l928
  5535   0013F6                     u3950:
  5536   0013F6  0E00               	movlw	0
  5537   0013F8  6E3E               	movwf	___flmul@prod^0,c
  5538   0013FA  0E00               	movlw	0
  5539   0013FC  6E3F               	movwf	(___flmul@prod+1)^0,c
  5540   0013FE  0E00               	movlw	0
  5541   001400  6E40               	movwf	(___flmul@prod+2)^0,c
  5542   001402  0E00               	movlw	0
  5543   001404  6E41               	movwf	(___flmul@prod+3)^0,c
  5544   001406  0E00               	movlw	0
  5545   001408  6E37               	movwf	___flmul@sign^0,c
  5546   00140A  EF1C  F00A         	goto	l4050
  5547   00140E                     l928:
  5548   00140E  C042  F03D         	movff	___flmul@temp,___flmul@bexp
  5549   001412  0EFF               	movlw	255
  5550   001414  163E               	andwf	___flmul@prod^0,f,c
  5551   001416  0EFF               	movlw	255
  5552   001418  163F               	andwf	(___flmul@prod+1)^0,f,c
  5553   00141A  0E7F               	movlw	127
  5554   00141C  1640               	andwf	(___flmul@prod+2)^0,f,c
  5555   00141E  0E00               	movlw	0
  5556   001420  1641               	andwf	(___flmul@prod+3)^0,f,c
  5557   001422  A03D               	btfss	___flmul@bexp^0,0,c
  5558   001424  EF16  F00A         	goto	u3961
  5559   001428  EF18  F00A         	goto	u3960
  5560   00142C                     u3961:
  5561   00142C  EF19  F00A         	goto	l4048
  5562   001430                     u3960:
  5563   001430  8E40               	bsf	(___flmul@prod+2)^0,7,c
  5564   001432                     l4048:
  5565   001432  90D8               	bcf	status,0,c
  5566   001434  303D               	rrcf	___flmul@bexp^0,w,c
  5567   001436  6E41               	movwf	(___flmul@prod+3)^0,c
  5568   001438                     l4050:
  5569   001438  5037               	movf	___flmul@sign^0,w,c
  5570   00143A  1241               	iorwf	(___flmul@prod+3)^0,f,c
  5571   00143C  C03E  F02B         	movff	___flmul@prod,?___flmul
  5572   001440  C03F  F02C         	movff	___flmul@prod+1,?___flmul+1
  5573   001444  C040  F02D         	movff	___flmul@prod+2,?___flmul+2
  5574   001448  C041  F02E         	movff	___flmul@prod+3,?___flmul+3
  5575   00144C                     l915:
  5576   00144C  0012               	return		;funcret
  5577   00144E                     __end_of___flmul:
  5578                           	callstack 0
  5579                           
  5580 ;; *************** function ___fldiv *****************
  5581 ;; Defined at:
  5582 ;;		line 11 in file "/opt/microchip/xc8/v2.46/pic/sources/c99/common/sprcdiv.c"
  5583 ;; Parameters:    Size  Location     Type
  5584 ;;  b               4   42[COMRAM] unsigned char 
  5585 ;;  a               4   46[COMRAM] unsigned char 
  5586 ;; Auto vars:     Size  Location     Type
  5587 ;;  grs             4   61[COMRAM] unsigned long 
  5588 ;;  rem             4   54[COMRAM] unsigned long 
  5589 ;;  new_exp         2   59[COMRAM] short 
  5590 ;;  aexp            1   66[COMRAM] unsigned char 
  5591 ;;  bexp            1   65[COMRAM] unsigned char 
  5592 ;;  sign            1   58[COMRAM] unsigned char 
  5593 ;; Return value:  Size  Location     Type
  5594 ;;                  4   42[COMRAM] unsigned char 
  5595 ;; Registers used:
  5596 ;;		wreg, status,2, status,0
  5597 ;; Tracked objects:
  5598 ;;		On entry : 0/0
  5599 ;;		On exit  : 0/0
  5600 ;;		Unchanged: 0/0
  5601 ;; Data sizes:     COMRAM   BANK0   BANK1   BANK2   BANK3   BANK4   BANK5
  5602 ;;      Params:         8       0       0       0       0       0       0
  5603 ;;      Locals:        13       0       0       0       0       0       0
  5604 ;;      Temps:          4       0       0       0       0       0       0
  5605 ;;      Totals:        25       0       0       0       0       0       0
  5606 ;;Total ram usage:       25 bytes
  5607 ;; Hardware stack levels used: 1
  5608 ;; Hardware stack levels required when called: 3
  5609 ;; This function calls:
  5610 ;;		Nothing
  5611 ;; This function is called by:
  5612 ;;		_BME280_Compensate_Temperature
  5613 ;; This function uses a non-reentrant model
  5614 ;;
  5615                           
  5616                           	psect	text29
  5617   00144E                     __ptext29:
  5618                           	callstack 0
  5619   00144E                     ___fldiv:
  5620                           	callstack 26
  5621   00144E  502E               	movf	(___fldiv@b+3)^0,w,c
  5622   001450  0B80               	andlw	128
  5623   001452  6E3B               	movwf	___fldiv@sign^0,c
  5624   001454  502E               	movf	(___fldiv@b+3)^0,w,c
  5625   001456  242E               	addwf	(___fldiv@b+3)^0,w,c
  5626   001458  6E42               	movwf	___fldiv@bexp^0,c
  5627   00145A  AE2D               	btfss	(___fldiv@b+2)^0,7,c
  5628   00145C  EF32  F00A         	goto	u3551
  5629   001460  EF34  F00A         	goto	u3550
  5630   001464                     u3551:
  5631   001464  EF35  F00A         	goto	l3794
  5632   001468                     u3550:
  5633   001468  8042               	bsf	___fldiv@bexp^0,0,c
  5634   00146A                     l3794:
  5635   00146A  5042               	movf	___fldiv@bexp^0,w,c
  5636   00146C  B4D8               	btfsc	status,2,c
  5637   00146E  EF3B  F00A         	goto	u3561
  5638   001472  EF3D  F00A         	goto	u3560
  5639   001476                     u3561:
  5640   001476  EF52  F00A         	goto	l3804
  5641   00147A                     u3560:
  5642   00147A  2842               	incf	___fldiv@bexp^0,w,c
  5643   00147C  A4D8               	btfss	status,2,c
  5644   00147E  EF43  F00A         	goto	u3571
  5645   001482  EF45  F00A         	goto	u3570
  5646   001486                     u3571:
  5647   001486  EF4D  F00A         	goto	l3800
  5648   00148A                     u3570:
  5649   00148A  0E00               	movlw	0
  5650   00148C  6E2B               	movwf	___fldiv@b^0,c
  5651   00148E  0E00               	movlw	0
  5652   001490  6E2C               	movwf	(___fldiv@b+1)^0,c
  5653   001492  0E00               	movlw	0
  5654   001494  6E2D               	movwf	(___fldiv@b+2)^0,c
  5655   001496  0E00               	movlw	0
  5656   001498  6E2E               	movwf	(___fldiv@b+3)^0,c
  5657   00149A                     l3800:
  5658   00149A  8E2D               	bsf	(___fldiv@b+2)^0,7,c
  5659   00149C  0E00               	movlw	0
  5660   00149E  6E2E               	movwf	(___fldiv@b+3)^0,c
  5661   0014A0  EF5A  F00A         	goto	l3806
  5662   0014A4                     l3804:
  5663   0014A4  0E00               	movlw	0
  5664   0014A6  6E2B               	movwf	___fldiv@b^0,c
  5665   0014A8  0E00               	movlw	0
  5666   0014AA  6E2C               	movwf	(___fldiv@b+1)^0,c
  5667   0014AC  0E00               	movlw	0
  5668   0014AE  6E2D               	movwf	(___fldiv@b+2)^0,c
  5669   0014B0  0E00               	movlw	0
  5670   0014B2  6E2E               	movwf	(___fldiv@b+3)^0,c
  5671   0014B4                     l3806:
  5672   0014B4  5032               	movf	(___fldiv@a+3)^0,w,c
  5673   0014B6  0B80               	andlw	128
  5674   0014B8  1A3B               	xorwf	___fldiv@sign^0,f,c
  5675   0014BA  5032               	movf	(___fldiv@a+3)^0,w,c
  5676   0014BC  2432               	addwf	(___fldiv@a+3)^0,w,c
  5677   0014BE  6E43               	movwf	___fldiv@aexp^0,c
  5678   0014C0  AE31               	btfss	(___fldiv@a+2)^0,7,c
  5679   0014C2  EF65  F00A         	goto	u3581
  5680   0014C6  EF67  F00A         	goto	u3580
  5681   0014CA                     u3581:
  5682   0014CA  EF68  F00A         	goto	l3814
  5683   0014CE                     u3580:
  5684   0014CE  8043               	bsf	___fldiv@aexp^0,0,c
  5685   0014D0                     l3814:
  5686   0014D0  5043               	movf	___fldiv@aexp^0,w,c
  5687   0014D2  B4D8               	btfsc	status,2,c
  5688   0014D4  EF6E  F00A         	goto	u3591
  5689   0014D8  EF70  F00A         	goto	u3590
  5690   0014DC                     u3591:
  5691   0014DC  EF85  F00A         	goto	l3824
  5692   0014E0                     u3590:
  5693   0014E0  2843               	incf	___fldiv@aexp^0,w,c
  5694   0014E2  A4D8               	btfss	status,2,c
  5695   0014E4  EF76  F00A         	goto	u3601
  5696   0014E8  EF78  F00A         	goto	u3600
  5697   0014EC                     u3601:
  5698   0014EC  EF80  F00A         	goto	l3820
  5699   0014F0                     u3600:
  5700   0014F0  0E00               	movlw	0
  5701   0014F2  6E2F               	movwf	___fldiv@a^0,c
  5702   0014F4  0E00               	movlw	0
  5703   0014F6  6E30               	movwf	(___fldiv@a+1)^0,c
  5704   0014F8  0E00               	movlw	0
  5705   0014FA  6E31               	movwf	(___fldiv@a+2)^0,c
  5706   0014FC  0E00               	movlw	0
  5707   0014FE  6E32               	movwf	(___fldiv@a+3)^0,c
  5708   001500                     l3820:
  5709   001500  8E31               	bsf	(___fldiv@a+2)^0,7,c
  5710   001502  0E00               	movlw	0
  5711   001504  6E32               	movwf	(___fldiv@a+3)^0,c
  5712   001506  EF8D  F00A         	goto	l3826
  5713   00150A                     l3824:
  5714   00150A  0E00               	movlw	0
  5715   00150C  6E2F               	movwf	___fldiv@a^0,c
  5716   00150E  0E00               	movlw	0
  5717   001510  6E30               	movwf	(___fldiv@a+1)^0,c
  5718   001512  0E00               	movlw	0
  5719   001514  6E31               	movwf	(___fldiv@a+2)^0,c
  5720   001516  0E00               	movlw	0
  5721   001518  6E32               	movwf	(___fldiv@a+3)^0,c
  5722   00151A                     l3826:
  5723   00151A  502F               	movf	___fldiv@a^0,w,c
  5724   00151C  1030               	iorwf	(___fldiv@a+1)^0,w,c
  5725   00151E  1031               	iorwf	(___fldiv@a+2)^0,w,c
  5726   001520  1032               	iorwf	(___fldiv@a+3)^0,w,c
  5727   001522  A4D8               	btfss	status,2,c
  5728   001524  EF96  F00A         	goto	u3611
  5729   001528  EF98  F00A         	goto	u3610
  5730   00152C                     u3611:
  5731   00152C  EFB0  F00A         	goto	l3838
  5732   001530                     u3610:
  5733   001530  0E00               	movlw	0
  5734   001532  6E2B               	movwf	___fldiv@b^0,c
  5735   001534  0E00               	movlw	0
  5736   001536  6E2C               	movwf	(___fldiv@b+1)^0,c
  5737   001538  0E00               	movlw	0
  5738   00153A  6E2D               	movwf	(___fldiv@b+2)^0,c
  5739   00153C  0E00               	movlw	0
  5740   00153E  6E2E               	movwf	(___fldiv@b+3)^0,c
  5741   001540  0E80               	movlw	128
  5742   001542  122D               	iorwf	(___fldiv@b+2)^0,f,c
  5743   001544  0E7F               	movlw	127
  5744   001546  122E               	iorwf	(___fldiv@b+3)^0,f,c
  5745   001548                     l3832:
  5746   001548  503B               	movf	___fldiv@sign^0,w,c
  5747   00154A  122E               	iorwf	(___fldiv@b+3)^0,f,c
  5748   00154C  C02B  F02B         	movff	___fldiv@b,?___fldiv
  5749   001550  C02C  F02C         	movff	___fldiv@b+1,?___fldiv+1
  5750   001554  C02D  F02D         	movff	___fldiv@b+2,?___fldiv+2
  5751   001558  C02E  F02E         	movff	___fldiv@b+3,?___fldiv+3
  5752   00155C  EFF3  F00B         	goto	l879
  5753   001560                     l3838:
  5754   001560  5042               	movf	___fldiv@bexp^0,w,c
  5755   001562  A4D8               	btfss	status,2,c
  5756   001564  EFB6  F00A         	goto	u3621
  5757   001568  EFB8  F00A         	goto	u3620
  5758   00156C                     u3621:
  5759   00156C  EFC2  F00A         	goto	l3846
  5760   001570                     u3620:
  5761   001570  0E00               	movlw	0
  5762   001572  6E2B               	movwf	?___fldiv^0,c
  5763   001574  0E00               	movlw	0
  5764   001576  6E2C               	movwf	(?___fldiv+1)^0,c
  5765   001578  0E00               	movlw	0
  5766   00157A  6E2D               	movwf	(?___fldiv+2)^0,c
  5767   00157C  0E00               	movlw	0
  5768   00157E  6E2E               	movwf	(?___fldiv+3)^0,c
  5769   001580  EFF3  F00B         	goto	l879
  5770   001584                     l3846:
  5771   001584  5043               	movf	___fldiv@aexp^0,w,c
  5772   001586  C042  F033         	movff	___fldiv@bexp,??___fldiv
  5773   00158A  6A34               	clrf	(??___fldiv+1)^0,c
  5774   00158C  5E33               	subwf	??___fldiv^0,f,c
  5775   00158E  0E00               	movlw	0
  5776   001590  5A34               	subwfb	(??___fldiv+1)^0,f,c
  5777   001592  0E7F               	movlw	127
  5778   001594  2433               	addwf	??___fldiv^0,w,c
  5779   001596  6E3C               	movwf	___fldiv@new_exp^0,c
  5780   001598  0E00               	movlw	0
  5781   00159A  2034               	addwfc	(??___fldiv+1)^0,w,c
  5782   00159C  6E3D               	movwf	(___fldiv@new_exp+1)^0,c
  5783   00159E  C02B  F037         	movff	___fldiv@b,___fldiv@rem
  5784   0015A2  C02C  F038         	movff	___fldiv@b+1,___fldiv@rem+1
  5785   0015A6  C02D  F039         	movff	___fldiv@b+2,___fldiv@rem+2
  5786   0015AA  C02E  F03A         	movff	___fldiv@b+3,___fldiv@rem+3
  5787   0015AE  0E00               	movlw	0
  5788   0015B0  6E2B               	movwf	___fldiv@b^0,c
  5789   0015B2  0E00               	movlw	0
  5790   0015B4  6E2C               	movwf	(___fldiv@b+1)^0,c
  5791   0015B6  0E00               	movlw	0
  5792   0015B8  6E2D               	movwf	(___fldiv@b+2)^0,c
  5793   0015BA  0E00               	movlw	0
  5794   0015BC  6E2E               	movwf	(___fldiv@b+3)^0,c
  5795   0015BE  0E00               	movlw	0
  5796   0015C0  6E3E               	movwf	___fldiv@grs^0,c
  5797   0015C2  0E00               	movlw	0
  5798   0015C4  6E3F               	movwf	(___fldiv@grs+1)^0,c
  5799   0015C6  0E00               	movlw	0
  5800   0015C8  6E40               	movwf	(___fldiv@grs+2)^0,c
  5801   0015CA  0E00               	movlw	0
  5802   0015CC  6E41               	movwf	(___fldiv@grs+3)^0,c
  5803   0015CE  0E00               	movlw	0
  5804   0015D0  6E43               	movwf	___fldiv@aexp^0,c
  5805   0015D2  EF23  F00B         	goto	l881
  5806   0015D6                     l3856:
  5807   0015D6  5043               	movf	___fldiv@aexp^0,w,c
  5808   0015D8  B4D8               	btfsc	status,2,c
  5809   0015DA  EFF1  F00A         	goto	u3631
  5810   0015DE  EFF3  F00A         	goto	u3630
  5811   0015E2                     u3631:
  5812   0015E2  EF0A  F00B         	goto	l3864
  5813   0015E6                     u3630:
  5814   0015E6  90D8               	bcf	status,0,c
  5815   0015E8  3637               	rlcf	___fldiv@rem^0,f,c
  5816   0015EA  3638               	rlcf	(___fldiv@rem+1)^0,f,c
  5817   0015EC  3639               	rlcf	(___fldiv@rem+2)^0,f,c
  5818   0015EE  363A               	rlcf	(___fldiv@rem+3)^0,f,c
  5819   0015F0  90D8               	bcf	status,0,c
  5820   0015F2  362B               	rlcf	___fldiv@b^0,f,c
  5821   0015F4  362C               	rlcf	(___fldiv@b+1)^0,f,c
  5822   0015F6  362D               	rlcf	(___fldiv@b+2)^0,f,c
  5823   0015F8  362E               	rlcf	(___fldiv@b+3)^0,f,c
  5824   0015FA  AE41               	btfss	(___fldiv@grs+3)^0,7,c
  5825   0015FC  EF02  F00B         	goto	u3641
  5826   001600  EF04  F00B         	goto	u3640
  5827   001604                     u3641:
  5828   001604  EF05  F00B         	goto	l884
  5829   001608                     u3640:
  5830   001608  802B               	bsf	___fldiv@b^0,0,c
  5831   00160A                     l884:
  5832   00160A  90D8               	bcf	status,0,c
  5833   00160C  363E               	rlcf	___fldiv@grs^0,f,c
  5834   00160E  363F               	rlcf	(___fldiv@grs+1)^0,f,c
  5835   001610  3640               	rlcf	(___fldiv@grs+2)^0,f,c
  5836   001612  3641               	rlcf	(___fldiv@grs+3)^0,f,c
  5837   001614                     l3864:
  5838   001614  502F               	movf	___fldiv@a^0,w,c
  5839   001616  5C37               	subwf	___fldiv@rem^0,w,c
  5840   001618  5030               	movf	(___fldiv@a+1)^0,w,c
  5841   00161A  5838               	subwfb	(___fldiv@rem+1)^0,w,c
  5842   00161C  5031               	movf	(___fldiv@a+2)^0,w,c
  5843   00161E  5839               	subwfb	(___fldiv@rem+2)^0,w,c
  5844   001620  5032               	movf	(___fldiv@a+3)^0,w,c
  5845   001622  583A               	subwfb	(___fldiv@rem+3)^0,w,c
  5846   001624  A0D8               	btfss	status,0,c
  5847   001626  EF17  F00B         	goto	u3651
  5848   00162A  EF19  F00B         	goto	u3650
  5849   00162E                     u3651:
  5850   00162E  EF22  F00B         	goto	l3870
  5851   001632                     u3650:
  5852   001632  8C41               	bsf	(___fldiv@grs+3)^0,6,c
  5853   001634  502F               	movf	___fldiv@a^0,w,c
  5854   001636  5E37               	subwf	___fldiv@rem^0,f,c
  5855   001638  5030               	movf	(___fldiv@a+1)^0,w,c
  5856   00163A  5A38               	subwfb	(___fldiv@rem+1)^0,f,c
  5857   00163C  5031               	movf	(___fldiv@a+2)^0,w,c
  5858   00163E  5A39               	subwfb	(___fldiv@rem+2)^0,f,c
  5859   001640  5032               	movf	(___fldiv@a+3)^0,w,c
  5860   001642  5A3A               	subwfb	(___fldiv@rem+3)^0,f,c
  5861   001644                     l3870:
  5862   001644  2A43               	incf	___fldiv@aexp^0,f,c
  5863   001646                     l881:
  5864   001646  0E19               	movlw	25
  5865   001648  6443               	cpfsgt	___fldiv@aexp^0,c
  5866   00164A  EF29  F00B         	goto	u3661
  5867   00164E  EF2B  F00B         	goto	u3660
  5868   001652                     u3661:
  5869   001652  EFEB  F00A         	goto	l3856
  5870   001656                     u3660:
  5871   001656  5037               	movf	___fldiv@rem^0,w,c
  5872   001658  1038               	iorwf	(___fldiv@rem+1)^0,w,c
  5873   00165A  1039               	iorwf	(___fldiv@rem+2)^0,w,c
  5874   00165C  103A               	iorwf	(___fldiv@rem+3)^0,w,c
  5875   00165E  B4D8               	btfsc	status,2,c
  5876   001660  EF34  F00B         	goto	u3671
  5877   001664  EF36  F00B         	goto	u3670
  5878   001668                     u3671:
  5879   001668  EF4E  F00B         	goto	l3882
  5880   00166C                     u3670:
  5881   00166C  803E               	bsf	___fldiv@grs^0,0,c
  5882   00166E  EF4E  F00B         	goto	l3882
  5883   001672                     l3876:
  5884   001672  90D8               	bcf	status,0,c
  5885   001674  362B               	rlcf	___fldiv@b^0,f,c
  5886   001676  362C               	rlcf	(___fldiv@b+1)^0,f,c
  5887   001678  362D               	rlcf	(___fldiv@b+2)^0,f,c
  5888   00167A  362E               	rlcf	(___fldiv@b+3)^0,f,c
  5889   00167C  AE41               	btfss	(___fldiv@grs+3)^0,7,c
  5890   00167E  EF43  F00B         	goto	u3681
  5891   001682  EF45  F00B         	goto	u3680
  5892   001686                     u3681:
  5893   001686  EF46  F00B         	goto	l890
  5894   00168A                     u3680:
  5895   00168A  802B               	bsf	___fldiv@b^0,0,c
  5896   00168C                     l890:
  5897   00168C  90D8               	bcf	status,0,c
  5898   00168E  363E               	rlcf	___fldiv@grs^0,f,c
  5899   001690  363F               	rlcf	(___fldiv@grs+1)^0,f,c
  5900   001692  3640               	rlcf	(___fldiv@grs+2)^0,f,c
  5901   001694  3641               	rlcf	(___fldiv@grs+3)^0,f,c
  5902   001696  063C               	decf	___fldiv@new_exp^0,f,c
  5903   001698  A0D8               	btfss	status,0,c
  5904   00169A  063D               	decf	(___fldiv@new_exp+1)^0,f,c
  5905   00169C                     l3882:
  5906   00169C  AE2D               	btfss	(___fldiv@b+2)^0,7,c
  5907   00169E  EF53  F00B         	goto	u3691
  5908   0016A2  EF55  F00B         	goto	u3690
  5909   0016A6                     u3691:
  5910   0016A6  EF39  F00B         	goto	l3876
  5911   0016AA                     u3690:
  5912   0016AA  0E00               	movlw	0
  5913   0016AC  6E43               	movwf	___fldiv@aexp^0,c
  5914   0016AE  AE41               	btfss	(___fldiv@grs+3)^0,7,c
  5915   0016B0  EF5C  F00B         	goto	u3701
  5916   0016B4  EF5E  F00B         	goto	u3700
  5917   0016B8                     u3701:
  5918   0016B8  EF82  F00B         	goto	l892
  5919   0016BC                     u3700:
  5920   0016BC  0EFF               	movlw	255
  5921   0016BE  143E               	andwf	___fldiv@grs^0,w,c
  5922   0016C0  6E33               	movwf	??___fldiv^0,c
  5923   0016C2  0EFF               	movlw	255
  5924   0016C4  143F               	andwf	(___fldiv@grs+1)^0,w,c
  5925   0016C6  6E34               	movwf	(??___fldiv+1)^0,c
  5926   0016C8  0EFF               	movlw	255
  5927   0016CA  1440               	andwf	(___fldiv@grs+2)^0,w,c
  5928   0016CC  6E35               	movwf	(??___fldiv+2)^0,c
  5929   0016CE  0E7F               	movlw	127
  5930   0016D0  1441               	andwf	(___fldiv@grs+3)^0,w,c
  5931   0016D2  6E36               	movwf	(??___fldiv+3)^0,c
  5932   0016D4  5033               	movf	??___fldiv^0,w,c
  5933   0016D6  1034               	iorwf	(??___fldiv+1)^0,w,c
  5934   0016D8  1035               	iorwf	(??___fldiv+2)^0,w,c
  5935   0016DA  1036               	iorwf	(??___fldiv+3)^0,w,c
  5936   0016DC  B4D8               	btfsc	status,2,c
  5937   0016DE  EF73  F00B         	goto	u3711
  5938   0016E2  EF75  F00B         	goto	u3710
  5939   0016E6                     u3711:
  5940   0016E6  EF79  F00B         	goto	l893
  5941   0016EA                     u3710:
  5942   0016EA                     l3890:
  5943   0016EA  0E01               	movlw	1
  5944   0016EC  6E43               	movwf	___fldiv@aexp^0,c
  5945   0016EE  EF82  F00B         	goto	l892
  5946   0016F2                     l893:
  5947   0016F2  A02B               	btfss	___fldiv@b^0,0,c
  5948   0016F4  EF7E  F00B         	goto	u3721
  5949   0016F8  EF80  F00B         	goto	u3720
  5950   0016FC                     u3721:
  5951   0016FC  EF82  F00B         	goto	l892
  5952   001700                     u3720:
  5953   001700  EF75  F00B         	goto	l3890
  5954   001704                     l892:
  5955   001704  5043               	movf	___fldiv@aexp^0,w,c
  5956   001706  B4D8               	btfsc	status,2,c
  5957   001708  EF88  F00B         	goto	u3731
  5958   00170C  EF8A  F00B         	goto	u3730
  5959   001710                     u3731:
  5960   001710  EFAE  F00B         	goto	l3902
  5961   001714                     u3730:
  5962   001714  0E01               	movlw	1
  5963   001716  262B               	addwf	___fldiv@b^0,f,c
  5964   001718  0E00               	movlw	0
  5965   00171A  222C               	addwfc	(___fldiv@b+1)^0,f,c
  5966   00171C  222D               	addwfc	(___fldiv@b+2)^0,f,c
  5967   00171E  222E               	addwfc	(___fldiv@b+3)^0,f,c
  5968   001720  A02E               	btfss	(___fldiv@b+3)^0,0,c
  5969   001722  EF95  F00B         	goto	u3741
  5970   001726  EF97  F00B         	goto	u3740
  5971   00172A                     u3741:
  5972   00172A  EFAE  F00B         	goto	l3902
  5973   00172E                     u3740:
  5974   00172E  C02B  F033         	movff	___fldiv@b,??___fldiv
  5975   001732  C02C  F034         	movff	___fldiv@b+1,??___fldiv+1
  5976   001736  C02D  F035         	movff	___fldiv@b+2,??___fldiv+2
  5977   00173A  C02E  F036         	movff	___fldiv@b+3,??___fldiv+3
  5978   00173E  3436               	rlcf	(??___fldiv+3)^0,w,c
  5979   001740  3236               	rrcf	(??___fldiv+3)^0,f,c
  5980   001742  3235               	rrcf	(??___fldiv+2)^0,f,c
  5981   001744  3234               	rrcf	(??___fldiv+1)^0,f,c
  5982   001746  3233               	rrcf	??___fldiv^0,f,c
  5983   001748  C033  F02B         	movff	??___fldiv,___fldiv@b
  5984   00174C  C034  F02C         	movff	??___fldiv+1,___fldiv@b+1
  5985   001750  C035  F02D         	movff	??___fldiv+2,___fldiv@b+2
  5986   001754  C036  F02E         	movff	??___fldiv+3,___fldiv@b+3
  5987   001758  4A3C               	infsnz	___fldiv@new_exp^0,f,c
  5988   00175A  2A3D               	incf	(___fldiv@new_exp+1)^0,f,c
  5989   00175C                     l3902:
  5990   00175C  BE3D               	btfsc	(___fldiv@new_exp+1)^0,7,c
  5991   00175E  EFB9  F00B         	goto	u3751
  5992   001762  503D               	movf	(___fldiv@new_exp+1)^0,w,c
  5993   001764  E108               	bnz	u3750
  5994   001766  283C               	incf	___fldiv@new_exp^0,w,c
  5995   001768  A0D8               	btfss	status,0,c
  5996   00176A  EFB9  F00B         	goto	u3751
  5997   00176E  EFBB  F00B         	goto	u3750
  5998   001772                     u3751:
  5999   001772  EFC6  F00B         	goto	l3906
  6000   001776                     u3750:
  6001   001776  0E00               	movlw	0
  6002   001778  6E3D               	movwf	(___fldiv@new_exp+1)^0,c
  6003   00177A  683C               	setf	___fldiv@new_exp^0,c
  6004   00177C  0E00               	movlw	0
  6005   00177E  6E2B               	movwf	___fldiv@b^0,c
  6006   001780  0E00               	movlw	0
  6007   001782  6E2C               	movwf	(___fldiv@b+1)^0,c
  6008   001784  0E00               	movlw	0
  6009   001786  6E2D               	movwf	(___fldiv@b+2)^0,c
  6010   001788  0E00               	movlw	0
  6011   00178A  6E2E               	movwf	(___fldiv@b+3)^0,c
  6012   00178C                     l3906:
  6013   00178C  BE3D               	btfsc	(___fldiv@new_exp+1)^0,7,c
  6014   00178E  EFD3  F00B         	goto	u3760
  6015   001792  503D               	movf	(___fldiv@new_exp+1)^0,w,c
  6016   001794  E106               	bnz	u3761
  6017   001796  043C               	decf	___fldiv@new_exp^0,w,c
  6018   001798  B0D8               	btfsc	status,0,c
  6019   00179A  EFD1  F00B         	goto	u3761
  6020   00179E  EFD3  F00B         	goto	u3760
  6021   0017A2                     u3761:
  6022   0017A2  EFE1  F00B         	goto	l3910
  6023   0017A6                     u3760:
  6024   0017A6  0E00               	movlw	0
  6025   0017A8  6E3D               	movwf	(___fldiv@new_exp+1)^0,c
  6026   0017AA  0E00               	movlw	0
  6027   0017AC  6E3C               	movwf	___fldiv@new_exp^0,c
  6028   0017AE  0E00               	movlw	0
  6029   0017B0  6E2B               	movwf	___fldiv@b^0,c
  6030   0017B2  0E00               	movlw	0
  6031   0017B4  6E2C               	movwf	(___fldiv@b+1)^0,c
  6032   0017B6  0E00               	movlw	0
  6033   0017B8  6E2D               	movwf	(___fldiv@b+2)^0,c
  6034   0017BA  0E00               	movlw	0
  6035   0017BC  6E2E               	movwf	(___fldiv@b+3)^0,c
  6036   0017BE  0E00               	movlw	0
  6037   0017C0  6E3B               	movwf	___fldiv@sign^0,c
  6038   0017C2                     l3910:
  6039   0017C2  C03C  F042         	movff	___fldiv@new_exp,___fldiv@bexp
  6040   0017C6  A042               	btfss	___fldiv@bexp^0,0,c
  6041   0017C8  EFE8  F00B         	goto	u3771
  6042   0017CC  EFEA  F00B         	goto	u3770
  6043   0017D0                     u3771:
  6044   0017D0  EFED  F00B         	goto	l3916
  6045   0017D4                     u3770:
  6046   0017D4  8E2D               	bsf	(___fldiv@b+2)^0,7,c
  6047   0017D6  EFEE  F00B         	goto	l3918
  6048   0017DA                     l3916:
  6049   0017DA  9E2D               	bcf	(___fldiv@b+2)^0,7,c
  6050   0017DC                     l3918:
  6051   0017DC  90D8               	bcf	status,0,c
  6052   0017DE  3042               	rrcf	___fldiv@bexp^0,w,c
  6053   0017E0  6E2E               	movwf	(___fldiv@b+3)^0,c
  6054   0017E2  EFA4  F00A         	goto	l3832
  6055   0017E6                     l879:
  6056   0017E6  0012               	return		;funcret
  6057   0017E8                     __end_of___fldiv:
  6058                           	callstack 0
  6059                           
  6060 ;; *************** function _SerialRxPinInterrupt *****************
  6061 ;; Defined at:
  6062 ;;		line 276 in file "main.c"
  6063 ;; Parameters:    Size  Location     Type
  6064 ;;		None
  6065 ;; Auto vars:     Size  Location     Type
  6066 ;;		None
  6067 ;; Return value:  Size  Location     Type
  6068 ;;                  1    wreg      void 
  6069 ;; Registers used:
  6070 ;;		wreg, fsr0l, fsr0h, status,2, status,0, tblptrl, tblptrh, tblptru, cstack
  6071 ;; Tracked objects:
  6072 ;;		On entry : 0/0
  6073 ;;		On exit  : 0/0
  6074 ;;		Unchanged: 0/0
  6075 ;; Data sizes:     COMRAM   BANK0   BANK1   BANK2   BANK3   BANK4   BANK5
  6076 ;;      Params:         0       0       0       0       0       0       0
  6077 ;;      Locals:         0       0       0       0       0       0       0
  6078 ;;      Temps:          6       0       0       0       0       0       0
  6079 ;;      Totals:         6       0       0       0       0       0       0
  6080 ;;Total ram usage:        6 bytes
  6081 ;; Hardware stack levels used: 1
  6082 ;; Hardware stack levels required when called: 2
  6083 ;; This function calls:
  6084 ;;		i2_UARTReadByte
  6085 ;;		i2_UARTWriteStrLn
  6086 ;; This function is called by:
  6087 ;;		Interrupt level 2
  6088 ;; This function uses a non-reentrant model
  6089 ;;
  6090                           
  6091                           	psect	intcode
  6092   000008                     __pintcode:
  6093                           	callstack 0
  6094   000008                     _SerialRxPinInterrupt:
  6095                           	callstack 23
  6096                           
  6097                           ;incstack = 0
  6098   000008  8253               	bsf	int$flags,1,c	;set compiler interrupt flag (level 2)
  6099   00000A  CFE9 F007          	movff	fsr0l,??_SerialRxPinInterrupt
  6100   00000E  CFEA F008          	movff	fsr0h,??_SerialRxPinInterrupt+1
  6101   000012  CFF6 F009          	movff	tblptrl,??_SerialRxPinInterrupt+2
  6102   000016  CFF7 F00A          	movff	tblptrh,??_SerialRxPinInterrupt+3
  6103   00001A  CFF8 F00B          	movff	tblptru,??_SerialRxPinInterrupt+4
  6104   00001E  CFF5 F00C          	movff	tablat,??_SerialRxPinInterrupt+5
  6105   000022                     
  6106                           ;main.c: 278:     if (PIR1bits.RCIF == 1) {
  6107   000022  AA9E               	btfss	158,5,c	;volatile
  6108   000024  EF16  F000         	goto	i2u281_41
  6109   000028  EF18  F000         	goto	i2u281_40
  6110   00002C                     i2u281_41:
  6111   00002C  EF43  F000         	goto	i2l112
  6112   000030                     i2u281_40:
  6113   000030                     
  6114                           ;main.c: 279:         if (RCSTA1bits.FERR) {
  6115   000030  A4AB               	btfss	171,2,c	;volatile
  6116   000032  EF1D  F000         	goto	i2u282_41
  6117   000036  EF1F  F000         	goto	i2u282_40
  6118   00003A                     i2u282_41:
  6119   00003A  EF2B  F000         	goto	i2l106
  6120   00003E                     i2u282_40:
  6121   00003E                     
  6122                           ;main.c: 280:             UARTWriteStrLn("Framing Error");
  6123   00003E  0EB2               	movlw	low STR_1
  6124   000040  6E02               	movwf	i2UARTWriteStrLn@string^0,c
  6125   000042  5002               	movf	i2UARTWriteStrLn@string^0,w,c
  6126   000044  A4D8               	btfss	status,2,c
  6127   000046  0E06               	movlw	high __smallconst
  6128   000048  6E03               	movwf	(i2UARTWriteStrLn@string+1)^0,c
  6129   00004A  ECCC  F010         	call	i2_UARTWriteStrLn	;wreg free
  6130   00004E                     
  6131                           ;main.c: 281:             UARTReadByte();
  6132   00004E  EC84  F012         	call	i2_UARTReadByte	;wreg free
  6133                           
  6134                           ;main.c: 282:         }
  6135   000052  EF43  F000         	goto	i2l112
  6136   000056                     i2l106:
  6137   000056  A2AB               	btfss	171,1,c	;volatile
  6138   000058  EF30  F000         	goto	i2u283_41
  6139   00005C  EF32  F000         	goto	i2u283_40
  6140   000060                     i2u283_41:
  6141   000060  EF3F  F000         	goto	i2l3208
  6142   000064                     i2u283_40:
  6143   000064                     
  6144                           ;main.c: 284:             UARTWriteStrLn("Overrun Error");
  6145   000064  0EC0               	movlw	low STR_2
  6146   000066  6E02               	movwf	i2UARTWriteStrLn@string^0,c
  6147   000068  5002               	movf	i2UARTWriteStrLn@string^0,w,c
  6148   00006A  A4D8               	btfss	status,2,c
  6149   00006C  0E06               	movlw	high __smallconst
  6150   00006E  6E03               	movwf	(i2UARTWriteStrLn@string+1)^0,c
  6151   000070  ECCC  F010         	call	i2_UARTWriteStrLn	;wreg free
  6152   000074                     
  6153                           ;main.c: 285:             RCSTA1bits.CREN = 0;
  6154   000074  98AB               	bcf	171,4,c	;volatile
  6155   000076  0000               	nop		;# 
  6156   000078                     
  6157                           ;main.c: 287:             RCSTA1bits.CREN = 1;
  6158   000078  88AB               	bsf	171,4,c	;volatile
  6159                           
  6160                           ;main.c: 288:         }
  6161   00007A  EF43  F000         	goto	i2l112
  6162   00007E                     i2l3208:
  6163   00007E                     
  6164                           ;main.c: 291:                 txBuffer = UARTReadByte();
  6165   00007E  EC84  F012         	call	i2_UARTReadByte	;wreg free
  6166   000082  0100               	movlb	0	; () banked
  6167   000084  6FBB               	movwf	_txBuffer& (0+255),b
  6168   000086                     i2l112:
  6169   000086  C00C  FFF5         	movff	??_SerialRxPinInterrupt+5,tablat
  6170   00008A  C00B  FFF8         	movff	??_SerialRxPinInterrupt+4,tblptru
  6171   00008E  C00A  FFF7         	movff	??_SerialRxPinInterrupt+3,tblptrh
  6172   000092  C009  FFF6         	movff	??_SerialRxPinInterrupt+2,tblptrl
  6173   000096  C008  FFEA         	movff	??_SerialRxPinInterrupt+1,fsr0h
  6174   00009A  C007  FFE9         	movff	??_SerialRxPinInterrupt,fsr0l
  6175   00009E  9253               	bcf	int$flags,1,c	;clear compiler interrupt flag (level 2)
  6176   0000A0  0011               	retfie		f
  6177   0000A2                     __end_of_SerialRxPinInterrupt:
  6178                           	callstack 0
  6179                           
  6180 ;; *************** function i2_UARTWriteStrLn *****************
  6181 ;; Defined at:
  6182 ;;		line 72 in file "uart.c"
  6183 ;; Parameters:    Size  Location     Type
  6184 ;;  string          2    1[COMRAM] PTR unsigned char 
  6185 ;;		 -> buffer(50), STR_8(14), STR_7(9), STR_6(32), 
  6186 ;;		 -> STR_5(32), STR_4(48), STR_3(14), STR_2(14), 
  6187 ;;		 -> STR_1(14), 
  6188 ;; Auto vars:     Size  Location     Type
  6189 ;;  i               1    5[COMRAM] unsigned char 
  6190 ;; Return value:  Size  Location     Type
  6191 ;;                  1    wreg      void 
  6192 ;; Registers used:
  6193 ;;		wreg, fsr0l, fsr0h, status,2, status,0, tblptrl, tblptrh, tblptru, cstack
  6194 ;; Tracked objects:
  6195 ;;		On entry : 0/0
  6196 ;;		On exit  : 0/0
  6197 ;;		Unchanged: 0/0
  6198 ;; Data sizes:     COMRAM   BANK0   BANK1   BANK2   BANK3   BANK4   BANK5
  6199 ;;      Params:         2       0       0       0       0       0       0
  6200 ;;      Locals:         1       0       0       0       0       0       0
  6201 ;;      Temps:          2       0       0       0       0       0       0
  6202 ;;      Totals:         5       0       0       0       0       0       0
  6203 ;;Total ram usage:        5 bytes
  6204 ;; Hardware stack levels used: 1
  6205 ;; Hardware stack levels required when called: 1
  6206 ;; This function calls:
  6207 ;;		i2_UARTWriteByte
  6208 ;; This function is called by:
  6209 ;;		_SerialRxPinInterrupt
  6210 ;; This function uses a non-reentrant model
  6211 ;;
  6212                           
  6213                           	psect	text31
  6214   002198                     __ptext31:
  6215                           	callstack 0
  6216   002198                     i2_UARTWriteStrLn:
  6217                           	callstack 23
  6218   002198                     
  6219                           ;uart.c: 72: void UARTWriteStrLn(char *string);uart.c: 73: {;uart.c: 74:   UINT8_T i = 0
      +                          ;
  6220   002198  0E00               	movlw	0
  6221   00219A  6E06               	movwf	i2UARTWriteStrLn@i^0,c
  6222                           
  6223                           ;uart.c: 76:   while (string[i]){
  6224   00219C  EFE9  F010         	goto	i2l3170
  6225   0021A0                     i2l3166:
  6226                           
  6227                           ;uart.c: 77:     UARTWriteByte(string[i++]);
  6228   0021A0  5006               	movf	i2UARTWriteStrLn@i^0,w,c
  6229   0021A2  2402               	addwf	i2UARTWriteStrLn@string^0,w,c
  6230   0021A4  6E04               	movwf	??i2_UARTWriteStrLn^0,c
  6231   0021A6  0E00               	movlw	0
  6232   0021A8  2003               	addwfc	(i2UARTWriteStrLn@string+1)^0,w,c
  6233   0021AA  6E05               	movwf	(??i2_UARTWriteStrLn+1)^0,c
  6234   0021AC  C004  FFF6         	movff	??i2_UARTWriteStrLn,tblptrl
  6235   0021B0  C005  FFF7         	movff	??i2_UARTWriteStrLn+1,tblptrh
  6236   0021B4  6AF8               	clrf	tblptru,c
  6237   0021B6  0E05               	movlw	(high __ramtop+-1)
  6238   0021B8  64F7               	cpfsgt	tblptrh,c
  6239   0021BA  D003               	bra	i2u276_47
  6240   0021BC  0008               	tblrd		*
  6241   0021BE  50F5               	movf	tablat,w,c
  6242   0021C0  D005               	bra	i2u276_40
  6243   0021C2                     i2u276_47:
  6244   0021C2  CFF6 FFE9          	movff	tblptrl,fsr0l
  6245   0021C6  CFF7 FFEA          	movff	tblptrh,fsr0h
  6246   0021CA  50EF               	movf	indf0,w,c
  6247   0021CC                     i2u276_40:
  6248   0021CC  EC6D  F012         	call	i2_UARTWriteByte
  6249   0021D0  2A06               	incf	i2UARTWriteStrLn@i^0,f,c
  6250   0021D2                     i2l3170:
  6251                           
  6252                           ;uart.c: 76:   while (string[i]){
  6253   0021D2  5006               	movf	i2UARTWriteStrLn@i^0,w,c
  6254   0021D4  2402               	addwf	i2UARTWriteStrLn@string^0,w,c
  6255   0021D6  6E04               	movwf	??i2_UARTWriteStrLn^0,c
  6256   0021D8  0E00               	movlw	0
  6257   0021DA  2003               	addwfc	(i2UARTWriteStrLn@string+1)^0,w,c
  6258   0021DC  6E05               	movwf	(??i2_UARTWriteStrLn+1)^0,c
  6259   0021DE  C004  FFF6         	movff	??i2_UARTWriteStrLn,tblptrl
  6260   0021E2  C005  FFF7         	movff	??i2_UARTWriteStrLn+1,tblptrh
  6261   0021E6  6AF8               	clrf	tblptru,c
  6262   0021E8  0E05               	movlw	(high __ramtop+-1)
  6263   0021EA  64F7               	cpfsgt	tblptrh,c
  6264   0021EC  D003               	bra	i2u277_47
  6265   0021EE  0008               	tblrd		*
  6266   0021F0  50F5               	movf	tablat,w,c
  6267   0021F2  D005               	bra	i2u277_40
  6268   0021F4                     i2u277_47:
  6269   0021F4  CFF6 FFE9          	movff	tblptrl,fsr0l
  6270   0021F8  CFF7 FFEA          	movff	tblptrh,fsr0h
  6271   0021FC  50EF               	movf	indf0,w,c
  6272   0021FE                     i2u277_40:
  6273   0021FE  0900               	iorlw	0
  6274   002200  A4D8               	btfss	status,2,c
  6275   002202  EF05  F011         	goto	i2u278_41
  6276   002206  EF07  F011         	goto	i2u278_40
  6277   00220A                     i2u278_41:
  6278   00220A  EFD0  F010         	goto	i2l3166
  6279   00220E                     i2u278_40:
  6280   00220E                     
  6281                           ;uart.c: 79:   UARTWriteByte(0x0D);
  6282   00220E  0E0D               	movlw	13
  6283   002210  EC6D  F012         	call	i2_UARTWriteByte
  6284                           
  6285                           ;uart.c: 80:   UARTWriteByte(0x0A);
  6286   002214  0E0A               	movlw	10
  6287   002216  EC6D  F012         	call	i2_UARTWriteByte
  6288   00221A  0012               	return		;funcret
  6289   00221C                     __end_ofi2_UARTWriteStrLn:
  6290                           	callstack 0
  6291                           
  6292 ;; *************** function i2_UARTWriteByte *****************
  6293 ;; Defined at:
  6294 ;;		line 52 in file "uart.c"
  6295 ;; Parameters:    Size  Location     Type
  6296 ;;  data            1    wreg     unsigned char 
  6297 ;; Auto vars:     Size  Location     Type
  6298 ;;  data            1    0[COMRAM] unsigned char 
  6299 ;; Return value:  Size  Location     Type
  6300 ;;                  1    wreg      void 
  6301 ;; Registers used:
  6302 ;;		wreg
  6303 ;; Tracked objects:
  6304 ;;		On entry : 0/0
  6305 ;;		On exit  : 0/0
  6306 ;;		Unchanged: 0/0
  6307 ;; Data sizes:     COMRAM   BANK0   BANK1   BANK2   BANK3   BANK4   BANK5
  6308 ;;      Params:         0       0       0       0       0       0       0
  6309 ;;      Locals:         1       0       0       0       0       0       0
  6310 ;;      Temps:          0       0       0       0       0       0       0
  6311 ;;      Totals:         1       0       0       0       0       0       0
  6312 ;;Total ram usage:        1 bytes
  6313 ;; Hardware stack levels used: 1
  6314 ;; This function calls:
  6315 ;;		Nothing
  6316 ;; This function is called by:
  6317 ;;		i2_UARTWriteStrLn
  6318 ;; This function uses a non-reentrant model
  6319 ;;
  6320                           
  6321                           	psect	text32
  6322   0024DA                     __ptext32:
  6323                           	callstack 0
  6324   0024DA                     i2_UARTWriteByte:
  6325                           	callstack 23
  6326                           
  6327                           ;incstack = 0
  6328                           ;i2UARTWriteByte@data stored from wreg
  6329   0024DA  6E01               	movwf	i2UARTWriteByte@data^0,c
  6330   0024DC                     i2l189:
  6331   0024DC  A2AC               	btfss	172,1,c	;volatile
  6332   0024DE  EF73  F012         	goto	i2u269_41
  6333   0024E2  EF75  F012         	goto	i2u269_40
  6334   0024E6                     i2u269_41:
  6335   0024E6  EF6E  F012         	goto	i2l189
  6336   0024EA                     i2u269_40:
  6337   0024EA                     
  6338                           ;uart.c: 56:     TXREG1 = data;
  6339   0024EA  C001  FFAD         	movff	i2UARTWriteByte@data,4013	;volatile
  6340   0024EE  0012               	return		;funcret
  6341   0024F0                     __end_ofi2_UARTWriteByte:
  6342                           	callstack 0
  6343                           
  6344 ;; *************** function i2_UARTReadByte *****************
  6345 ;; Defined at:
  6346 ;;		line 59 in file "uart.c"
  6347 ;; Parameters:    Size  Location     Type
  6348 ;;		None
  6349 ;; Auto vars:     Size  Location     Type
  6350 ;;		None
  6351 ;; Return value:  Size  Location     Type
  6352 ;;                  1    wreg      unsigned char 
  6353 ;; Registers used:
  6354 ;;		wreg, status,2
  6355 ;; Tracked objects:
  6356 ;;		On entry : 0/0
  6357 ;;		On exit  : 0/0
  6358 ;;		Unchanged: 0/0
  6359 ;; Data sizes:     COMRAM   BANK0   BANK1   BANK2   BANK3   BANK4   BANK5
  6360 ;;      Params:         0       0       0       0       0       0       0
  6361 ;;      Locals:         0       0       0       0       0       0       0
  6362 ;;      Temps:          0       0       0       0       0       0       0
  6363 ;;      Totals:         0       0       0       0       0       0       0
  6364 ;;Total ram usage:        0 bytes
  6365 ;; Hardware stack levels used: 1
  6366 ;; This function calls:
  6367 ;;		Nothing
  6368 ;; This function is called by:
  6369 ;;		_SerialRxPinInterrupt
  6370 ;; This function uses a non-reentrant model
  6371 ;;
  6372                           
  6373                           	psect	text33
  6374   002508                     __ptext33:
  6375                           	callstack 0
  6376   002508                     i2_UARTReadByte:
  6377                           	callstack 24
  6378   002508                     
  6379                           ;uart.c: 61:     return RCREG1;
  6380   002508  50AE               	movf	174,w,c	;volatile
  6381   00250A  0012               	return		;funcret
  6382   00250C                     __end_ofi2_UARTReadByte:
  6383                           	callstack 0
  6384                           
  6385                           	psect	rparam
  6386   000000                     
  6387                           	psect	temp
  6388   000053                     btemp:
  6389                           	callstack 0
  6390   000053                     	ds	1
  6391   000000                     int$flags	set	btemp
  6392   000000                     wtemp8	set	btemp+1
  6393   000000                     ttemp5	set	btemp+1
  6394   000000                     ttemp6	set	btemp+4
  6395   000000                     ttemp7	set	btemp+8
  6396                           
  6397                           	psect	config
  6398                           
  6399                           ; Padding undefined space
  6400   300000                     	org	3145728
  6401   300000  FF                 	db	255
  6402                           
  6403                           ;Config register CONFIG1H @ 0x300001
  6404                           ;	Oscillator Selection bits
  6405                           ;	FOSC = INTIO7, Internal oscillator block, CLKOUT function on OSC2
  6406                           ;	4X PLL Enable
  6407                           ;	PLLCFG = OFF, Oscillator used directly
  6408                           ;	Primary clock enable bit
  6409                           ;	PRICLKEN = ON, Primary clock enabled
  6410                           ;	Fail-Safe Clock Monitor Enable bit
  6411                           ;	FCMEN = OFF, Fail-Safe Clock Monitor disabled
  6412                           ;	Internal/External Oscillator Switchover bit
  6413                           ;	IESO = OFF, Oscillator Switchover mode disabled
  6414   300001                     	org	3145729
  6415   300001  29                 	db	41
  6416                           
  6417                           ;Config register CONFIG2L @ 0x300002
  6418                           ;	Power-up Timer Enable bit
  6419                           ;	PWRTEN = ON, Power up timer enabled
  6420                           ;	Brown-out Reset Enable bits
  6421                           ;	BOREN = SBORDIS, Brown-out Reset enabled in hardware only (SBOREN is disabled)
  6422                           ;	Brown Out Reset Voltage bits
  6423                           ;	BORV = 190, VBOR set to 1.90 V nominal
  6424   300002                     	org	3145730
  6425   300002  1E                 	db	30
  6426                           
  6427                           ;Config register CONFIG2H @ 0x300003
  6428                           ;	Watchdog Timer Enable bits
  6429                           ;	WDTEN = 0x3, user specified literal
  6430                           ;	Watchdog Timer Postscale Select bits
  6431                           ;	WDTPS = 512, 1:512
  6432   300003                     	org	3145731
  6433   300003  27                 	db	39
  6434                           
  6435                           ; Padding undefined space
  6436   300004                     	org	3145732
  6437   300004  FF                 	db	255
  6438                           
  6439                           ;Config register CONFIG3H @ 0x300005
  6440                           ;	CCP2 MUX bit
  6441                           ;	CCP2MX = PORTC1, CCP2 input/output is multiplexed with RC1
  6442                           ;	PORTB A/D Enable bit
  6443                           ;	PBADEN = OFF, PORTB<5:0> pins are configured as digital I/O on Reset
  6444                           ;	P3A/CCP3 Mux bit
  6445                           ;	CCP3MX = PORTB5, P3A/CCP3 input/output is multiplexed with RB5
  6446                           ;	HFINTOSC Fast Start-up
  6447                           ;	HFOFST = ON, HFINTOSC output and ready status are not delayed by the oscillator stable
      +                           status
  6448                           ;	Timer3 Clock input mux bit
  6449                           ;	T3CMX = PORTC0, T3CKI is on RC0
  6450                           ;	ECCP2 B output mux bit
  6451                           ;	P2BMX = 0x1, unprogrammed default
  6452                           ;	MCLR Pin Enable bit
  6453                           ;	MCLRE = EXTMCLR, MCLR pin enabled, RE3 input pin disabled
  6454   300005                     	org	3145733
  6455   300005  BD                 	db	189
  6456                           
  6457                           ;Config register CONFIG4L @ 0x300006
  6458                           ;	Stack Full/Underflow Reset Enable bit
  6459                           ;	STVREN = ON, Stack full/underflow will cause Reset
  6460                           ;	Single-Supply ICSP Enable bit
  6461                           ;	LVP = OFF, Single-Supply ICSP disabled
  6462                           ;	Extended Instruction Set Enable bit
  6463                           ;	XINST = OFF, Instruction set extension and Indexed Addressing mode disabled (Legacy mo
      +                          de)
  6464                           ;	Background Debug
  6465                           ;	DEBUG = 0x1, unprogrammed default
  6466   300006                     	org	3145734
  6467   300006  81                 	db	129
  6468                           
  6469                           ; Padding undefined space
  6470   300007                     	org	3145735
  6471   300007  FF                 	db	255
  6472                           
  6473                           ;Config register CONFIG5L @ 0x300008
  6474                           ;	Code Protection Block 0
  6475                           ;	CP0 = OFF, Block 0 (000800-001FFFh) not code-protected
  6476                           ;	Code Protection Block 1
  6477                           ;	CP1 = OFF, Block 1 (002000-003FFFh) not code-protected
  6478                           ;	Code Protection Block 2
  6479                           ;	CP2 = 0x1, unprogrammed default
  6480                           ;	Code Protection Block 3
  6481                           ;	CP3 = 0x1, unprogrammed default
  6482   300008                     	org	3145736
  6483   300008  0F                 	db	15
  6484                           
  6485                           ;Config register CONFIG5H @ 0x300009
  6486                           ;	Boot Block Code Protection bit
  6487                           ;	CPB = OFF, Boot block (000000-0007FFh) not code-protected
  6488                           ;	Data EEPROM Code Protection bit
  6489                           ;	CPD = OFF, Data EEPROM not code-protected
  6490   300009                     	org	3145737
  6491   300009  C0                 	db	192
  6492                           
  6493                           ;Config register CONFIG6L @ 0x30000A
  6494                           ;	Write Protection Block 0
  6495                           ;	WRT0 = OFF, Block 0 (000800-001FFFh) not write-protected
  6496                           ;	Write Protection Block 1
  6497                           ;	WRT1 = OFF, Block 1 (002000-003FFFh) not write-protected
  6498                           ;	Write Protection Block 2
  6499                           ;	WRT2 = 0x1, unprogrammed default
  6500                           ;	Write Protection Block 3
  6501                           ;	WRT3 = 0x1, unprogrammed default
  6502   30000A                     	org	3145738
  6503   30000A  0F                 	db	15
  6504                           
  6505                           ;Config register CONFIG6H @ 0x30000B
  6506                           ;	Configuration Register Write Protection bit
  6507                           ;	WRTC = OFF, Configuration registers (300000-3000FFh) not write-protected
  6508                           ;	Boot Block Write Protection bit
  6509                           ;	WRTB = OFF, Boot Block (000000-0007FFh) not write-protected
  6510                           ;	Data EEPROM Write Protection bit
  6511                           ;	WRTD = OFF, Data EEPROM not write-protected
  6512   30000B                     	org	3145739
  6513   30000B  E0                 	db	224
  6514                           
  6515                           ;Config register CONFIG7L @ 0x30000C
  6516                           ;	Table Read Protection Block 0
  6517                           ;	EBTR0 = OFF, Block 0 (000800-001FFFh) not protected from table reads executed in other
      +                           blocks
  6518                           ;	Table Read Protection Block 1
  6519                           ;	EBTR1 = OFF, Block 1 (002000-003FFFh) not protected from table reads executed in other
      +                           blocks
  6520                           ;	Table Read Protection Block 2
  6521                           ;	EBTR2 = 0x1, unprogrammed default
  6522                           ;	Table Read Protection Block 3
  6523                           ;	EBTR3 = 0x1, unprogrammed default
  6524   30000C                     	org	3145740
  6525   30000C  0F                 	db	15
  6526                           
  6527                           ;Config register CONFIG7H @ 0x30000D
  6528                           ;	Boot Block Table Read Protection bit
  6529                           ;	EBTRB = OFF, Boot Block (000000-0007FFh) not protected from table reads executed in ot
      +                          her blocks
  6530   30000D                     	org	3145741
  6531   30000D  40                 	db	64
  6532                           tosu	equ	0xFFF
  6533                           tosh	equ	0xFFE
  6534                           tosl	equ	0xFFD
  6535                           stkptr	equ	0xFFC
  6536                           pclatu	equ	0xFFB
  6537                           pclath	equ	0xFFA
  6538                           pcl	equ	0xFF9
  6539                           tblptru	equ	0xFF8
  6540                           tblptrh	equ	0xFF7
  6541                           tblptrl	equ	0xFF6
  6542                           tablat	equ	0xFF5
  6543                           prodh	equ	0xFF4
  6544                           prodl	equ	0xFF3
  6545                           indf0	equ	0xFEF
  6546                           postinc0	equ	0xFEE
  6547                           postdec0	equ	0xFED
  6548                           preinc0	equ	0xFEC
  6549                           plusw0	equ	0xFEB
  6550                           fsr0h	equ	0xFEA
  6551                           fsr0l	equ	0xFE9
  6552                           wreg	equ	0xFE8
  6553                           indf1	equ	0xFE7
  6554                           postinc1	equ	0xFE6
  6555                           postdec1	equ	0xFE5
  6556                           preinc1	equ	0xFE4
  6557                           plusw1	equ	0xFE3
  6558                           fsr1h	equ	0xFE2
  6559                           fsr1l	equ	0xFE1
  6560                           bsr	equ	0xFE0
  6561                           indf2	equ	0xFDF
  6562                           postinc2	equ	0xFDE
  6563                           postdec2	equ	0xFDD
  6564                           preinc2	equ	0xFDC
  6565                           plusw2	equ	0xFDB
  6566                           fsr2h	equ	0xFDA
  6567                           fsr2l	equ	0xFD9
  6568                           status	equ	0xFD8

Data Sizes:
    Strings     214
    Constant    0
    Data        2
    BSS         153
    Persistent  0
    Stack       0

Auto Spaces:
    Space          Size  Autos    Used
    COMRAM           94     71      82
    BANK0           160     38     132
    BANK1           256     41      91
    BANK2           256      0       0
    BANK3           256      0       0
    BANK4           256      0       0
    BANK5           256      0       0

Pointer List with Targets:

    f$.$buffer	PTR unsigned char  size(2) Largest target is 0

    f$.$source	PTR const unsigned char  size(2) Largest target is 0

    fputc@fp	PTR struct _IO_FILE size(1) Largest target is 12
		 -> sprintf@f(COMRAM[12]), 

    fputc@fp$.$buffer	PTR unsigned char  size(2) Largest target is 0

    fputc@fp$.$source	PTR const unsigned char  size(2) Largest target is 0

    S1862$buffer	PTR unsigned char  size(2) Largest target is 0

    S1862$source	PTR const unsigned char  size(2) Largest target is 0

    sprintf@ap	PTR void [1] size(1) Largest target is 2
		 -> ?_sprintf(COMRAM[2]), 

    sprintf@fmt	PTR const unsigned char  size(1) Largest target is 20
		 -> STR_9(CODE[20]), 

    sprintf@s	PTR unsigned char  size(2) Largest target is 50
		 -> buffer(BANK1[50]), 

    UARTWriteStrLn@string	PTR unsigned char  size(2) Largest target is 50
		 -> buffer(BANK1[50]), STR_1(CODE[14]), STR_2(CODE[14]), STR_3(CODE[14]), 
		 -> STR_4(CODE[48]), STR_5(CODE[32]), STR_6(CODE[32]), STR_7(CODE[9]), 
		 -> STR_8(CODE[14]), 

    vfpfcnvrt@ap	PTR PTR void  size(1) Largest target is 1
		 -> sprintf@ap(COMRAM[1]), 

    vfpfcnvrt@cp	PTR unsigned char  size(1) Largest target is 20
		 -> STR_9(CODE[20]), 

    vfpfcnvrt@fmt	PTR PTR unsigned char  size(1) Largest target is 1
		 -> vfprintf@cfmt(COMRAM[1]), 

    vfpfcnvrt@fp	PTR struct _IO_FILE size(1) Largest target is 12
		 -> sprintf@f(COMRAM[12]), 

    vfprintf@ap	PTR PTR void  size(1) Largest target is 1
		 -> sprintf@ap(COMRAM[1]), 

    vfprintf@cfmt	PTR unsigned char  size(1) Largest target is 20
		 -> STR_9(CODE[20]), 

    vfprintf@fmt	PTR const unsigned char  size(1) Largest target is 20
		 -> STR_9(CODE[20]), 

    vfprintf@fp	PTR struct _IO_FILE size(1) Largest target is 12
		 -> sprintf@f(COMRAM[12]), 


Critical Paths under _main in COMRAM

    _main->___fltol
    _sprintf->_vfprintf
    _vfprintf->_vfpfcnvrt
    _vfpfcnvrt->_fputc
    _i2c_repStart->_i2c_waitForIdle
    _UARTWriteStrLn->_UARTWriteByte
    _I2C_Write_Register->_i2c_write
    _BME280_Read_Temperature->_i2c_read
    _BME280_Read_Temperature->_i2c_write
    _BME280_Read_Compensation_Params->_i2c_read
    _BME280_Read_Compensation_Params->_i2c_write
    _i2c_read->_i2c_waitForIdle
    _BME280_Init->_i2c_write
    _i2c_write->_i2c_waitForIdle
    _i2c_stop->_i2c_waitForIdle
    _BME280_Compensate_Temperature->___fltol
    ___xxtofl->___fladd
    ___fltol->___flmul
    ___flsub->___fldiv
    ___flmul->___xxtofl
    ___fldiv->___xxtofl

Critical Paths under _SerialRxPinInterrupt in COMRAM

    _SerialRxPinInterrupt->i2_UARTWriteStrLn
    i2_UARTWriteStrLn->i2_UARTWriteByte

Critical Paths under _main in BANK0

    _main->_BME280_Compensate_Temperature
    _BME280_Compensate_Temperature->___flsub

Critical Paths under _SerialRxPinInterrupt in BANK0

    None.

Critical Paths under _main in BANK1

    None.

Critical Paths under _SerialRxPinInterrupt in BANK1

    None.

Critical Paths under _main in BANK2

    None.

Critical Paths under _SerialRxPinInterrupt in BANK2

    None.

Critical Paths under _main in BANK3

    None.

Critical Paths under _SerialRxPinInterrupt in BANK3

    None.

Critical Paths under _main in BANK4

    None.

Critical Paths under _SerialRxPinInterrupt in BANK4

    None.

Critical Paths under _main in BANK5

    None.

Critical Paths under _SerialRxPinInterrupt in BANK5

    None.

Call Graph Tables:

 ---------------------------------------------------------------------------------
 (Depth) Function   	        Calls       Base Space   Used Autos Params    Refs
 ---------------------------------------------------------------------------------
 (0) _main                                                68    63      5   24860
                                             32 BANK0      6     1      5
                                              0 BANK1     41    41      0
      _BME280_Compensate_Temperature
                        _BME280_Init
    _BME280_Read_Compensation_Params
            _BME280_Read_Temperature
                 _I2C_Write_Register
                           _UARTInit
                       _UARTReadByte
                     _UARTWriteStrLn
                            ___flmul
                            ___fltol
                            _i2c_ACK
                            _i2c_NAK
                           _i2c_init
                           _i2c_read
                       _i2c_repStart
                          _i2c_start
                           _i2c_stop
                          _i2c_write
                            _sprintf
 ---------------------------------------------------------------------------------
 (1) _sprintf                                             22    15      7    2849
                                             35 COMRAM    20    13      7
                           _vfprintf
 ---------------------------------------------------------------------------------
 (2) _vfprintf                                             4     1      3    2363
                                             31 COMRAM     4     1      3
                          _vfpfcnvrt
 ---------------------------------------------------------------------------------
 (3) _vfpfcnvrt                                           12     9      3    1902
                                             20 COMRAM    11     8      3
                              _fputc
 ---------------------------------------------------------------------------------
 (4) _fputc                                                8     5      3     957
                                             12 COMRAM     8     5      3
                              _putch
 ---------------------------------------------------------------------------------
 (5) _putch                                                1     1      0       0
 ---------------------------------------------------------------------------------
 (1) _i2c_repStart                                         0     0      0       0
                    _i2c_waitForIdle
 ---------------------------------------------------------------------------------
 (1) _i2c_init                                             0     0      0       0
 ---------------------------------------------------------------------------------
 (1) _UARTWriteStrLn                                       5     3      2     901
                                             13 COMRAM     5     3      2
                      _UARTWriteByte
 ---------------------------------------------------------------------------------
 (2) _UARTWriteByte                                        1     1      0      31
                                             12 COMRAM     1     1      0
 ---------------------------------------------------------------------------------
 (1) _UARTReadByte                                         0     0      0       0
 ---------------------------------------------------------------------------------
 (1) _UARTInit                                             0     0      0       0
 ---------------------------------------------------------------------------------
 (1) _I2C_Write_Register                                   5     1      4     335
                                             14 COMRAM     5     1      4
                          _i2c_start
                           _i2c_stop
                          _i2c_write
 ---------------------------------------------------------------------------------
 (1) _BME280_Read_Temperature                             18    14      4     204
                                             14 COMRAM    18    14      4
                            _i2c_ACK
                            _i2c_NAK
                           _i2c_read
                          _i2c_start
                           _i2c_stop
                          _i2c_write
 ---------------------------------------------------------------------------------
 (1) _BME280_Read_Compensation_Params                     16    16      0     442
                                             14 COMRAM    16    16      0
                            _i2c_ACK
                            _i2c_NAK
                           _i2c_read
                          _i2c_start
                           _i2c_stop
                          _i2c_write
 ---------------------------------------------------------------------------------
 (1) _i2c_read                                             1     1      0      37
                                             13 COMRAM     1     1      0
                    _i2c_waitForIdle
 ---------------------------------------------------------------------------------
 (1) _i2c_NAK                                              0     0      0       0
 ---------------------------------------------------------------------------------
 (1) _i2c_ACK                                              0     0      0       0
 ---------------------------------------------------------------------------------
 (1) _BME280_Init                                          0     0      0      31
                          _i2c_start
                           _i2c_stop
                          _i2c_write
 ---------------------------------------------------------------------------------
 (1) _i2c_write                                            1     1      0      31
                                             13 COMRAM     1     1      0
                    _i2c_waitForIdle
 ---------------------------------------------------------------------------------
 (1) _i2c_stop                                             0     0      0       0
                    _i2c_waitForIdle
 ---------------------------------------------------------------------------------
 (2) _i2c_waitForIdle                                      1     1      0       0
                                             12 COMRAM     1     1      0
 ---------------------------------------------------------------------------------
 (1) _i2c_start                                            0     0      0       0
 ---------------------------------------------------------------------------------
 (1) _BME280_Compensate_Temperature                       32    28      4   15846
                                              8 BANK0     24    20      4
                            ___fladd
                            ___fldiv
                            ___flmul
                            ___flsub
                            ___fltol
                           ___xxtofl
 ---------------------------------------------------------------------------------
 (2) ___xxtofl                                            14    10      4    1106
                                             28 COMRAM    14    10      4
                            ___fladd (ARG)
 ---------------------------------------------------------------------------------
 (1) ___fltol                                             10     6      4     517
                                             67 COMRAM     4     0      4
                                              0 BANK0      6     6      0
                            ___fladd (ARG)
                            ___flmul (ARG)
                           ___xxtofl (ARG)
 ---------------------------------------------------------------------------------
 (2) ___flsub                                              8     0      8    4187
                                              0 BANK0      8     0      8
                            ___fladd
                            ___fldiv (ARG)
                           ___xxtofl (ARG)
 ---------------------------------------------------------------------------------
 (3) ___fladd                                             16     8      8    3622
                                             12 COMRAM    16     8      8
 ---------------------------------------------------------------------------------
 (1) ___flmul                                             25    17      8    3233
                                             42 COMRAM    25    17      8
                           ___xxtofl (ARG)
 ---------------------------------------------------------------------------------
 (2) ___fldiv                                             25    17      8    2723
                                             42 COMRAM    25    17      8
                            ___fladd (ARG)
                           ___xxtofl (ARG)
 ---------------------------------------------------------------------------------
 Estimated maximum stack depth 5
 ---------------------------------------------------------------------------------
 (Depth) Function   	        Calls       Base Space   Used Autos Params    Refs
 ---------------------------------------------------------------------------------
 (6) _SerialRxPinInterrupt                                 6     6      0     164
                                              6 COMRAM     6     6      0
                     i2_UARTReadByte
                   i2_UARTWriteStrLn
 ---------------------------------------------------------------------------------
 (7) i2_UARTWriteStrLn                                     5     3      2     164
                                              1 COMRAM     5     3      2
                    i2_UARTWriteByte
 ---------------------------------------------------------------------------------
 (8) i2_UARTWriteByte                                      1     1      0      22
                                              0 COMRAM     1     1      0
 ---------------------------------------------------------------------------------
 (7) i2_UARTReadByte                                       0     0      0       0
 ---------------------------------------------------------------------------------
 Estimated maximum stack depth 8
 ---------------------------------------------------------------------------------

 Call Graph Graphs:

 _main (ROOT)
   _BME280_Compensate_Temperature
     ___fladd
     ___fldiv
       ___fladd (ARG)
       ___xxtofl (ARG)
         ___fladd (ARG)
     ___flmul
       ___xxtofl (ARG)
     ___flsub
       ___fladd
       ___fldiv (ARG)
       ___xxtofl (ARG)
     ___fltol
       ___fladd (ARG)
       ___flmul (ARG)
       ___xxtofl (ARG)
     ___xxtofl
   _BME280_Init
     _i2c_start
     _i2c_stop
       _i2c_waitForIdle
     _i2c_write
       _i2c_waitForIdle
   _BME280_Read_Compensation_Params
     _i2c_ACK
     _i2c_NAK
     _i2c_read
       _i2c_waitForIdle
     _i2c_start
     _i2c_stop
     _i2c_write
   _BME280_Read_Temperature
     _i2c_ACK
     _i2c_NAK
     _i2c_read
     _i2c_start
     _i2c_stop
     _i2c_write
   _I2C_Write_Register
     _i2c_start
     _i2c_stop
     _i2c_write
   _UARTInit
   _UARTReadByte
   _UARTWriteStrLn
     _UARTWriteByte
   ___flmul
   ___fltol
   _i2c_ACK
   _i2c_NAK
   _i2c_init
   _i2c_read
   _i2c_repStart
     _i2c_waitForIdle
   _i2c_start
   _i2c_stop
   _i2c_write
   _sprintf
     _vfprintf
       _vfpfcnvrt
         _fputc
           _putch

 _SerialRxPinInterrupt (ROOT)
   i2_UARTReadByte
   i2_UARTWriteStrLn
     i2_UARTWriteByte

 Address spaces:
Name               Size   Autos  Total    Cost      Usage
BIGRAM             5FF      0       0      27        0.0%
EEDATA             100      0       0       0        0.0%
BITBANK5           100      0       0      13        0.0%
BANK5              100      0       0      14        0.0%
BITBANK4           100      0       0      11        0.0%
BANK4              100      0       0      12        0.0%
BITBANK3           100      0       0       9        0.0%
BANK3              100      0       0      10        0.0%
BITBANK2           100      0       0       7        0.0%
BANK2              100      0       0       8        0.0%
BITBANK1           100      0       0       5        0.0%
BANK1              100     29      5B       6       35.5%
BITBANK0            A0      0       0       3        0.0%
BANK0               A0     26      84       4       82.5%
BITCOMRAM           5E      0       0       0        0.0%
COMRAM              5E     47      52       1       87.2%
BITBIGSFRlllllh     59      0       0      24        0.0%
BITBIGSFRhhl        1E      0       0      16        0.0%
BITBIGSFRhhh         D      0       0      15        0.0%
BITBIGSFRlllhhh      C      0       0      19        0.0%
BITBIGSFRlllhlh      9      0       0      21        0.0%
BITBIGSFRllllh       8      0       0      23        0.0%
BITBIGSFRhlh         7      0       0      17        0.0%
BITBIGSFRlllhhl      7      0       0      20        0.0%
BITBIGSFRlllhll      2      0       0      22        0.0%
BITBIGSFRllllll      2      0       0      25        0.0%
BITBIGSFRhll         1      0       0      18        0.0%
BIGSFR               0      0       0     200        0.0%
BITSFR_1             0      0       0     200        0.0%
SFR_1                0      0       0     200        0.0%
BITSFR               0      0       0     200        0.0%
SFR                  0      0       0     200        0.0%
STACK                0      0       0       2        0.0%
NULL                 0      0       0       0        0.0%
ABS                  0      0     131      26        0.0%
DATA                 0      0     131      28        0.0%
CODE                 0      0       0       0        0.0%


Microchip Technology PIC18 Macro Assembler V2.46 build 20240104201356 
Symbol Table                                                                                   Thu Jun 20 11:35:07 2024

                                ___fldiv@aexp 0043                                  ___fldiv@bexp 0042  
                                           _i 004C                                  ___fldiv@sign 003B  
                                 _SSPSTATbits 0FC7                                            l71 242A  
                                          l94 2064                                            l89 226A  
                                          l97 2112                                           l100 1ACC  
                                         l140 0D70                                           l207 2196  
                                         l143 0E12                                           l119 0BD4  
                                         l252 2404                                           l148 0FE6  
                                         l261 2470                                           l270 2496  
                                         l246 23D8                                           l255 24F4  
                                         l192 24AC                                           l264 247E  
                                         l273 24CA                                           l258 2502  
                                         l282 24C2                                           l186 23AC  
                                         l267 2488                                           l291 2458  
                                         l195 2506                                           l276 24D8  
                                         l285 2434                                           l189 249A  
                                         l294 2466                                           l279 24B4  
                                         l287 2442                                           l288 244A  
                                         l911 10E8                                           l920 1356  
                                         l921 1344                                           l825 08C6  
                                         l842 09E0                                           l834 0B96  
                                         l826 08B4                                           l594 1EF6  
                                         l915 144C                                           l851 0AB0  
                                         l827 087A                                           l852 0A9E  
                                         l918 12DE                                           l928 140E  
                                         l952 1B24                                           l881 1646  
                                         l890 168C                                           l867 22FC  
                                         l955 1C80                                           l892 1704  
                                         l884 160A                                           l893 16F2  
                                         l966 1C18                                           l879 17E6  
                                         l959 1BBC                                           l975 2376  
                                         wreg 0FE8                                    _TXSTA1bits 0FAC  
                                ___flmul@aexp 0038                                  ___flmul@bexp 003D  
                                ___flmul@sign 0037                                  ___flmul@temp 0042  
                                ___flmul@prod 003E                                  ___fltol@exp1 00C1  
                                        l1021 233A                                          l1014 1DEE  
                                        l1033 1FB0                                          l1044 250E  
                                        l4000 1238                                          l4010 12CE  
                                        l4002 1262                                          l4020 130E  
                                        l4012 12DC                                          l4004 1298  
                                        l4100 1ED6                                          l4030 1380  
                                        l4022 133C                                          l4014 12EE  
                                        l4006 12A6                                          l4102 1EE6  
                                        l4110 1AEE                                          l4040 13F6  
                                        l4032 13AA                                          l4016 12FC  
                                        l4008 12C4                                          l4120 1B66  
                                        l4112 1B34                                          l4200 1FB2  
                                        l4042 1412                                          l4050 1438  
                                        l4026 1366                                          l4034 13AE  
                                        l4018 1300                                          l4130 1BEE  
                                        l4122 1B72                                          l4114 1B4A  
                                        l4106 1AD0                                          l4210 1FD0  
                                        l4202 1FB6                                          l4052 143C  
                                        l4044 1422                                          l4036 13C8  
                                        l4028 1372                                          l3500 06E4  
                                        l4140 1C2C                                          l4132 1BFA  
                                        l4124 1BA4                                          l4108 1AE0  
                                        l4220 1FF8                                          l4204 1FBC  
                                        l4300 23BE                                          l4046 1430  
                                        l4038 13DC                                          l3510 0724  
                                        l3502 06F2                                          l4070 1E46  
                                        l4062 1DF0                                          l4142 1C50  
                                        l4134 1C08                                          l4126 1BA6  
                                        l4118 1B5E                                          l4230 202C  
                                        l4222 1FFC                                          l4206 1FC2  
                                        l4310 23CC                                          l4302 23C0  
                                        l4048 1432                                          l3600 08E4  
                                        l3520 0756                                          l3512 0726  
                                        l3504 06F4                                          l4056 22B6  
                                        l4072 1E48                                          l4064 1E08  
                                        l4144 1C60                                          l4136 1C26  
                                        l4128 1BB2                                          l4232 2040  
                                        l4224 2018                                          l4216 1FD8  
                                        l4208 1FC6                                          l4240 2070  
                                        l4320 23D6                                          l4312 23CE  
                                        l4304 23C6                                          l4152 22FE  
                                        l4400 0BBE                                          l3610 0924  
                                        l3530 077E                                          l3522 0758  
                                        l3506 0704                                          l3514 072E  
                                        l4058 22C8                                          l4074 1E58  
                                        l4146 1C6E                                          l4138 1C28  
                                        l4234 2052                                          l4226 2024  
                                        l4218 1FF4                                          l4250 2098  
                                        l4242 2076                                          l4170 2420  
                                        l4162 2408                                          l4330 238C  
                                        l4322 2378                                          l4314 23D0  
                                        l4306 23C8                                          l4154 2306  
                                        l4410 0BE4                                          l4402 0BD0  
                                        l3620 094E                                          l3612 0930  
                                        l3604 08F8                                          l3540 07B8  
                                        l3532 078E                                          l3524 075E  
                                        l3516 073E                                          l3508 0714  
                                        l4084 1E82                                          l4076 1E5C  
                                        l4068 1E1C                                          l4148 1C70  
                                        l4260 17E8                                          l4180 222C  
                                        l4228 2028                                          l4252 209E  
                                        l4244 207A                                          l4236 2066  
                                        l4172 2426                                          l4164 240C  
                                        l4340 2396                                          l4332 238E  
                                        l4324 2380                                          l4316 23D2  
                                        l4308 23CA                                          l3700 1C82  
                                        l4156 2316                                          l4500 0D98  
                                        l4420 0C16                                          l4412 0BEA  
                                        l4404 0BD6                                          l3630 09C0  
                                        l3614 0934                                          l3606 0908  
                                        l3622 0954                                          l3550 07E4  
                                        l3542 07CA                                          l3534 079E  
                                        l3526 076C                                          l3518 0744  
                                        l4094 1EAA                                          l4086 1E8C  
                                        l4078 1E6A                                          l4270 19C6  
                                        l4262 17FA                                          l4190 224C  
                                        l4182 2232                                          l4174 221C  
                                        l4254 20A6                                          l4246 208A  
                                        l4238 206A                                          l4166 2414  
                                        l4350 23A8                                          l4342 2398  
                                        l4334 2390                                          l4326 2388  
                                        l4318 23D4                                          l3710 1CC8  
                                        l3702 1CA4                                          l4158 2332  
                                        l4510 0DB2                                          l4502 0D9C  
                                        l4430 0C62                                          l4422 0C26  
                                        l4414 0BEE                                          l4406 0BDE  
                                        l3800 149A                                          l3640 0A1A  
                                        l3624 097A                                          l3632 09D0  
                                        l3616 0942                                          l3608 0916  
                                        l3560 07F8                                          l3552 07E8  
                                        l3544 07D8                                          l3536 07A0  
                                        l3528 076E                                          l4096 1EB6  
                                        l4088 1E96                                          l4272 1A16  
                                        l4264 189E                                          l4192 2254  
                                        l4184 223A                                          l4176 2220  
                                        l4256 2102                                          l4248 208E  
                                        l4168 241A                                          l4352 23AA  
                                        l4344 23A2                                          l4336 2392  
                                        l4328 238A                                          l4280 2114  
                                        l3480 1EF8                                          l3720 1D14  
                                        l3712 1CE4                                          l3704 1CAC  
                                        l4360 233C                                          l4600 0F8A  
                                        l4520 0DD0                                          l4512 0DBA  
                                        l4504 0DA2                                          l4440 0C9E  
                                        l4432 0C66                                          l4424 0C3A  
                                        l4416 0BFE                                          l4408 0BE2  
                                        l3810 14C0                                          l3802 149C  
                                        l3650 0A4A                                          l3642 0A24  
                                        l3634 09F6                                          l3626 09AE  
                                        l3618 0944                                          l3570 080C  
                                        l3562 07FC                                          l3554 07EC  
                                        l3546 07DC                                          l3538 07A8  
                                        l4098 1EC6                                          l4274 1A64  
                                        l4266 18EE                                          l4194 225A  
                                        l4186 2240                                          l4178 2226  
                                        l4346 23A4                                          l4338 2394  
                                        l4290 2504                                          l4282 211C  
                                        l4354 2468                                          l3490 1F70  
                                        l3482 1F08                                          l3730 1D50  
                                        l3722 1D24                                          l3714 1CFC  
                                        l3706 1CBA                                          l4362 2348  
                                        l4610 0FCA                                          l4602 0F92  
                                        l4530 0DEE                                          l4522 0DD4  
                                        l4514 0DC0                                          l4506 0DA6  
                                        l4450 0CDE                                          l4442 0CB2  
                                        l4434 0C76                                          l4426 0C3E  
                                        l4418 0C12                                          l3900 1758  
                                        l3820 1500                                          l3812 14CE  
                                        l3804 14A4                                          l3660 0A72  
                                        l3652 0A4E                                          l3644 0A32  
                                        l3636 0A06                                          l3628 09B0  
                                        l3580 0846                                          l3572 0810  
                                        l3564 0800                                          l3556 07F0  
                                        l3548 07E0                                          l4276 1ABC  
                                        l4268 1992                                          l4196 2260  
                                        l4188 2246                                          l4348 23A6  
                                        l4284 214C                                          l4356 246C  
                                        l3484 1F18                                          l3732 1D62  
                                        l3724 1D2C                                          l3716 1D0A  
                                        l3708 1CBE                                          l4364 2350  
                                        l4612 0FE2                                          l4604 0F9A  
                                        l4540 0E18                                          l4532 0DF4  
                                        l4524 0DDC                                          l4516 0DC6  
                                        l4508 0DAE                                          l4460 0D1E  
                                        l4452 0CF2                                          l4444 0CB6  
                                        l4436 0C8A                                          l4428 0C4E  
                                        l3910 17C2                                          l3902 175C  
                                        l3830 1540                                          l3822 1502  
                                        l3814 14D0                                          l3806 14B4  
                                        l3670 0ACC                                          l3662 0A80  
                                        l3654 0A5E                                          l3646 0A34  
                                        l3590 0898                                          l3582 0862  
                                        l3574 0814                                          l3566 0804  
                                        l3558 07F4                                          l3494 23DA  
                                        l4198 2266                                          l4286 214E  
                                        l4294 23AE                                          l4358 246E  
                                        l3486 1F22                                          l3734 1D76  
                                        l3726 1D30                                          l3718 1D0E  
                                        l3742 1DA8                                          l4366 2358  
                                        l4614 0FF8                                          l4606 0FA2  
                                        l4550 0E3E                                          l4542 0E2A  
                                        l4534 0DF8                                          l4526 0DE0  
                                        l4518 0DCA                                          l4470 0D36  
                                        l4462 0D24                                          l4454 0D04  
                                        l4446 0CCA                                          l4438 0C8E  
                                        l3912 17C6                                          l3904 1776  
                                        l3840 1570                                          l3832 1548  
                                        l3816 14E0                                          l3824 150A  
                                        l3808 14BA                                          l3680 0B36  
                                        l3672 0ADA                                          l3664 0A96  
                                        l3648 0A42                                          l3656 0A60  
                                        l3592 08A6                                          l3584 0872  
                                        l3568 0808                                          l3576 0818  
                                        l3496 23DA                                          l3760 2454  
                                        l4288 218A                                          l4296 23B8  
                                        l3488 1F3E                                          l3736 1D90  
                                        l3728 1D3E                                          l3744 1DC0  
                                        l4368 2368                                          l4616 100E  
                                        l4608 0FBE                                          l4560 0E5C  
                                        l4552 0E44                                          l4544 0E2E  
                                        l4536 0DFE                                          l4528 0DE8  
                                        l4480 0D4C                                          l4472 0D3A  
                                        l4464 0D28                                          l4456 0D14  
                                        l4448 0CDC                                          l4392 0B98  
                                        l3914 17D4                                          l3906 178C  
                                        l3850 15AE                                          l3842 1570  
                                        l3834 154C                                          l3826 151A  
                                        l3818 14F0                                          l3930 103E  
                                        l3690 0B70                                          l3682 0B56  
                                        l3674 0B14                                          l3658 0A6E  
                                        l3594 08A8                                          l3586 0888  
                                        l3578 081C                                          l3498 06D8  
                                        l3754 24F0                                          l3762 2480  
                                        l3770 242C                                          l4298 23BC  
                                        l3738 1D92                                          l4618 1014  
                                        l4570 0E7A                                          l4562 0E62  
                                        l4554 0E48                                          l4546 0E34  
                                        l4538 0E06                                          l4490 0D68  
                                        l4482 0D52                                          l4474 0D3E  
                                        l4466 0D2E                                          l4458 0D18  
                                        l4394 0BA0                                          l3916 17DA  
                                        l3908 17A6                                          l3860 15FA  
                                        l3852 15BE                                          l3828 1530  
                                        l3940 1076                                          l3932 1040  
                                        l3692 0B76                                          l3684 0B5A  
                                        l3668 0AC0                                          l3676 0B16  
                                        l3596 08B2                                          l3588 0894  
                                        l3764 2484                                          l3756 244E  
                                        l3780 24C4                                          l3772 2430  
                                        l3748 1DCC                                          l4580 0EC6  
                                        l4572 0E86                                          l4564 0E68  
                                        l4556 0E50                                          l4548 0E3A  
                                        l4492 0D76                                          l4484 0D56  
                                        l4476 0D42                                          l4468 0D32  
                                        l4396 0BA4                                          l3918 17DC  
                                        l3870 1644                                          l3862 1608  
                                        l3854 15CE                                          l3846 1584  
                                        l3838 1560                                          l3790 145A  
                                        l3950 10A2                                          l3942 1086  
                                        l3934 1050                                          l3926 1024  
                                        l3694 0B84                                          l3686 0B68  
                                        l3678 0B26                                          l3598 08D4  
                                        l3766 2486                                          l3758 2452  
                                        l3782 24AE                                          l3774 2432  
                                        l4590 0F4E                                          l4582 0EFA  
                                        l4574 0E8A                                          l4566 0E6C  
                                        l4558 0E54                                          l4494 0D88  
                                        l4486 0D5C                                          l4478 0D46  
                                        l4398 0BA8                                          l3880 168A  
                                        l3872 1656                                          l3864 1614  
                                        l3856 15D6                                          l3848 159E  
                                        l3792 1468                                          l3960 10F8  
                                        l3952 10B2                                          l3944 108C  
                                        l3936 1060                                          l3928 1030  
                                        l3696 0B86                                          l3688 0B6E  
                                        l3776 2448                                          l3768 242C  
                                        l3784 249A                                          l4592 0F5E  
                                        l4584 0F42                                          l4576 0E8E  
                                        l4568 0E72                                          l4496 0D8C  
                                        l4488 0D64                                          l3890 16EA  
                                        l3874 166C                                          l3882 169C  
                                        l3866 1632                                          l3858 15E6  
                                        l3794 146A                                          l3970 1132  
                                        l3962 1108                                          l3954 10C2  
                                        l3946 1092                                          l3938 1070  
                                        l3786 24A8                                          l4594 0F6E  
                                        l4586 0F46                                          l4578 0EA2  
                                        l4498 0D92                                          l3884 16AA  
                                        l3876 1672                                          l3868 1634  
                                        l3796 147A                                          l3788 144E  
                                        l3980 1184                                          l3972 1148  
                                        l3956 10D2                                          l3948 10A0  
                                        l4596 0F78                                          l4588 0F4A  
                                        l3894 1714                                          l3886 16AE  
                                        l3878 167C                                          l3798 148A  
                                        l3990 11CA                                          l3982 1192  
                                        l3974 1154                                          l3966 111C  
                                        l3958 10D8                                          l4598 0F80  
                                        l3896 1720                                          l3888 16BC  
                                        l3992 11E4                                          l3984 119E  
                                        l3976 116C                                          l3968 1128  
                                        l3898 172E                                          l3994 11F4  
                                        l3986 11AE                                          l3978 1178  
                                        l3996 1210                                          l3988 11BA  
                                        l3998 121C                                          STR_1 06B2  
                                        STR_2 06C0                    BME280_Read_Temperature@lsb 001F  
                                        STR_3 0696                                          STR_4 0601  
                                        STR_5 0631                                          STR_6 0651  
                  BME280_Read_Temperature@msb 001E                                          STR_7 06CE  
                                        STR_8 06A4                                          STR_9 0671  
                                        u3000 1F70                                          u3001 1F6C  
                                        u3010 23EC                                          u3011 23E4  
                                        u3100 07CA                                          u3020 2404  
                                        u3101 07C6                                          u3021 2400  
                                        u3110 07D8                                          u3030 06F2  
                                        u3111 07D4                                          u3031 06EE  
                                        u3200 0916                                          u3120 0846  
                                        u3040 0704                                          u4000 1E7E  
                                        u3201 0912                                          u3121 0842  
                                        u3041 0700                                          u4001 1E7A  
                                        u3210 0924                                          u3130 085E  
                                        u3050 0714                                          u4010 1EA6  
                                        u3018 23EE                                          u3211 0920  
                                        u3131 0858                                          u3051 0710  
                                        u4011 1EA2                                          u3300 0A6E  
                                        u3220 0942                                          u3140 0860  
                                        u3060 0756                                          u4020 1EC6  
                                        u4100 1C18                                          u3301 0A6A  
                                        u3221 093E                                          u3061 0752  
                                        u4021 1EC2                                          u4101 1C14  
                                        u3310 0A80                                          u3230 097A  
                                        u3150 0888                                          u3070 076C  
                                        u4030 1ED6                                          u4110 1C26  
                                        u3311 0A7C                                          u3231 0976  
                                        u3151 0884                                          u3071 0768  
                                        u4031 1ED2                                          u4111 1C22  
                                        u3400 0B68                                          u3320 0A96  
                                        u3240 09C0                                          u3160 08A6  
                                        u3080 077E                                          u4120 1C60  
                                        u4040 1AE0                                          u4200 247E  
                                        u3401 0B64                                          u3321 0A92  
                                        u3241 09BC                                          u3161 08A2  
                                        u3081 077A                                          u4121 1C5C  
                                        u4041 1ADC                                          u4201 247A  
                                        u3410 0B84                                          u3330 0AAC  
                                        u3250 09F6                                          u3170 08C6  
                                        u3090 078E                                          u4130 1C6E  
                                        u4050 1AEE                                          u3411 0B80  
                                        u3331 0AA8                                          u3251 09F2  
                                        u3171 08C2                                          u3091 078A  
                                        u4131 1C6A                                          u4051 1AEA  
                                        u3340 0AC0                                          u3260 0A06  
                                        u3180 08D4                                          u4060 1B4A  
                                        u3500 2496                                          u3420 1CA4  
                                        u4140 2332                                          u4300 0D88  
                                        u3341 0ABC                                          u3261 0A02  
                                        u3181 08D0                                          u4061 1B46  
                                        u3501 2492                                          u3421 1CA0  
                                        u4141 232E                                          u4301 0D84  
                                        u3350 0ADA                                          u3270 0A32  
                                        u3190 08E4                                          u4070 1BA0  
                                        u3510 2442                                          u4150 2018  
                                        u3430 1CE4                                          u4310 0E2A  
                                        u4230 0C12                                          u3351 0AD6  
                                        u3271 0A2E                                          u3191 08E0  
                                        u4071 1B9C                                          u3511 243E  
                                        u4151 2014                                          u3431 1CE0  
                                        u4311 0E26                                          u4231 0C0E  
                                        u3600 14F0                                          u3360 0B14  
                                        u3280 0A42                                          u4080 1BEA  
                                        u3520 24D8                                          u3440 1D24  
                                        u4320 0FDE                                          u4240 0C3A  
                                        u3601 14EC                                          u3361 0B10  
                                        u3281 0A3E                                          u4081 1BE6  
                                        u3521 24D4                                          u3441 1D20  
                                        u4321 0FDA                                          u4241 0C36  
                                        u3610 1530                                          u3370 0B26  
                                        u3290 0A5E                                          u4090 1C08  
                                        u3530 24C2                                          u4170 2148  
                                        u3450 1D62                                          u4330 0FF8  
                                        u4250 0C62                                          u3611 152C  
                                        u3371 0B22                                          u3291 0A5A  
                                        u4091 1C04                                          u3531 24BE  
                                        u3451 1D5E                                          u4331 0FF4  
                                        u4251 0C5E                                          u3700 16BC  
                                        u3620 1570                                          u3380 0B36  
                                        u3540 24A8                                          u4180 217A  
                                        u3460 1D72                                          u4260 0C8A  
                                        u3701 16B8                                          u3621 156C  
                                        u3381 0B32                                          u4165 20C6  
                                        u3541 24A4                                          u3461 1D6E  
                                        u4261 0C86                                          u3710 16EA  
                                        u3630 15E6                                          u3550 1468  
                                        u3390 0B56                                          u4190 218A  
                                        u3470 1DA4                                          u4270 0CB2  
                                        u3711 16E6                                          u3631 15E2  
                                        u3551 1464                                          u3391 0B52  
                                        u4191 2186                                          u3471 1DA0  
                                        u4271 0CAE                                          u3720 1700  
                                        u3640 1608                                          u3560 147A  
                                        u3800 1060                                          u3480 2502  
                                        u4280 0CDC                                          u3721 16FC  
                                        u3641 1604                                          u3561 1476  
                                        u3801 105C                                          u3481 24FE  
                                        u4177 213E                                          u4281 0CD8  
                                        u3730 1714                                          u3650 1632  
                                        u3570 148A                                          u3810 10A0  
                                        u3490 2466                                          u4290 0CF2  
                                        u3731 1710                                          u3651 162E  
                                        u3571 1486                                          u3811 109C  
                                        u3491 2462                                          u4187 2170  
                                        u4291 0CEE                                          _PEIE 7F96  
                                        u3740 172E                                          u3660 1656  
                                        u3580 14CE                                          u3900 133C  
                                        u3820 10B2                                          u3741 172A  
                                        u3661 1652                                          u3581 14CA  
                                        u3901 1338                                          u3821 10AE  
                                        u3750 1776                                          u3670 166C  
                                        u3590 14E0                                          u3910 1352  
                                        u3830 10C2                                          u3751 1772  
                                        u3671 1668                                          u3591 14DC  
                                        u3911 134E                                          u3831 10BE  
                                        u4367 0BC6                                          u3760 17A6  
                                        u3680 168A                                          u3920 1366  
                                        u3840 10F8                                          u3761 17A2  
                                        u3681 1686                                          u3921 1362  
                                        u3841 10F4                                          u4377 0BE6  
                                        u3770 17D4                                          u3690 16AA  
                                        u3930 1380                                          u3850 1108  
                                        u2970 1F08                                          u3771 17D0  
                                        u3691 16A6                                          u3931 137C  
                                        u3851 1104                                          u2971 1F04  
                                        u4387 0D0C                                          _RCIE 7CED  
                                        u3940 13C8                                          u3860 1282  
                                        u3780 103E                                          u2980 1F18  
                                        _RCIF 7CF5                                          u3941 13C4  
                                        u3781 103A                                          u2981 1F14  
                                        u4397 0F66                                          u3950 13F6  
                                        u3870 12DC                                          u3790 1050  
                                        u2990 1F3E                                          u3951 13F2  
                                        u3871 12D8                                          u3791 104C  
                                        u2991 1F3A                                          u3960 1430  
                                        u3880 12FC                                          u3961 142C  
                                        u3881 12F8                                          u3865 1278  
                                        u3890 130E                                          u3970 1E08  
                                        u3891 130A                                          u3971 1E04  
                                        u3980 1E3C                                          u3990 1E6A  
                                        u3991 1E66                                          u3985 1E32  
                              i2_UARTReadByte 2508                                          _dbuf 0081  
                                        _main 0B98                                          _prec 0048  
                                        fsr0h 0FEA                                          _pout 0051  
                                        fsr1h 0FE2                                          indf0 0FEF  
                                        fsr2h 0FDA                                          fsr0l 0FE9  
                                        indf2 0FDF                                          fsr1l 0FE1  
                                        fsr2l 0FD9                                          _rssi 004A  
                                        btemp 0053                             ??_i2c_waitForIdle 000D  
                                        prodh 0FF4                                          prodl 0FF3  
                                        start 00A2                               ___fldiv@new_exp 003C  
                               ?_i2c_repStart 0001                               __end_of_i2c_ACK 24DA  
                             __end_of_i2c_NAK 24C4                                  ___param_bank 0000  
                                _BAUDCON1bits 0FB8                                 ___fltol@sign1 00C0  
                             __end_of___fladd 0B98                                         ?_main 00DC  
                             __end_of___fldiv 17E8                                  main@compteur 0144  
                                       STR_10 0685                               __end_of___flmul 144E  
                             __end_of___flsub 22FE                               __end_of___fltol 1EF8  
                         i2UARTWriteByte@data 0001                   BME280_Read_Temperature@xlsb 0020  
                                       i2l112 0086                                         i2l106 0056  
                                       i2l207 221A                                         i2l192 24EE  
                                       i2l195 250A                                         i2l189 24DC  
                                vfpfcnvrt@fmt 0016                              __end_of_UARTInit 23AE  
                                       _debut 004F                                         _flags 004E  
                                main@temp_LSB 0143                                  main@temp_MSB 0141  
                                       _fputc 1EF8                                  main@temp_air 0152  
                                       _width 00B5                                         _myvar 00B9  
                                       _putch 250E                        __end_ofi2_UARTReadByte 250C  
                             UARTWriteStrLn@i 0012            BME280_Compensate_Temperature@adc_T 00C4  
                                       tablat 0FF5                                         ttemp5 0054  
                                       ttemp6 0057                                         ttemp7 005B  
                                       status 0FD8                                         wtemp8 0054  
                             __end_of_sprintf 2378                              main@check_mesure 0156  
                              ??_i2c_repStart 000E                               __initialization 226C  
                                __end_of_main 1024                              __end_of_i2c_init 23DA  
                            __end_of_i2c_read 244C                        i2UARTWriteStrLn@string 0002  
                            __end_of_i2c_stop 2498              BME280_Read_Compensation_Params@i 001D  
                                      ??_main 00E1                                 main@bit_vanne 0146  
                               __activetblptr 0002                               i2_UARTWriteByte 24DA  
                BME280_Read_Temperature@adc_T 001A                                        ?_fputc 000D  
                                      ?_putch 0001                               ?i2_UARTReadByte 0001  
                                      i2l3200 004E                                        i2l3210 007E  
                                      i2l3202 0064                                        i2l3204 0074  
                                      i2l3206 0078                                        i2l3160 2508  
                                      i2l3208 007E                                        i2l3170 21D2  
                                      i2l3172 220E                                        i2l3164 2198  
                                      i2l3166 21A0                                        i2l3168 21D0  
                                      i2l3194 0022                                        i2l3196 0030  
                                      i2l3198 003E                                        i2l2946 24DC  
                                      i2l2948 24EA                                        _RCREG1 0FAE  
                                      _RCSTA1 0FAB                                        _SPBRG1 0FAF  
                                   ??_i2c_ACK 000D                                        _SSPBUF 0FC9  
                                   ??_i2c_NAK 000D                                        _TXREG1 0FAD  
                            __end_of___xxtofl 1C82                                        _TXSTA1 0FAC  
                                vfprintf@cfmt 0023                                     ??___fladd 0015  
                                   ??___fldiv 0033                                     ??___flmul 0033  
                                   ??___flsub 0044                                     ??___fltol 00BC  
                                      _buffer 0100                                        _t_fine 00B1  
                                      clear_0 228A                                        clear_1 2296  
                                      clear_2 22A2                                        isa$std 0001  
                                      _myvar2 00B7                                        _string 00A1  
                       i2c_write@i2cWriteData 000E                                        fputc@c 000D  
                                __mediumconst 0000                                        tblptrh 0FF7  
                                      tblptrl 0FF6                                        tblptru 0FF8  
                                      putch@c 0001                              __end_of_vfprintf 233C  
                                   ??_sprintf 002B            _BME280_Compensate_Temperature$2196 00D0  
                                ___xxtofl@arg 0027                                  ___xxtofl@exp 0026  
                                ___xxtofl@val 001D                                    __accesstop 0060  
                     __end_of__initialization 22A8                                 ___rparam_used 0001  
                                  ___fltol@f1 0044             BME280_Compensate_Temperature@var1 00D4  
           BME280_Compensate_Temperature@var2 00D8                                __pcstackCOMRAM 0001  
                                __pidataBANK0 250C                                     ?_UARTInit 0001  
                               __end_of_fputc 1FB2                                 __end_of_putch 2510  
                       __end_of_UARTWriteByte 24AE                       __end_ofi2_UARTWriteByte 24F0  
                           __end_of_i2c_start 2504                             __end_of_i2c_write 2468  
                   I2C_Write_Register@address 0011                          __end_of_i2c_repStart 2480  
                             _i2c_waitForIdle 23DA                           i2c_read@i2cReadData 000E  
                                     ??_fputc 0010                                       ??_putch 000D  
                                  __pbssBANK0 0060                                    __pbssBANK1 0100  
                               ??_BME280_Init 000F                                     ?_i2c_init 0001  
                                   ?_i2c_read 0001                                     ?_i2c_stop 0001  
         BME280_Read_Compensation_Params@data 0011                       _BME280_Read_Temperature 2066  
                                  ??_UARTInit 000D                              i2_UARTWriteStrLn 2198  
                                   ?___xxtofl 001D                                    _compParams 0060  
                                     _SPBRGH1 0FB0                                       _SSP1ADD 0FC8  
                                     _SSP1BUF 0FC9                                 ?_UARTReadByte 0001  
                                  ??_i2c_init 000D                                    ??_i2c_read 000E  
                                  ??_i2c_stop 000E                                       _i2c_ACK 24C4  
                                     _i2c_NAK 24AE                             UARTWriteByte@data 000D  
                                     __Hparam 0000                                       __Lparam 0000  
                         __end_of_BME280_Init 226C                                       ___fladd 06D8  
                                     ___fldiv 144E                                       ___flmul 1024  
                                     ___flsub 22B6                                       ___fltol 1DF0  
                                   ?_vfprintf 0020                                  __psmallconst 0600  
                                     __pcinit 226C                    __end_of_I2C_Write_Register 242C  
                              main@temp_32bit 0157                                       __ramtop 0600  
                     __end_of_i2c_waitForIdle 2406                                       __ptext0 0B98  
                                     __ptext1 233C                                       __ptext2 22FE  
                                     __ptext3 1C82                                       __ptext4 1EF8  
                                     __ptext5 250E                                       __ptext6 2468  
                                     __ptext7 23AE                                       __ptext8 2114  
                                     __ptext9 2498                              ?i2_UARTWriteByte 0001  
                                  ??___xxtofl 0021                                       _reg_val 0052  
                            ??i2_UARTReadByte 0001                                main@temp_MidSB 0142  
                              ??_UARTReadByte 000D                                       _sprintf 233C  
                        end_of_initialization 22A8                                       fputc@fp 000F  
                               __Lmediumconst 0000                     ??_BME280_Read_Temperature 0013  
                           __end_of_vfpfcnvrt 1DF0               ??_BME280_Compensate_Temperature 0048  
                                     postdec2 0FDD                                       postinc0 0FEE  
                                     postinc1 0FE6                                       postinc2 0FDE  
                            vfpfcnvrt@convarg 0019                                    ??_vfprintf 0023  
                       I2C_Write_Register@reg 0013                                   ___fladd@grs 001C  
                               ___xxtofl@sign 0025                                     _TRISCbits 0F94  
                                 ___fldiv@grs 003E                                   ___fldiv@rem 0037  
                              _UARTWriteStrLn 2114                                   _BME280_Init 221C  
                                 ___flmul@grs 0039                                    main@myvar3 0138  
                                  main@myvar4 013A                                    main@myvar5 013C  
                                  main@myvar6 013E                                  _i2c_repStart 2468  
                                 vfpfcnvrt@ap 0017                                   vfpfcnvrt@cp 001E  
                                 vfpfcnvrt@fp 0015                          UARTWriteStrLn@string 000E  
                            ?_i2c_waitForIdle 0001                  __end_of_SerialRxPinInterrupt 00A2  
                         start_initialization 226C                        __end_of_UARTWriteStrLn 2198  
                                   _i2c_start 24F0                                     _i2c_write 244C  
                    __end_ofi2_UARTWriteStrLn 221C                                   vfprintf@fmt 0021  
                        __end_of_UARTReadByte 2508                                   __pdataBANK0 00E2  
       __end_of_BME280_Compensate_Temperature 1ACE                 _BME280_Compensate_Temperature 17E8  
                                   ___fladd@a 0011                                     ___fladd@b 000D  
                                   ___fldiv@a 002F                                     ___fldiv@b 002B  
                                   ___flmul@a 002F                                     ___flmul@b 002B  
                                 __pbssCOMRAM 0048                                     ___flsub@a 00C0  
                                   ___flsub@b 00BC                                 __pcstackBANK0 00BC  
                               __pcstackBANK1 0132                               ?_UARTWriteStrLn 000E  
                                  ?_i2c_start 0001                                    ?_i2c_write 0001  
     __end_of_BME280_Read_Compensation_Params 2066             ??_BME280_Read_Compensation_Params 000F  
            ?_BME280_Read_Compensation_Params 0001               _BME280_Read_Compensation_Params 1FB2  
                                    ?_i2c_ACK 0001                                      ?_i2c_NAK 0001  
                                   _main$2197 014C                                     __pintcode 0008  
                                    ?___fladd 000D                                      ?___fldiv 002B  
                                    ?___flmul 002B                                      ?___flsub 00BC  
                                    ?___fltol 0044                                   __smallconst 0600  
                                    ?_sprintf 0024                            _I2C_Write_Register 2406  
                         ?_I2C_Write_Register 000F                                      _PIE1bits 0F9D  
                        _SerialRxPinInterrupt 0008                                      i2u281_40 0030  
                                    i2u281_41 002C                                      _PIR1bits 0F9E  
                                    i2u282_40 003E                                      i2u282_41 003A  
                                    i2u283_40 0064                                      i2u283_41 0060  
                                    _PIR2bits 0FA1                                      i2u276_40 21CC  
                                    i2u276_47 21C2                                      i2u269_40 24EA  
                                    i2u277_40 21FE                                      i2u269_41 24E6  
                                    i2u277_47 21F4                                      i2u278_40 220E  
                                    i2u278_41 220A                                     _txBuffer1 0050  
                                   main@F6348 00E2      BME280_Compensate_Temperature@temperature 00CC  
                                    _SSP1CON1 0FC6                                      _SSP1CON2 0FC5  
                                    _UARTInit 2378                                     _vfpfcnvrt 1C82  
                            main@temp_celsius 0134                                 _UARTWriteByte 2498  
                        ??_I2C_Write_Register 0013                                     main@adc_T 0148  
                                   main@degre 0132                                     main@temp2 0140  
                                   main@watt1 0150                                     main@watt2 0151  
              ?_BME280_Compensate_Temperature 00C4                                   ??_i2c_start 000D  
                                 ??_i2c_write 000E                                    vfpfcnvrt@c 001F  
                                  vfpfcnvrt@x 001D                                  ?_BME280_Init 0001  
                                    _i2c_init 23AE                                      _i2c_read 242C  
                                    _i2c_stop 2480                             i2UARTWriteStrLn@i 0006  
                       ?_SerialRxPinInterrupt 0001                                      __Hrparam 0000  
                                  vfprintf@ap 0022                                      __Lrparam 0000  
                                  vfprintf@fp 0020                                    ?_vfpfcnvrt 0015  
                              ?_UARTWriteByte 0001                                    _ANSELCbits 0F3A  
                                  sprintf@fmt 0026                                      ___xxtofl 1ACE  
                                    __ptext10 2504                                      __ptext11 2378  
                                    __ptext20 2480                                      __ptext12 2406  
                                    __ptext21 23DA                                      __ptext13 2066  
                                    __ptext22 24F0                                      __ptext14 1FB2  
                                    __ptext31 2198                                      __ptext23 17E8  
                                    __ptext15 242C                                      __ptext32 24DA  
                                    __ptext24 1ACE                                      __ptext16 24AE  
                                    __ptext33 2508                                      __ptext25 1DF0  
                                    __ptext17 24C4                                      __ptext26 22B6  
                                    __ptext18 221C                                      __ptext27 06D8  
                                    __ptext19 244C                                      __ptext28 1024  
                                    __ptext29 144E                                  _SSP1CON2bits 0FC5  
                                _SSP1CON3bits 0FCB                                  _UARTReadByte 2504  
                    ?_BME280_Read_Temperature 000F                             ?i2_UARTWriteStrLn 0002  
                          ??i2_UARTWriteStrLn 0004                                      _txBuffer 00BB  
                                    isa$xinst 0000                                      int$flags 0053  
                                    _vfprintf 22FE                                      main@argc 00DC  
                                    main@argv 00DE                                  _SSP1STATbits 0FC7  
                            ??_UARTWriteStrLn 0010                                    _INTCONbits 0FF2  
                                    intlevel2 0000                                     sprintf@ap 002B  
                      ??_SerialRxPinInterrupt 0007  BME280_Compensate_Temperature@temperature_max 00C8  
                                  _RCSTA1bits 0FAB                             ??i2_UARTWriteByte 0001  
                                  _OSCCONbits 0FD3                       I2C_Write_Register@value 000F  
                             ??_UARTWriteByte 000D                                   ??_vfpfcnvrt 0018  
                                    sprintf@f 002C                                      sprintf@s 0024  
             __end_of_BME280_Read_Temperature 2114                                   _SSPCON2bits 0FC5  
                               ___fladd@signs 0019                                  ___fladd@aexp 001A  
                                ___fladd@bexp 001B  
