

Microchip MPLAB XC8 Assembler V2.46 build 20240104201356 
                                                                                               Mon Jun 17 15:54:34 2024

Microchip MPLAB XC8 C Compiler v2.46 (Free license) build 20240104201356 Og1 
     1                           	processor	18F46K22
     2                           	fnconf	rparam,??,?,0
     3                           	pagewidth 120
     4                           	opt	flic
     5                           	psect	idataBANK0,global,class=CODE,delta=1,noexec
     6                           	psect	smallconst,global,reloc=2,class=SMALLCONST,delta=1,noexec
     7                           	psect	cinit,global,reloc=2,class=CODE,delta=1
     8                           	psect	bssBANK0,global,class=BANK0,space=1,delta=1,lowdata,noexec
     9                           	psect	dataBANK0,global,class=BANK0,space=1,delta=1,lowdata,noexec
    10                           	psect	cstackBANK0,global,class=BANK0,space=1,delta=1,lowdata,noexec
    11                           	psect	cstackCOMRAM,global,class=COMRAM,space=1,delta=1,lowdata,noexec
    12                           	psect	text0,global,reloc=2,class=CODE,delta=1
    13                           	psect	text1,global,reloc=2,class=CODE,delta=1
    14                           	psect	text2,global,reloc=2,class=CODE,delta=1
    15                           	psect	text3,global,reloc=2,class=CODE,delta=1
    16                           	psect	text4,global,reloc=2,class=CODE,delta=1,group=1
    17                           	psect	text5,global,reloc=2,class=CODE,delta=1,group=1
    18                           	psect	text6,global,reloc=2,class=CODE,delta=1
    19                           	psect	text7,global,reloc=2,class=CODE,delta=1
    20                           	psect	text8,global,reloc=2,class=CODE,delta=1
    21                           	psect	text9,global,reloc=2,class=CODE,delta=1
    22                           	psect	text10,global,reloc=2,class=CODE,delta=1
    23                           	psect	text11,global,reloc=2,class=CODE,delta=1
    24                           	psect	text12,global,reloc=2,class=CODE,delta=1
    25                           	psect	text13,global,reloc=2,class=CODE,delta=1
    26                           	psect	text14,global,reloc=2,class=CODE,delta=1
    27                           	psect	text15,global,reloc=2,class=CODE,delta=1
    28                           	psect	text16,global,reloc=2,class=CODE,delta=1
    29                           	psect	text17,global,reloc=2,class=CODE,delta=1
    30                           	psect	text18,global,reloc=2,class=CODE,delta=1
    31                           	psect	text19,global,reloc=2,class=CODE,delta=1
    32                           	psect	text20,global,reloc=2,class=CODE,delta=1
    33                           	psect	text21,global,reloc=2,class=CODE,delta=1
    34                           	psect	text22,global,reloc=2,class=CODE,delta=1
    35                           	psect	text23,global,reloc=2,class=CODE,delta=1
    36                           	psect	text24,global,reloc=2,class=CODE,delta=1
    37                           	psect	text25,global,reloc=2,class=CODE,delta=1
    38                           	psect	text26,global,reloc=2,class=CODE,delta=1
    39                           	psect	text27,global,reloc=2,class=CODE,delta=1
    40                           	psect	text28,global,reloc=2,class=CODE,delta=1,group=1
    41                           	psect	text29,global,reloc=2,class=CODE,delta=1,group=1
    42                           	psect	text30,global,reloc=2,class=CODE,delta=1,group=1
    43                           	psect	text31,global,reloc=2,class=CODE,delta=1,group=1
    44                           	psect	text32,global,reloc=2,class=CODE,delta=1,group=1
    45                           	psect	text33,global,reloc=2,class=CODE,delta=1,group=1
    46                           	psect	intsave_regs,global,class=BIGRAM,space=1,delta=1,noexec
    47                           	psect	rparam,global,class=COMRAM,space=1,delta=1,noexec
    48                           	psect	config,global,abs,ovrld,class=CONFIG,space=4,delta=1,noexec
    49   000000                     
    50                           ; Generated 21/07/2023 GMT
    51                           ; 
    52                           ; Copyright © 2023, Microchip Technology Inc. and its subsidiaries ("Microchip")
    53                           ; All rights reserved.
    54                           ; 
    55                           ; This software is developed by Microchip Technology Inc. and its subsidiaries ("Microch
      +                          ip").
    56                           ; 
    57                           ; Redistribution and use in source and binary forms, with or without modification, are
    58                           ; permitted provided that the following conditions are met:
    59                           ; 
    60                           ;     1. Redistributions of source code must retain the above copyright notice, this lis
      +                          t of
    61                           ;        conditions and the following disclaimer.
    62                           ; 
    63                           ;     2. Redistributions in binary form must reproduce the above copyright notice, this 
      +                          list
    64                           ;        of conditions and the following disclaimer in the documentation and/or other
    65                           ;        materials provided with the distribution. Publication is not required when
    66                           ;        this file is used in an embedded application.
    67                           ; 
    68                           ;     3. Microchip's name may not be used to endorse or promote products derived from th
      +                          is
    69                           ;        software without specific prior written permission.
    70                           ; 
    71                           ; THIS SOFTWARE IS PROVIDED BY MICROCHIP "AS IS" AND ANY EXPRESS OR IMPLIED WARRANTIES,
    72                           ; INCLUDING, BUT NOT LIMITED TO, THE IMPLIED WARRANTIES OF MERCHANTABILITY AND FITNESS F
      +                          OR
    73                           ; PURPOSE ARE DISCLAIMED.  IN NO EVENT SHALL MICROCHIP BE LIABLE FOR ANY DIRECT, INDIREC
      +                          T,
    74                           ; INCIDENTAL, SPECIAL, EXEMPLARY, OR CONSEQUENTIAL DAMAGES (INCLUDING BUT NOT LIMITED TO
    75                           ; PROCUREMENT OF SUBSTITUTE GOODS OR SERVICES; LOSS OF USE, DATA OR PROFITS; OR BUSINESS
    76                           ; INTERRUPTION) HOWSOEVER CAUSED AND ON ANY THEORY OF LIABILITY, WHETHER IN CONTRACT, ST
      +                          RICT
    77                           ; LIABILITY, OR TORT (INCLUDING NEGLIGENCE OR OTHERWISE) ARISING IN ANY WAY OUT OF THE U
      +                          SE OF
    78                           ; THIS SOFTWARE, EVEN IF ADVISED OF THE POSSIBILITY OF SUCH DAMAGE.
    79                           ; 
    80                           ; 
    81                           ; Code-generator required, PIC18F46K22 Definitions
    82                           ; 
    83                           ; SFR Addresses
    84   000000                     
    85                           	psect	idataBANK0
    86   002C96                     __pidataBANK0:
    87                           	callstack 0
    88                           
    89                           ;initializer for main@F6603
    90   002C96  DF                 	db	223
    91   002C97  00                 	db	0
    92   000000                     _SSP1STATbits	set	4039
    93   000000                     _SSP1ADD	set	4040
    94   000000                     _SSPCON2bits	set	4037
    95   000000                     _SSPSTATbits	set	4039
    96   000000                     _SSPBUF	set	4041
    97   000000                     _LATD	set	3980
    98   000000                     _SSP1CON2bits	set	4037
    99   000000                     _SSP1STAT	set	4039
   100   000000                     _ANSELCbits	set	3898
   101   000000                     _TRISCbits	set	3988
   102   000000                     _TRISDbits	set	3989
   103   000000                     _PIR1bits	set	3998
   104   000000                     _SSP1CON1	set	4038
   105   000000                     _PORTD	set	3971
   106   000000                     _LATDbits	set	3980
   107   000000                     _SSP1BUF	set	4041
   108   000000                     _SSP1CON3bits	set	4043
   109   000000                     _PIR2bits	set	4001
   110   000000                     _SSP1CON2	set	4037
   111                           
   112                           	psect	smallconst
   113   001000                     __psmallconst:
   114                           	callstack 0
   115   001000  00                 	db	0
   116   001001                     STR_1:
   117   001001  30                 	db	48	;'0'
   118   001002  31                 	db	49	;'1'
   119   001003  32                 	db	50	;'2'
   120   001004  33                 	db	51	;'3'
   121   001005  34                 	db	52	;'4'
   122   001006  35                 	db	53	;'5'
   123   001007  36                 	db	54	;'6'
   124   001008  37                 	db	55	;'7'
   125   001009  38                 	db	56	;'8'
   126   00100A  39                 	db	57	;'9'
   127   00100B  41                 	db	65	;'A'
   128   00100C  42                 	db	66	;'B'
   129   00100D  43                 	db	67	;'C'
   130   00100E  44                 	db	68	;'D'
   131   00100F  45                 	db	69	;'E'
   132   001010  46                 	db	70	;'F'
   133   001011  00                 	db	0
   134   001012                     STR_2:
   135   001012  43                 	db	67	;'C'
   136   001013  00                 	db	0
   137   001014                     STR_3:
   138   001014  50                 	db	80	;'P'
   139   001015  00                 	db	0
   140   001016  00                 	db	0	; dummy byte at the end
   141   000000                     
   142                           ; #config settings
   143                           
   144                           	psect	cinit
   145   002B02                     __pcinit:
   146                           	callstack 0
   147   002B02                     start_initialization:
   148                           	callstack 0
   149   002B02                     __initialization:
   150                           	callstack 0
   151                           
   152                           ; Initialize objects allocated to BANK0 (2 bytes)
   153                           ; load TBLPTR registers with __pidataBANK0
   154   002B02  0E96               	movlw	low __pidataBANK0
   155   002B04  6EF6               	movwf	tblptrl,c
   156   002B06  0E2C               	movlw	high __pidataBANK0
   157   002B08  6EF7               	movwf	tblptrh,c
   158   002B0A  0E00               	movlw	low (__pidataBANK0 shr (0+16))
   159   002B0C  6EF8               	movwf	tblptru,c
   160   002B0E  0009               	tblrd		*+	;fetch initializer
   161   002B10  CFF5 F098          	movff	tablat,__pdataBANK0
   162   002B14  0009               	tblrd		*+	;fetch initializer
   163   002B16  CFF5 F099          	movff	tablat,__pdataBANK0+1
   164                           
   165                           ; Clear objects allocated to BANK0 (37 bytes)
   166   002B1A  EE00  F060         	lfsr	0,__pbssBANK0
   167   002B1E  0E25               	movlw	37
   168   002B20                     clear_0:
   169   002B20  6AEE               	clrf	postinc0,c
   170   002B22  06E8               	decf	wreg,f,c
   171   002B24  E1FD               	bnz	clear_0
   172   002B26                     end_of_initialization:
   173                           	callstack 0
   174   002B26                     __end_of__initialization:
   175                           	callstack 0
   176   002B26  0E00               	movlw	low (__Lmediumconst shr (0+16))
   177   002B28  6EF8               	movwf	tblptru,c
   178   002B2A  0100               	movlb	0
   179   002B2C  EFC0  F00F         	goto	_main	;jump to C main() function
   180                           
   181                           	psect	bssBANK0
   182   000060                     __pbssBANK0:
   183                           	callstack 0
   184   000060                     _compParams:
   185                           	callstack 0
   186   000060                     	ds	33
   187   000081                     _t_fine:
   188                           	callstack 0
   189   000081                     	ds	4
   190                           
   191                           	psect	dataBANK0
   192   000098                     __pdataBANK0:
   193                           	callstack 0
   194   000098                     main@F6603:
   195                           	callstack 0
   196   000098                     	ds	2
   197                           
   198                           	psect	cstackBANK0
   199   000085                     __pcstackBANK0:
   200                           	callstack 0
   201   000085                     main@degre:
   202                           	callstack 0
   203                           
   204                           ; 2 bytes @ 0x0
   205   000085                     	ds	2
   206   000087                     main@adc_T:
   207                           	callstack 0
   208                           
   209                           ; 4 bytes @ 0x2
   210   000087                     	ds	4
   211   00008B                     main@temperature:
   212                           	callstack 0
   213                           
   214                           ; 4 bytes @ 0x6
   215   00008B                     	ds	4
   216   00008F                     main@temp_celsius:
   217                           	callstack 0
   218                           
   219                           ; 4 bytes @ 0xA
   220   00008F                     	ds	4
   221   000093                     main@hygro1:
   222                           	callstack 0
   223                           
   224                           ; 1 bytes @ 0xE
   225   000093                     	ds	1
   226   000094                     main@hygro2:
   227                           	callstack 0
   228                           
   229                           ; 1 bytes @ 0xF
   230   000094                     	ds	1
   231   000095                     main@watt1:
   232                           	callstack 0
   233                           
   234                           ; 1 bytes @ 0x10
   235   000095                     	ds	1
   236   000096                     main@watt2:
   237                           	callstack 0
   238                           
   239                           ; 1 bytes @ 0x11
   240   000096                     	ds	1
   241   000097                     main@check_mesure:
   242                           	callstack 0
   243                           
   244                           ; 1 bytes @ 0x12
   245   000097                     	ds	1
   246                           
   247                           	psect	cstackCOMRAM
   248   000001                     __pcstackCOMRAM:
   249                           	callstack 0
   250   000001                     ??_i2c_waitForIdle:
   251   000001                     ?___lwdiv:
   252                           	callstack 0
   253   000001                     ?___fladd:
   254                           	callstack 0
   255   000001                     ReadByte@status:
   256                           	callstack 0
   257   000001                     WriteNibble@data:
   258                           	callstack 0
   259   000001                     ___lwdiv@dividend:
   260                           	callstack 0
   261   000001                     ___fladd@b:
   262                           	callstack 0
   263                           
   264                           ; 4 bytes @ 0x0
   265   000001                     	ds	1
   266   000002                     ??_WriteNibble:
   267   000002                     i2c_read@i2cReadData:
   268                           	callstack 0
   269   000002                     i2c_write@i2cWriteData:
   270                           	callstack 0
   271   000002                     WaitLCD@status:
   272                           	callstack 0
   273                           
   274                           ; 1 bytes @ 0x1
   275   000002                     	ds	1
   276   000003                     ??_BME280_Read_Compensation_Params:
   277   000003                     WriteNibble@cmd:
   278                           	callstack 0
   279   000003                     I2C_Write_Register@value:
   280                           	callstack 0
   281   000003                     ___lwdiv@divisor:
   282                           	callstack 0
   283                           
   284                           ; 2 bytes @ 0x2
   285   000003                     	ds	1
   286   000004                     ??_LCDInit:
   287   000004                     WriteByte@data:
   288                           	callstack 0
   289                           
   290                           ; 1 bytes @ 0x3
   291   000004                     	ds	1
   292   000005                     WriteByte@cmd:
   293                           	callstack 0
   294   000005                     I2C_Write_Register@address:
   295                           	callstack 0
   296   000005                     ___lwdiv@quotient:
   297                           	callstack 0
   298   000005                     ___fladd@a:
   299                           	callstack 0
   300   000005                     BME280_Read_Compensation_Params@data:
   301                           	callstack 0
   302                           
   303                           ; 12 bytes @ 0x4
   304   000005                     	ds	1
   305   000006                     ??_LCDClear:
   306   000006                     LCDGoto@row:
   307                           	callstack 0
   308   000006                     LCDPutChar@data:
   309                           	callstack 0
   310                           
   311                           ; 1 bytes @ 0x5
   312   000006                     	ds	1
   313   000007                     ??_LCDGoto:
   314   000007                     I2C_Write_Register@reg:
   315                           	callstack 0
   316   000007                     ___lwdiv@counter:
   317                           	callstack 0
   318   000007                     LCDWriteStr@string:
   319                           	callstack 0
   320                           
   321                           ; 2 bytes @ 0x6
   322   000007                     	ds	2
   323   000009                     ??___fladd:
   324   000009                     ??_LCDWriteStr:
   325   000009                     _LCDGoto$623:
   326                           	callstack 0
   327                           
   328                           ; 2 bytes @ 0x8
   329   000009                     	ds	2
   330   00000B                     LCDGoto@column:
   331                           	callstack 0
   332   00000B                     LCDWriteStr@i:
   333                           	callstack 0
   334                           
   335                           ; 1 bytes @ 0xA
   336   00000B                     	ds	1
   337   00000C                     LCDWriteHexa@row:
   338                           	callstack 0
   339                           
   340                           ; 1 bytes @ 0xB
   341   00000C                     	ds	1
   342   00000D                     LCDWriteHexa@value:
   343                           	callstack 0
   344   00000D                     ___fladd@signs:
   345                           	callstack 0
   346                           
   347                           ; 1 bytes @ 0xC
   348   00000D                     	ds	1
   349   00000E                     ??_LCDWriteHexa:
   350   00000E                     ___fladd@aexp:
   351                           	callstack 0
   352                           
   353                           ; 1 bytes @ 0xD
   354   00000E                     	ds	1
   355   00000F                     ___fladd@bexp:
   356                           	callstack 0
   357                           
   358                           ; 1 bytes @ 0xE
   359   00000F                     	ds	1
   360   000010                     LCDWriteHexa@column:
   361                           	callstack 0
   362   000010                     ___fladd@grs:
   363                           	callstack 0
   364                           
   365                           ; 1 bytes @ 0xF
   366   000010                     	ds	1
   367   000011                     ?___xxtofl:
   368                           	callstack 0
   369   000011                     BME280_Read_Compensation_Params@i:
   370                           	callstack 0
   371   000011                     LCDWriteHexa@string:
   372                           	callstack 0
   373   000011                     ___xxtofl@val:
   374                           	callstack 0
   375                           
   376                           ; 4 bytes @ 0x10
   377   000011                     	ds	3
   378   000014                     LCDWriteHexa@hexa:
   379                           	callstack 0
   380                           
   381                           ; 1 bytes @ 0x13
   382   000014                     	ds	1
   383   000015                     ??___xxtofl:
   384   000015                     ?_BME280_Read_Temperature:
   385                           	callstack 0
   386                           
   387                           ; 4 bytes @ 0x14
   388   000015                     	ds	4
   389   000019                     ??_BME280_Read_Temperature:
   390   000019                     ___xxtofl@sign:
   391                           	callstack 0
   392                           
   393                           ; 1 bytes @ 0x18
   394   000019                     	ds	1
   395   00001A                     ___xxtofl@exp:
   396                           	callstack 0
   397                           
   398                           ; 1 bytes @ 0x19
   399   00001A                     	ds	1
   400   00001B                     ___xxtofl@arg:
   401                           	callstack 0
   402                           
   403                           ; 4 bytes @ 0x1A
   404   00001B                     	ds	4
   405   00001F                     ?___fldiv:
   406                           	callstack 0
   407   00001F                     ?___flmul:
   408                           	callstack 0
   409   00001F                     ___fldiv@b:
   410                           	callstack 0
   411   00001F                     ___flmul@b:
   412                           	callstack 0
   413                           
   414                           ; 4 bytes @ 0x1E
   415   00001F                     	ds	1
   416   000020                     BME280_Read_Temperature@adc_T:
   417                           	callstack 0
   418                           
   419                           ; 4 bytes @ 0x1F
   420   000020                     	ds	3
   421   000023                     ___fldiv@a:
   422                           	callstack 0
   423   000023                     ___flmul@a:
   424                           	callstack 0
   425                           
   426                           ; 4 bytes @ 0x22
   427   000023                     	ds	1
   428   000024                     BME280_Read_Temperature@msb:
   429                           	callstack 0
   430                           
   431                           ; 1 bytes @ 0x23
   432   000024                     	ds	1
   433   000025                     BME280_Read_Temperature@lsb:
   434                           	callstack 0
   435                           
   436                           ; 1 bytes @ 0x24
   437   000025                     	ds	1
   438   000026                     BME280_Read_Temperature@xlsb:
   439                           	callstack 0
   440                           
   441                           ; 1 bytes @ 0x25
   442   000026                     	ds	1
   443   000027                     ??___fldiv:
   444   000027                     ??___flmul:
   445                           
   446                           ; 1 bytes @ 0x26
   447   000027                     	ds	4
   448   00002B                     ___flmul@sign:
   449                           	callstack 0
   450   00002B                     ___fldiv@rem:
   451                           	callstack 0
   452                           
   453                           ; 4 bytes @ 0x2A
   454   00002B                     	ds	1
   455   00002C                     ___flmul@grs:
   456                           	callstack 0
   457                           
   458                           ; 4 bytes @ 0x2B
   459   00002C                     	ds	3
   460   00002F                     ___fldiv@sign:
   461                           	callstack 0
   462                           
   463                           ; 1 bytes @ 0x2E
   464   00002F                     	ds	1
   465   000030                     ___flmul@aexp:
   466                           	callstack 0
   467   000030                     ___fldiv@new_exp:
   468                           	callstack 0
   469                           
   470                           ; 2 bytes @ 0x2F
   471   000030                     	ds	1
   472   000031                     ___flmul@bexp:
   473                           	callstack 0
   474                           
   475                           ; 1 bytes @ 0x30
   476   000031                     	ds	1
   477   000032                     ___fldiv@grs:
   478                           	callstack 0
   479   000032                     ___flmul@prod:
   480                           	callstack 0
   481                           
   482                           ; 4 bytes @ 0x31
   483   000032                     	ds	4
   484   000036                     ___fldiv@bexp:
   485                           	callstack 0
   486   000036                     ___flmul@temp:
   487                           	callstack 0
   488                           
   489                           ; 2 bytes @ 0x35
   490   000036                     	ds	1
   491   000037                     ___fldiv@aexp:
   492                           	callstack 0
   493                           
   494                           ; 1 bytes @ 0x36
   495   000037                     	ds	1
   496   000038                     ?___flsub:
   497                           	callstack 0
   498   000038                     ?___fltol:
   499                           	callstack 0
   500   000038                     ___fltol@f1:
   501                           	callstack 0
   502   000038                     ___flsub@b:
   503                           	callstack 0
   504                           
   505                           ; 4 bytes @ 0x37
   506   000038                     	ds	4
   507   00003C                     ??___fltol:
   508   00003C                     ___flsub@a:
   509                           	callstack 0
   510                           
   511                           ; 4 bytes @ 0x3B
   512   00003C                     	ds	4
   513   000040                     ___fltol@sign1:
   514                           	callstack 0
   515                           
   516                           ; 1 bytes @ 0x3F
   517   000040                     	ds	1
   518   000041                     ___fltol@exp1:
   519                           	callstack 0
   520                           
   521                           ; 1 bytes @ 0x40
   522   000041                     	ds	1
   523   000042                     ?___lwmod:
   524                           	callstack 0
   525   000042                     ?_BME280_Compensate_Temperature:
   526                           	callstack 0
   527   000042                     ___lwmod@dividend:
   528                           	callstack 0
   529   000042                     BME280_Compensate_Temperature@adc_T:
   530                           	callstack 0
   531                           
   532                           ; 4 bytes @ 0x41
   533   000042                     	ds	2
   534   000044                     ___lwmod@divisor:
   535                           	callstack 0
   536                           
   537                           ; 2 bytes @ 0x43
   538   000044                     	ds	2
   539   000046                     ___lwmod@counter:
   540                           	callstack 0
   541   000046                     BME280_Compensate_Temperature@temperature_max:
   542                           	callstack 0
   543                           
   544                           ; 4 bytes @ 0x45
   545   000046                     	ds	1
   546   000047                     LCDWriteFloat@row:
   547                           	callstack 0
   548                           
   549                           ; 1 bytes @ 0x46
   550   000047                     	ds	1
   551   000048                     LCDWriteFloat@value:
   552                           	callstack 0
   553                           
   554                           ; 4 bytes @ 0x47
   555   000048                     	ds	2
   556   00004A                     BME280_Compensate_Temperature@temperature:
   557                           	callstack 0
   558                           
   559                           ; 4 bytes @ 0x49
   560   00004A                     	ds	2
   561   00004C                     LCDWriteFloat@column:
   562                           	callstack 0
   563                           
   564                           ; 1 bytes @ 0x4B
   565   00004C                     	ds	1
   566   00004D                     LCDWriteFloat@string:
   567                           	callstack 0
   568                           
   569                           ; 5 bytes @ 0x4C
   570   00004D                     	ds	1
   571   00004E                     _BME280_Compensate_Temperature$1705:
   572                           	callstack 0
   573                           
   574                           ; 4 bytes @ 0x4D
   575   00004E                     	ds	4
   576   000052                     LCDWriteFloat@integer:
   577                           	callstack 0
   578   000052                     BME280_Compensate_Temperature@var1:
   579                           	callstack 0
   580                           
   581                           ; 4 bytes @ 0x51
   582   000052                     	ds	4
   583   000056                     BME280_Compensate_Temperature@var2:
   584                           	callstack 0
   585                           
   586                           ; 4 bytes @ 0x55
   587   000056                     	ds	4
   588   00005A                     
   589                           ; 2 bytes @ 0x59
   590   00005A                     	ds	2
   591   00005C                     
   592                           ; 3 bytes @ 0x5B
   593   00005C                     	ds	3
   594   00005F                     ??_main:
   595                           
   596                           ; 1 bytes @ 0x5E
   597   00005F                     	ds	1
   598                           
   599 ;;
   600 ;;Main: autosize = 0, tempsize = 1, incstack = 0, save=0
   601 ;;
   602 ;; *************** function _main *****************
   603 ;; Defined at:
   604 ;;		line 267 in file "mesure_temp.c"
   605 ;; Parameters:    Size  Location     Type
   606 ;;  argc            2   89[COMRAM] int 
   607 ;;  argv            3   91[COMRAM] PTR PTR unsigned char 
   608 ;; Auto vars:     Size  Location     Type
   609 ;;  temp_celsius    4   10[BANK0 ] float 
   610 ;;  temperature     4    6[BANK0 ] float 
   611 ;;  adc_T           4    2[BANK0 ] long 
   612 ;;  check_mesure    1   18[BANK0 ] unsigned char 
   613 ;;  string         16    0        unsigned char [16]
   614 ;;  degre           2    0[BANK0 ] unsigned char [2]
   615 ;;  watt2           1   17[BANK0 ] unsigned char 
   616 ;;  watt1           1   16[BANK0 ] unsigned char 
   617 ;;  hygro2          1   15[BANK0 ] unsigned char 
   618 ;;  hygro1          1   14[BANK0 ] unsigned char 
   619 ;;  temp2           1    0        unsigned char 
   620 ;;  temp            1    0        unsigned char 
   621 ;; Return value:  Size  Location     Type
   622 ;;                  2   89[COMRAM] int 
   623 ;; Registers used:
   624 ;;		wreg, fsr0l, fsr0h, fsr2l, fsr2h, status,2, status,0, tblptrl, tblptrh, tblptru, prodl, prodh, cstack
   625 ;; Tracked objects:
   626 ;;		On entry : 0/0
   627 ;;		On exit  : 0/0
   628 ;;		Unchanged: 0/0
   629 ;; Data sizes:     COMRAM   BANK0   BANK1   BANK2   BANK3   BANK4   BANK5   BANK6   BANK7   BANK8   BANK9  BANK10  BANK1
      +1  BANK12  BANK13  BANK14  BANK15
   630 ;;      Params:         5       0       0       0       0       0       0       0       0       0       0       0       
      +0       0       0       0       0
   631 ;;      Locals:         0      19       0       0       0       0       0       0       0       0       0       0       
      +0       0       0       0       0
   632 ;;      Temps:          1       0       0       0       0       0       0       0       0       0       0       0       
      +0       0       0       0       0
   633 ;;      Totals:         6      19       0       0       0       0       0       0       0       0       0       0       
      +0       0       0       0       0
   634 ;;Total ram usage:       25 bytes
   635 ;; Hardware stack levels required when called: 6
   636 ;; This function calls:
   637 ;;		_BME280_Compensate_Temperature
   638 ;;		_BME280_Init
   639 ;;		_BME280_Read_Compensation_Params
   640 ;;		_BME280_Read_Temperature
   641 ;;		_I2C_Write_Register
   642 ;;		_LCDClear
   643 ;;		_LCDGoto
   644 ;;		_LCDInit
   645 ;;		_LCDWriteFloat
   646 ;;		_LCDWriteHexa
   647 ;;		_LCDWriteStr
   648 ;;		_i2c_ACK
   649 ;;		_i2c_NAK
   650 ;;		_i2c_init
   651 ;;		_i2c_read
   652 ;;		_i2c_repStart
   653 ;;		_i2c_start
   654 ;;		_i2c_stop
   655 ;;		_i2c_write
   656 ;; This function is called by:
   657 ;;		Startup code after reset
   658 ;; This function uses a non-reentrant model
   659 ;;
   660                           
   661                           	psect	text0
   662   001F80                     __ptext0:
   663                           	callstack 0
   664   001F80                     _main:
   665                           	callstack 25
   666   001F80                     
   667                           ;mesure_temp.c: 269:     INT8_T temp, temp2, hygro1, hygro2, watt1, watt2;;mesure_temp.c
      +                          : 270:     char string[16];;mesure_temp.c: 271:     char degre[2] = {0xDF, '\0'};
   668   001F80  C098  F085         	movff	main@F6603,main@degre
   669   001F84  C099  F086         	movff	main@F6603+1,main@degre+1
   670   001F88                     
   671                           ;mesure_temp.c: 273:     LCDInit();
   672   001F88  EC29  F012         	call	_LCDInit	;wreg free
   673                           
   674                           ;mesure_temp.c: 274:     LCDClear();
   675   001F8C  ECC1  F015         	call	_LCDClear	;wreg free
   676   001F90                     
   677                           ;mesure_temp.c: 276:     i2c_init();
   678   001F90  EC4B  F015         	call	_i2c_init	;wreg free
   679   001F94                     
   680                           ;mesure_temp.c: 277:     BME280_Init();
   681   001F94  ECDA  F014         	call	_BME280_Init	;wreg free
   682   001F98                     
   683                           ;mesure_temp.c: 278:     I2C_Write_Register(0x05, 0x0697, 0x40);
   684   001F98  0E06               	movlw	6
   685   001F9A  6E04               	movwf	(I2C_Write_Register@value+1)^0,c
   686   001F9C  0E97               	movlw	151
   687   001F9E  6E03               	movwf	I2C_Write_Register@value^0,c
   688   001FA0  0E00               	movlw	0
   689   001FA2  6E06               	movwf	(I2C_Write_Register@address+1)^0,c
   690   001FA4  0E40               	movlw	64
   691   001FA6  6E05               	movwf	I2C_Write_Register@address^0,c
   692   001FA8  0E05               	movlw	5
   693   001FAA  ECAE  F015         	call	_I2C_Write_Register
   694   001FAE                     
   695                           ;mesure_temp.c: 279:      _delay(12500);
   696   001FAE  0E11               	movlw	17
   697   001FB0  6E5F               	movwf	??_main^0,c
   698   001FB2  0E3A               	movlw	58
   699   001FB4                     u2617:
   700   001FB4  2EE8               	decfsz	wreg,f,c
   701   001FB6  D7FE               	bra	u2617
   702   001FB8  2E5F               	decfsz	??_main^0,f,c
   703   001FBA  D7FC               	bra	u2617
   704   001FBC  D000               	nop2	
   705   001FBE                     
   706                           ;mesure_temp.c: 281:      BME280_Read_Compensation_Params();
   707   001FBE  EC74  F013         	call	_BME280_Read_Compensation_Params	;wreg free
   708   001FC2                     l3017:
   709   001FC2                     
   710                           ;mesure_temp.c: 301:         LCDGoto(0, 1);
   711   001FC2  0E01               	movlw	1
   712   001FC4  6E06               	movwf	LCDGoto@row^0,c
   713   001FC6  0E00               	movlw	0
   714   001FC8  EC46  F014         	call	_LCDGoto
   715   001FCC                     
   716                           ;mesure_temp.c: 302:         LCDWriteStr("C");
   717   001FCC  0E12               	movlw	low STR_2
   718   001FCE  6E07               	movwf	LCDWriteStr@string^0,c
   719   001FD0  5007               	movf	LCDWriteStr@string^0,w,c
   720   001FD2  A4D8               	btfss	status,2,c
   721   001FD4  0E10               	movlw	high __smallconst
   722   001FD6  6E08               	movwf	(LCDWriteStr@string+1)^0,c
   723   001FD8  ECCE  F013         	call	_LCDWriteStr	;wreg free
   724   001FDC                     
   725                           ;mesure_temp.c: 303:         _delay(125000);
   726   001FDC  0EA3               	movlw	163
   727   001FDE  6E5F               	movwf	??_main^0,c
   728   001FE0  0E55               	movlw	85
   729   001FE2                     u2627:
   730   001FE2  2EE8               	decfsz	wreg,f,c
   731   001FE4  D7FE               	bra	u2627
   732   001FE6  2E5F               	decfsz	??_main^0,f,c
   733   001FE8  D7FC               	bra	u2627
   734   001FEA  0000               	nop	
   735   001FEC                     
   736                           ;mesure_temp.c: 308:         i2c_start();
   737   001FEC  EC38  F016         	call	_i2c_start	;wreg free
   738   001FF0                     
   739                           ;mesure_temp.c: 309:         i2c_write((0x20 << 1) | 0);
   740   001FF0  0E40               	movlw	64
   741   001FF2  ECEF  F015         	call	_i2c_write
   742   001FF6                     
   743                           ;mesure_temp.c: 310:         i2c_write(0x00) ;
   744   001FF6  0E00               	movlw	0
   745   001FF8  ECEF  F015         	call	_i2c_write
   746   001FFC                     
   747                           ;mesure_temp.c: 311:         i2c_repStart();
   748   001FFC  EC0A  F016         	call	_i2c_repStart	;wreg free
   749   002000                     
   750                           ;mesure_temp.c: 312:         i2c_write((0x20 << 1) | 1);
   751   002000  0E41               	movlw	65
   752   002002  ECEF  F015         	call	_i2c_write
   753   002006  ECD1  F015         	call	_i2c_read	;wreg free
   754   00200A                     
   755                           ;mesure_temp.c: 314:         i2c_ACK();
   756   00200A  EC2D  F016         	call	_i2c_ACK	;wreg free
   757   00200E  ECD1  F015         	call	_i2c_read	;wreg free
   758   002012                     
   759                           ;mesure_temp.c: 316:         i2c_NAK();
   760   002012  EC22  F016         	call	_i2c_NAK	;wreg free
   761   002016                     
   762                           ;mesure_temp.c: 317:         i2c_stop();
   763   002016  EC16  F016         	call	_i2c_stop	;wreg free
   764   00201A                     
   765                           ;mesure_temp.c: 319:         i2c_start();
   766   00201A  EC38  F016         	call	_i2c_start	;wreg free
   767   00201E                     
   768                           ;mesure_temp.c: 321:         i2c_write((0x20 << 1) | 0);
   769   00201E  0E40               	movlw	64
   770   002020  ECEF  F015         	call	_i2c_write
   771   002024                     
   772                           ;mesure_temp.c: 322:         i2c_write(0x09) ;
   773   002024  0E09               	movlw	9
   774   002026  ECEF  F015         	call	_i2c_write
   775   00202A                     
   776                           ;mesure_temp.c: 323:         i2c_repStart();
   777   00202A  EC0A  F016         	call	_i2c_repStart	;wreg free
   778   00202E                     
   779                           ;mesure_temp.c: 324:         i2c_write((0x20 << 1) | 1);
   780   00202E  0E41               	movlw	65
   781   002030  ECEF  F015         	call	_i2c_write
   782   002034                     
   783                           ;mesure_temp.c: 326:         INT8_T check_mesure = i2c_read();
   784   002034  ECD1  F015         	call	_i2c_read	;wreg free
   785   002038  0100               	movlb	0	; () banked
   786   00203A  6F97               	movwf	main@check_mesure& (0+255),b
   787   00203C                     
   788                           ; BSR set to: 0
   789                           ;mesure_temp.c: 327:         i2c_NAK();
   790   00203C  EC22  F016         	call	_i2c_NAK	;wreg free
   791   002040                     
   792                           ;mesure_temp.c: 328:         i2c_stop();
   793   002040  EC16  F016         	call	_i2c_stop	;wreg free
   794                           
   795                           ;mesure_temp.c: 330:         while (check_mesure != 0){
   796   002044  EF27  F010         	goto	l3063
   797   002048                     l227:
   798                           
   799                           ; BSR set to: 0
   800                           ;mesure_temp.c: 331:             _delay(5);
   801   002048  D000               	nop2		;2 cycle nop
   802   00204A  D000               	nop2		;2 cycle nop
   803   00204C  0000               	nop	
   804   00204E                     l3063:
   805                           
   806                           ;mesure_temp.c: 330:         while (check_mesure != 0){
   807   00204E  0100               	movlb	0	; () banked
   808   002050  5197               	movf	main@check_mesure& (0+255),w,b
   809   002052  A4D8               	btfss	status,2,c
   810   002054  EF2E  F010         	goto	u2601
   811   002058  EF30  F010         	goto	u2600
   812   00205C                     u2601:
   813   00205C  EF24  F010         	goto	l227
   814   002060                     u2600:
   815   002060                     
   816                           ; BSR set to: 0
   817                           ;mesure_temp.c: 334:         i2c_start();
   818   002060  EC38  F016         	call	_i2c_start	;wreg free
   819   002064                     
   820                           ;mesure_temp.c: 335:         i2c_write((0x20 << 1) | 0);
   821   002064  0E40               	movlw	64
   822   002066  ECEF  F015         	call	_i2c_write
   823   00206A                     
   824                           ;mesure_temp.c: 336:         i2c_write(0x00) ;
   825   00206A  0E00               	movlw	0
   826   00206C  ECEF  F015         	call	_i2c_write
   827   002070                     
   828                           ;mesure_temp.c: 337:         i2c_repStart();
   829   002070  EC0A  F016         	call	_i2c_repStart	;wreg free
   830   002074                     
   831                           ;mesure_temp.c: 338:         i2c_write((0x20 << 1) | 1);
   832   002074  0E41               	movlw	65
   833   002076  ECEF  F015         	call	_i2c_write
   834   00207A                     
   835                           ;mesure_temp.c: 340:         hygro1 = i2c_read();
   836   00207A  ECD1  F015         	call	_i2c_read	;wreg free
   837   00207E  0100               	movlb	0	; () banked
   838   002080  6F93               	movwf	main@hygro1& (0+255),b
   839   002082                     
   840                           ; BSR set to: 0
   841                           ;mesure_temp.c: 341:         i2c_ACK();
   842   002082  EC2D  F016         	call	_i2c_ACK	;wreg free
   843                           
   844                           ;mesure_temp.c: 342:         hygro2 = i2c_read();
   845   002086  ECD1  F015         	call	_i2c_read	;wreg free
   846   00208A  0100               	movlb	0	; () banked
   847   00208C  6F94               	movwf	main@hygro2& (0+255),b
   848   00208E                     
   849                           ; BSR set to: 0
   850                           ;mesure_temp.c: 343:         i2c_NAK();
   851   00208E  EC22  F016         	call	_i2c_NAK	;wreg free
   852   002092                     
   853                           ;mesure_temp.c: 344:         i2c_stop();
   854   002092  EC16  F016         	call	_i2c_stop	;wreg free
   855   002096                     
   856                           ;mesure_temp.c: 346:         LCDWriteHexa(0, 0, hygro1);
   857   002096  0E00               	movlw	0
   858   002098  6E0C               	movwf	LCDWriteHexa@row^0,c
   859   00209A  C093  F00D         	movff	main@hygro1,LCDWriteHexa@value
   860   00209E  0E00               	movlw	0
   861   0020A0  ECAD  F014         	call	_LCDWriteHexa
   862   0020A4                     
   863                           ;mesure_temp.c: 347:         LCDWriteHexa(2, 0, hygro2);
   864   0020A4  0E00               	movlw	0
   865   0020A6  6E0C               	movwf	LCDWriteHexa@row^0,c
   866   0020A8  C094  F00D         	movff	main@hygro2,LCDWriteHexa@value
   867   0020AC  0E02               	movlw	2
   868   0020AE  ECAD  F014         	call	_LCDWriteHexa
   869                           
   870                           ;mesure_temp.c: 353:         i2c_start();
   871   0020B2  EC38  F016         	call	_i2c_start	;wreg free
   872   0020B6                     
   873                           ;mesure_temp.c: 354:         i2c_write((0x40 << 1) | 0);
   874   0020B6  0E80               	movlw	128
   875   0020B8  ECEF  F015         	call	_i2c_write
   876   0020BC                     
   877                           ;mesure_temp.c: 355:         i2c_write(0x04) ;
   878   0020BC  0E04               	movlw	4
   879   0020BE  ECEF  F015         	call	_i2c_write
   880   0020C2                     
   881                           ;mesure_temp.c: 356:         i2c_repStart();
   882   0020C2  EC0A  F016         	call	_i2c_repStart	;wreg free
   883   0020C6                     
   884                           ;mesure_temp.c: 357:         i2c_write((0x40 << 1) | 1);
   885   0020C6  0E81               	movlw	129
   886   0020C8  ECEF  F015         	call	_i2c_write
   887   0020CC                     
   888                           ;mesure_temp.c: 359:         watt1 = i2c_read();
   889   0020CC  ECD1  F015         	call	_i2c_read	;wreg free
   890   0020D0  0100               	movlb	0	; () banked
   891   0020D2  6F95               	movwf	main@watt1& (0+255),b
   892   0020D4                     
   893                           ; BSR set to: 0
   894                           ;mesure_temp.c: 360:         i2c_ACK();
   895   0020D4  EC2D  F016         	call	_i2c_ACK	;wreg free
   896                           
   897                           ;mesure_temp.c: 361:         watt2 = i2c_read();
   898   0020D8  ECD1  F015         	call	_i2c_read	;wreg free
   899   0020DC  0100               	movlb	0	; () banked
   900   0020DE  6F96               	movwf	main@watt2& (0+255),b
   901   0020E0                     
   902                           ; BSR set to: 0
   903                           ;mesure_temp.c: 362:         i2c_NAK();
   904   0020E0  EC22  F016         	call	_i2c_NAK	;wreg free
   905   0020E4                     
   906                           ;mesure_temp.c: 363:         i2c_stop();
   907   0020E4  EC16  F016         	call	_i2c_stop	;wreg free
   908   0020E8                     
   909                           ;mesure_temp.c: 365:         LCDWriteHexa(7, 0, watt1);
   910   0020E8  0E00               	movlw	0
   911   0020EA  6E0C               	movwf	LCDWriteHexa@row^0,c
   912   0020EC  C095  F00D         	movff	main@watt1,LCDWriteHexa@value
   913   0020F0  0E07               	movlw	7
   914   0020F2  ECAD  F014         	call	_LCDWriteHexa
   915   0020F6                     
   916                           ;mesure_temp.c: 366:         LCDWriteHexa(9, 0, watt2);
   917   0020F6  0E00               	movlw	0
   918   0020F8  6E0C               	movwf	LCDWriteHexa@row^0,c
   919   0020FA  C096  F00D         	movff	main@watt2,LCDWriteHexa@value
   920   0020FE  0E09               	movlw	9
   921   002100  ECAD  F014         	call	_LCDWriteHexa
   922   002104                     
   923                           ;mesure_temp.c: 372:         long adc_T = BME280_Read_Temperature();
   924   002104  EC9D  F012         	call	_BME280_Read_Temperature	;wreg free
   925   002108  C015  F087         	movff	?_BME280_Read_Temperature,main@adc_T
   926   00210C  C016  F088         	movff	?_BME280_Read_Temperature+1,main@adc_T+1
   927   002110  C017  F089         	movff	?_BME280_Read_Temperature+2,main@adc_T+2
   928   002114  C018  F08A         	movff	?_BME280_Read_Temperature+3,main@adc_T+3
   929   002118                     
   930                           ;mesure_temp.c: 374:         double temperature = BME280_Compensate_Temperature(adc_T);
   931   002118  C087  F042         	movff	main@adc_T,BME280_Compensate_Temperature@adc_T
   932   00211C  C088  F043         	movff	main@adc_T+1,BME280_Compensate_Temperature@adc_T+1
   933   002120  C089  F044         	movff	main@adc_T+2,BME280_Compensate_Temperature@adc_T+2
   934   002124  C08A  F045         	movff	main@adc_T+3,BME280_Compensate_Temperature@adc_T+3
   935   002128  EC4E  F00E         	call	_BME280_Compensate_Temperature	;wreg free
   936   00212C  C042  F08B         	movff	?_BME280_Compensate_Temperature,main@temperature
   937   002130  C043  F08C         	movff	?_BME280_Compensate_Temperature+1,main@temperature+1
   938   002134  C044  F08D         	movff	?_BME280_Compensate_Temperature+2,main@temperature+2
   939   002138  C045  F08E         	movff	?_BME280_Compensate_Temperature+3,main@temperature+3
   940   00213C                     
   941                           ;mesure_temp.c: 378:         float temp_celsius = (float)temperature;
   942   00213C  C08B  F08F         	movff	main@temperature,main@temp_celsius
   943   002140  C08C  F090         	movff	main@temperature+1,main@temp_celsius+1
   944   002144  C08D  F091         	movff	main@temperature+2,main@temp_celsius+2
   945   002148  C08E  F092         	movff	main@temperature+3,main@temp_celsius+3
   946   00214C                     
   947                           ;mesure_temp.c: 379:         LCDWriteFloat(12,0,temp_celsius);
   948   00214C  0E00               	movlw	0
   949   00214E  6E47               	movwf	LCDWriteFloat@row^0,c
   950   002150  C08F  F048         	movff	main@temp_celsius,LCDWriteFloat@value
   951   002154  C090  F049         	movff	main@temp_celsius+1,LCDWriteFloat@value+1
   952   002158  C091  F04A         	movff	main@temp_celsius+2,LCDWriteFloat@value+2
   953   00215C  C092  F04B         	movff	main@temp_celsius+3,LCDWriteFloat@value+3
   954   002160  0E0C               	movlw	12
   955   002162  EC09  F013         	call	_LCDWriteFloat
   956   002166                     
   957                           ;mesure_temp.c: 384:         LCDGoto(0, 1);
   958   002166  0E01               	movlw	1
   959   002168  6E06               	movwf	LCDGoto@row^0,c
   960   00216A  0E00               	movlw	0
   961   00216C  EC46  F014         	call	_LCDGoto
   962   002170                     
   963                           ;mesure_temp.c: 385:         LCDWriteStr("P");
   964   002170  0E14               	movlw	low STR_3
   965   002172  6E07               	movwf	LCDWriteStr@string^0,c
   966   002174  5007               	movf	LCDWriteStr@string^0,w,c
   967   002176  A4D8               	btfss	status,2,c
   968   002178  0E10               	movlw	high __smallconst
   969   00217A  6E08               	movwf	(LCDWriteStr@string+1)^0,c
   970   00217C  ECCE  F013         	call	_LCDWriteStr	;wreg free
   971   002180                     
   972                           ;mesure_temp.c: 386:         _delay(125000);
   973   002180  0EA3               	movlw	163
   974   002182  6E5F               	movwf	??_main^0,c
   975   002184  0E55               	movlw	85
   976   002186                     u2637:
   977   002186  2EE8               	decfsz	wreg,f,c
   978   002188  D7FE               	bra	u2637
   979   00218A  2E5F               	decfsz	??_main^0,f,c
   980   00218C  D7FC               	bra	u2637
   981   00218E  0000               	nop	
   982   002190  EFE1  F00F         	goto	l3017
   983   002194  EF00  F000         	goto	start
   984   002198                     __end_of_main:
   985                           	callstack 0
   986                           
   987 ;; *************** function _i2c_repStart *****************
   988 ;; Defined at:
   989 ;;		line 59 in file "i2c.c"
   990 ;; Parameters:    Size  Location     Type
   991 ;;		None
   992 ;; Auto vars:     Size  Location     Type
   993 ;;		None
   994 ;; Return value:  Size  Location     Type
   995 ;;                  1    wreg      void 
   996 ;; Registers used:
   997 ;;		wreg, status,2, status,0, cstack
   998 ;; Tracked objects:
   999 ;;		On entry : 0/0
  1000 ;;		On exit  : 0/0
  1001 ;;		Unchanged: 0/0
  1002 ;; Data sizes:     COMRAM   BANK0   BANK1   BANK2   BANK3   BANK4   BANK5   BANK6   BANK7   BANK8   BANK9  BANK10  BANK1
      +1  BANK12  BANK13  BANK14  BANK15
  1003 ;;      Params:         0       0       0       0       0       0       0       0       0       0       0       0       
      +0       0       0       0       0
  1004 ;;      Locals:         0       0       0       0       0       0       0       0       0       0       0       0       
      +0       0       0       0       0
  1005 ;;      Temps:          0       0       0       0       0       0       0       0       0       0       0       0       
      +0       0       0       0       0
  1006 ;;      Totals:         0       0       0       0       0       0       0       0       0       0       0       0       
      +0       0       0       0       0
  1007 ;;Total ram usage:        0 bytes
  1008 ;; Hardware stack levels used: 1
  1009 ;; Hardware stack levels required when called: 1
  1010 ;; This function calls:
  1011 ;;		_i2c_waitForIdle
  1012 ;; This function is called by:
  1013 ;;		_main
  1014 ;; This function uses a non-reentrant model
  1015 ;;
  1016                           
  1017                           	psect	text1
  1018   002C14                     __ptext1:
  1019                           	callstack 0
  1020   002C14                     _i2c_repStart:
  1021                           	callstack 29
  1022   002C14                     
  1023                           ;i2c.c: 61:     i2c_waitForIdle();
  1024   002C14  EC98  F015         	call	_i2c_waitForIdle	;wreg free
  1025   002C18                     
  1026                           ;i2c.c: 63:     PIR1bits.SSP1IF = 0;
  1027   002C18  969E               	bcf	158,3,c	;volatile
  1028   002C1A                     
  1029                           ;i2c.c: 64:     SSP1CON2bits.RSEN = 1;
  1030   002C1A  82C5               	bsf	197,1,c	;volatile
  1031   002C1C                     l44:
  1032   002C1C  A69E               	btfss	158,3,c	;volatile
  1033   002C1E  EF13  F016         	goto	u2541
  1034   002C22  EF15  F016         	goto	u2540
  1035   002C26                     u2541:
  1036   002C26  EF0E  F016         	goto	l44
  1037   002C2A                     u2540:
  1038   002C2A  0012               	return		;funcret
  1039   002C2C                     __end_of_i2c_repStart:
  1040                           	callstack 0
  1041                           
  1042 ;; *************** function _i2c_init *****************
  1043 ;; Defined at:
  1044 ;;		line 16 in file "i2c.c"
  1045 ;; Parameters:    Size  Location     Type
  1046 ;;		None
  1047 ;; Auto vars:     Size  Location     Type
  1048 ;;		None
  1049 ;; Return value:  Size  Location     Type
  1050 ;;                  1    wreg      void 
  1051 ;; Registers used:
  1052 ;;		wreg, status,2
  1053 ;; Tracked objects:
  1054 ;;		On entry : 0/0
  1055 ;;		On exit  : 0/0
  1056 ;;		Unchanged: 0/0
  1057 ;; Data sizes:     COMRAM   BANK0   BANK1   BANK2   BANK3   BANK4   BANK5   BANK6   BANK7   BANK8   BANK9  BANK10  BANK1
      +1  BANK12  BANK13  BANK14  BANK15
  1058 ;;      Params:         0       0       0       0       0       0       0       0       0       0       0       0       
      +0       0       0       0       0
  1059 ;;      Locals:         0       0       0       0       0       0       0       0       0       0       0       0       
      +0       0       0       0       0
  1060 ;;      Temps:          0       0       0       0       0       0       0       0       0       0       0       0       
      +0       0       0       0       0
  1061 ;;      Totals:         0       0       0       0       0       0       0       0       0       0       0       0       
      +0       0       0       0       0
  1062 ;;Total ram usage:        0 bytes
  1063 ;; Hardware stack levels used: 1
  1064 ;; This function calls:
  1065 ;;		Nothing
  1066 ;; This function is called by:
  1067 ;;		_main
  1068 ;; This function uses a non-reentrant model
  1069 ;;
  1070                           
  1071                           	psect	text2
  1072   002A96                     __ptext2:
  1073                           	callstack 0
  1074   002A96                     _i2c_init:
  1075                           	callstack 30
  1076   002A96                     
  1077                           ;i2c.c: 18:     TRISCbits.TRISC3 = 1;
  1078   002A96  8694               	bsf	148,3,c	;volatile
  1079                           
  1080                           ;i2c.c: 19:     TRISCbits.TRISC4 = 1;
  1081   002A98  8894               	bsf	148,4,c	;volatile
  1082                           
  1083                           ;i2c.c: 20:     ANSELCbits.ANSC3 = 0;
  1084   002A9A  010F               	movlb	15	; () banked
  1085   002A9C  973A               	bcf	58,3,b	;volatile
  1086                           
  1087                           ;i2c.c: 21:     ANSELCbits.ANSC4 = 0;
  1088   002A9E  993A               	bcf	58,4,b	;volatile
  1089   002AA0                     
  1090                           ; BSR set to: 15
  1091                           ;i2c.c: 23:     SSP1CON1 = 0b00101000;
  1092   002AA0  0E28               	movlw	40
  1093   002AA2  6EC6               	movwf	198,c	;volatile
  1094   002AA4                     
  1095                           ; BSR set to: 15
  1096                           ;i2c.c: 24:     __nop();
  1097   002AA4  0000               	nop	
  1098   002AA6                     
  1099                           ;i2c.c: 25:     __nop();
  1100   002AA6  0000               	nop	
  1101   002AA8                     
  1102                           ;i2c.c: 26:     __nop();
  1103   002AA8  0000               	nop	
  1104                           
  1105                           ;i2c.c: 28:     SSP1ADD = 4;
  1106   002AAA  0E04               	movlw	4
  1107   002AAC  6EC8               	movwf	200,c	;volatile
  1108   002AAE                     
  1109                           ;i2c.c: 29:     __nop();
  1110   002AAE  0000               	nop	
  1111   002AB0                     
  1112                           ;i2c.c: 30:     __nop();
  1113   002AB0  0000               	nop	
  1114   002AB2                     
  1115                           ;i2c.c: 31:     __nop();
  1116   002AB2  0000               	nop	
  1117   002AB4                     
  1118                           ;i2c.c: 32:     SSP1STATbits.SMP = 1;
  1119   002AB4  8EC7               	bsf	199,7,c	;volatile
  1120   002AB6                     
  1121                           ;i2c.c: 33:     SSP1STATbits.CKE = 1;
  1122   002AB6  8CC7               	bsf	199,6,c	;volatile
  1123   002AB8                     
  1124                           ;i2c.c: 34:     SSP1CON3bits.SCIE = 0;
  1125   002AB8  9ACB               	bcf	203,5,c	;volatile
  1126   002ABA                     
  1127                           ;i2c.c: 35:     SSP1CON3bits.PCIE = 0;
  1128   002ABA  9CCB               	bcf	203,6,c	;volatile
  1129   002ABC                     
  1130                           ;i2c.c: 38:     PIR1bits.SSP1IF = 0;
  1131   002ABC  969E               	bcf	158,3,c	;volatile
  1132   002ABE                     
  1133                           ;i2c.c: 39:     PIR2bits.BCL1IF = 0;
  1134   002ABE  96A1               	bcf	161,3,c	;volatile
  1135                           
  1136                           ;i2c.c: 40:     SSP1CON1 = 0b00101000;
  1137   002AC0  0E28               	movlw	40
  1138   002AC2  6EC6               	movwf	198,c	;volatile
  1139                           
  1140                           ;i2c.c: 41:     SSP1CON2 = 0;
  1141   002AC4  0E00               	movlw	0
  1142   002AC6  6EC5               	movwf	197,c	;volatile
  1143                           
  1144                           ;i2c.c: 42:     SSP1ADD = (1000000UL / (4 * 100000)) - 1;
  1145   002AC8  0E01               	movlw	1
  1146   002ACA  6EC8               	movwf	200,c	;volatile
  1147                           
  1148                           ;i2c.c: 43:     SSP1STAT = 0;
  1149   002ACC  0E00               	movlw	0
  1150   002ACE  6EC7               	movwf	199,c	;volatile
  1151   002AD0  0012               	return		;funcret
  1152   002AD2                     __end_of_i2c_init:
  1153                           	callstack 0
  1154                           
  1155 ;; *************** function _LCDWriteFloat *****************
  1156 ;; Defined at:
  1157 ;;		line 213 in file "lcd.c"
  1158 ;; Parameters:    Size  Location     Type
  1159 ;;  column          1    wreg     unsigned char 
  1160 ;;  row             1   70[COMRAM] unsigned char 
  1161 ;;  value           4   71[COMRAM] float 
  1162 ;; Auto vars:     Size  Location     Type
  1163 ;;  column          1   75[COMRAM] unsigned char 
  1164 ;;  string          5   76[COMRAM] unsigned char [5]
  1165 ;;  integer         2   81[COMRAM] unsigned int 
  1166 ;; Return value:  Size  Location     Type
  1167 ;;                  1    wreg      void 
  1168 ;; Registers used:
  1169 ;;		wreg, fsr0l, fsr0h, status,2, status,0, tblptrl, tblptrh, tblptru, prodl, prodh, cstack
  1170 ;; Tracked objects:
  1171 ;;		On entry : 0/0
  1172 ;;		On exit  : 0/0
  1173 ;;		Unchanged: 0/0
  1174 ;; Data sizes:     COMRAM   BANK0   BANK1   BANK2   BANK3   BANK4   BANK5   BANK6   BANK7   BANK8   BANK9  BANK10  BANK1
      +1  BANK12  BANK13  BANK14  BANK15
  1175 ;;      Params:         5       0       0       0       0       0       0       0       0       0       0       0       
      +0       0       0       0       0
  1176 ;;      Locals:         8       0       0       0       0       0       0       0       0       0       0       0       
      +0       0       0       0       0
  1177 ;;      Temps:          0       0       0       0       0       0       0       0       0       0       0       0       
      +0       0       0       0       0
  1178 ;;      Totals:        13       0       0       0       0       0       0       0       0       0       0       0       
      +0       0       0       0       0
  1179 ;;Total ram usage:       13 bytes
  1180 ;; Hardware stack levels used: 1
  1181 ;; Hardware stack levels required when called: 4
  1182 ;; This function calls:
  1183 ;;		_LCDGoto
  1184 ;;		_LCDWriteStr
  1185 ;;		___flmul
  1186 ;;		___fltol
  1187 ;;		___lwdiv
  1188 ;;		___lwmod
  1189 ;; This function is called by:
  1190 ;;		_main
  1191 ;; This function uses a non-reentrant model
  1192 ;;
  1193                           
  1194                           	psect	text3
  1195   002612                     __ptext3:
  1196                           	callstack 0
  1197   002612                     _LCDWriteFloat:
  1198                           	callstack 26
  1199                           
  1200                           ;incstack = 0
  1201                           ;LCDWriteFloat@column stored from wreg
  1202   002612  6E4C               	movwf	LCDWriteFloat@column^0,c
  1203   002614                     
  1204                           ;lcd.c: 214:     UINT16_T integer;;lcd.c: 215:     char string[5];;lcd.c: 217:     integ
      +                          er = (UINT16_T)(value * 100) % 1000;
  1205   002614  0E00               	movlw	0
  1206   002616  6E23               	movwf	___flmul@a^0,c
  1207   002618  0E00               	movlw	0
  1208   00261A  6E24               	movwf	(___flmul@a+1)^0,c
  1209   00261C  0EC8               	movlw	200
  1210   00261E  6E25               	movwf	(___flmul@a+2)^0,c
  1211   002620  0E42               	movlw	66
  1212   002622  6E26               	movwf	(___flmul@a+3)^0,c
  1213   002624  C048  F01F         	movff	LCDWriteFloat@value,___flmul@b
  1214   002628  C049  F020         	movff	LCDWriteFloat@value+1,___flmul@b+1
  1215   00262C  C04A  F021         	movff	LCDWriteFloat@value+2,___flmul@b+2
  1216   002630  C04B  F022         	movff	LCDWriteFloat@value+3,___flmul@b+3
  1217   002634  EC6C  F00A         	call	___flmul	;wreg free
  1218   002638  C01F  F038         	movff	?___flmul,___fltol@f1
  1219   00263C  C020  F039         	movff	?___flmul+1,___fltol@f1+1
  1220   002640  C021  F03A         	movff	?___flmul+2,___fltol@f1+2
  1221   002644  C022  F03B         	movff	?___flmul+3,___fltol@f1+3
  1222   002648  ECA6  F011         	call	___fltol	;wreg free
  1223   00264C  C038  F042         	movff	?___fltol,___lwmod@dividend
  1224   002650  C039  F043         	movff	?___fltol+1,___lwmod@dividend+1
  1225   002654  0E03               	movlw	3
  1226   002656  6E45               	movwf	(___lwmod@divisor+1)^0,c
  1227   002658  0EE8               	movlw	232
  1228   00265A  6E44               	movwf	___lwmod@divisor^0,c
  1229   00265C  EC7B  F014         	call	___lwmod	;wreg free
  1230   002660  C042  F052         	movff	?___lwmod,LCDWriteFloat@integer
  1231   002664  C043  F053         	movff	?___lwmod+1,LCDWriteFloat@integer+1
  1232   002668                     
  1233                           ;lcd.c: 218:     string[0] = integer / 100 + '0';
  1234   002668  C052  F001         	movff	LCDWriteFloat@integer,___lwdiv@dividend
  1235   00266C  C053  F002         	movff	LCDWriteFloat@integer+1,___lwdiv@dividend+1
  1236   002670  0E00               	movlw	0
  1237   002672  6E04               	movwf	(___lwdiv@divisor+1)^0,c
  1238   002674  0E64               	movlw	100
  1239   002676  6E03               	movwf	___lwdiv@divisor^0,c
  1240   002678  EC0C  F014         	call	___lwdiv	;wreg free
  1241   00267C  5001               	movf	?___lwdiv^0,w,c
  1242   00267E  0F30               	addlw	48
  1243   002680  6E4D               	movwf	LCDWriteFloat@string^0,c
  1244   002682                     
  1245                           ;lcd.c: 219:     string[1] = '.';
  1246   002682  0E2E               	movlw	46
  1247   002684  6E4E               	movwf	(LCDWriteFloat@string+1)^0,c
  1248   002686                     
  1249                           ;lcd.c: 220:     string[2] = (integer / 10) % 10 + '0';
  1250   002686  0E00               	movlw	0
  1251   002688  6E04               	movwf	(___lwdiv@divisor+1)^0,c
  1252   00268A  0E0A               	movlw	10
  1253   00268C  6E03               	movwf	___lwdiv@divisor^0,c
  1254   00268E  C052  F001         	movff	LCDWriteFloat@integer,___lwdiv@dividend
  1255   002692  C053  F002         	movff	LCDWriteFloat@integer+1,___lwdiv@dividend+1
  1256   002696  EC0C  F014         	call	___lwdiv	;wreg free
  1257   00269A  C001  F042         	movff	?___lwdiv,___lwmod@dividend
  1258   00269E  C002  F043         	movff	?___lwdiv+1,___lwmod@dividend+1
  1259   0026A2  0E00               	movlw	0
  1260   0026A4  6E45               	movwf	(___lwmod@divisor+1)^0,c
  1261   0026A6  0E0A               	movlw	10
  1262   0026A8  6E44               	movwf	___lwmod@divisor^0,c
  1263   0026AA  EC7B  F014         	call	___lwmod	;wreg free
  1264   0026AE  5042               	movf	?___lwmod^0,w,c
  1265   0026B0  0F30               	addlw	48
  1266   0026B2  6E4F               	movwf	(LCDWriteFloat@string+2)^0,c
  1267   0026B4                     
  1268                           ;lcd.c: 221:     string[3] = integer % 10 + '0';
  1269   0026B4  C052  F042         	movff	LCDWriteFloat@integer,___lwmod@dividend
  1270   0026B8  C053  F043         	movff	LCDWriteFloat@integer+1,___lwmod@dividend+1
  1271   0026BC  0E00               	movlw	0
  1272   0026BE  6E45               	movwf	(___lwmod@divisor+1)^0,c
  1273   0026C0  0E0A               	movlw	10
  1274   0026C2  6E44               	movwf	___lwmod@divisor^0,c
  1275   0026C4  EC7B  F014         	call	___lwmod	;wreg free
  1276   0026C8  5042               	movf	?___lwmod^0,w,c
  1277   0026CA  0F30               	addlw	48
  1278   0026CC  6E50               	movwf	(LCDWriteFloat@string+3)^0,c
  1279   0026CE                     
  1280                           ;lcd.c: 222:     string[4] = '\0';
  1281   0026CE  0E00               	movlw	0
  1282   0026D0  6E51               	movwf	(LCDWriteFloat@string+4)^0,c
  1283   0026D2                     
  1284                           ;lcd.c: 224:     LCDGoto(column, row);
  1285   0026D2  C047  F006         	movff	LCDWriteFloat@row,LCDGoto@row
  1286   0026D6  504C               	movf	LCDWriteFloat@column^0,w,c
  1287   0026D8  EC46  F014         	call	_LCDGoto
  1288   0026DC                     
  1289                           ;lcd.c: 225:     LCDWriteStr(string);
  1290   0026DC  0E4D               	movlw	low LCDWriteFloat@string
  1291   0026DE  6E07               	movwf	LCDWriteStr@string^0,c
  1292   0026E0  6A08               	clrf	(LCDWriteStr@string+1)^0,c
  1293   0026E2  ECCE  F013         	call	_LCDWriteStr	;wreg free
  1294   0026E6  0012               	return		;funcret
  1295   0026E8                     __end_of_LCDWriteFloat:
  1296                           	callstack 0
  1297                           
  1298 ;; *************** function ___lwmod *****************
  1299 ;; Defined at:
  1300 ;;		line 7 in file "/opt/microchip/xc8/v2.46/pic/sources/c99/common/lwmod.c"
  1301 ;; Parameters:    Size  Location     Type
  1302 ;;  dividend        2   65[COMRAM] unsigned int 
  1303 ;;  divisor         2   67[COMRAM] unsigned int 
  1304 ;; Auto vars:     Size  Location     Type
  1305 ;;  counter         1   69[COMRAM] unsigned char 
  1306 ;; Return value:  Size  Location     Type
  1307 ;;                  2   65[COMRAM] unsigned int 
  1308 ;; Registers used:
  1309 ;;		wreg, status,2, status,0
  1310 ;; Tracked objects:
  1311 ;;		On entry : 0/0
  1312 ;;		On exit  : 0/0
  1313 ;;		Unchanged: 0/0
  1314 ;; Data sizes:     COMRAM   BANK0   BANK1   BANK2   BANK3   BANK4   BANK5   BANK6   BANK7   BANK8   BANK9  BANK10  BANK1
      +1  BANK12  BANK13  BANK14  BANK15
  1315 ;;      Params:         4       0       0       0       0       0       0       0       0       0       0       0       
      +0       0       0       0       0
  1316 ;;      Locals:         1       0       0       0       0       0       0       0       0       0       0       0       
      +0       0       0       0       0
  1317 ;;      Temps:          0       0       0       0       0       0       0       0       0       0       0       0       
      +0       0       0       0       0
  1318 ;;      Totals:         5       0       0       0       0       0       0       0       0       0       0       0       
      +0       0       0       0       0
  1319 ;;Total ram usage:        5 bytes
  1320 ;; Hardware stack levels used: 1
  1321 ;; This function calls:
  1322 ;;		Nothing
  1323 ;; This function is called by:
  1324 ;;		_LCDWriteFloat
  1325 ;; This function uses a non-reentrant model
  1326 ;;
  1327                           
  1328                           	psect	text4
  1329   0028F6                     __ptext4:
  1330                           	callstack 0
  1331   0028F6                     ___lwmod:
  1332                           	callstack 29
  1333   0028F6  5044               	movf	___lwmod@divisor^0,w,c
  1334   0028F8  1045               	iorwf	(___lwmod@divisor+1)^0,w,c
  1335   0028FA  B4D8               	btfsc	status,2,c
  1336   0028FC  EF82  F014         	goto	u2411
  1337   002900  EF84  F014         	goto	u2410
  1338   002904                     u2411:
  1339   002904  EFA8  F014         	goto	l735
  1340   002908                     u2410:
  1341   002908  0E01               	movlw	1
  1342   00290A  6E46               	movwf	___lwmod@counter^0,c
  1343   00290C  EF8C  F014         	goto	l2685
  1344   002910                     l2683:
  1345   002910  90D8               	bcf	status,0,c
  1346   002912  3644               	rlcf	___lwmod@divisor^0,f,c
  1347   002914  3645               	rlcf	(___lwmod@divisor+1)^0,f,c
  1348   002916  2A46               	incf	___lwmod@counter^0,f,c
  1349   002918                     l2685:
  1350   002918  AE45               	btfss	(___lwmod@divisor+1)^0,7,c
  1351   00291A  EF91  F014         	goto	u2421
  1352   00291E  EF93  F014         	goto	u2420
  1353   002922                     u2421:
  1354   002922  EF88  F014         	goto	l2683
  1355   002926                     u2420:
  1356   002926                     l2687:
  1357   002926  5044               	movf	___lwmod@divisor^0,w,c
  1358   002928  5C42               	subwf	___lwmod@dividend^0,w,c
  1359   00292A  5045               	movf	(___lwmod@divisor+1)^0,w,c
  1360   00292C  5843               	subwfb	(___lwmod@dividend+1)^0,w,c
  1361   00292E  A0D8               	btfss	status,0,c
  1362   002930  EF9C  F014         	goto	u2431
  1363   002934  EF9E  F014         	goto	u2430
  1364   002938                     u2431:
  1365   002938  EFA2  F014         	goto	l2691
  1366   00293C                     u2430:
  1367   00293C  5044               	movf	___lwmod@divisor^0,w,c
  1368   00293E  5E42               	subwf	___lwmod@dividend^0,f,c
  1369   002940  5045               	movf	(___lwmod@divisor+1)^0,w,c
  1370   002942  5A43               	subwfb	(___lwmod@dividend+1)^0,f,c
  1371   002944                     l2691:
  1372   002944  90D8               	bcf	status,0,c
  1373   002946  3245               	rrcf	(___lwmod@divisor+1)^0,f,c
  1374   002948  3244               	rrcf	___lwmod@divisor^0,f,c
  1375   00294A  2E46               	decfsz	___lwmod@counter^0,f,c
  1376   00294C  EF93  F014         	goto	l2687
  1377   002950                     l735:
  1378   002950  C042  F042         	movff	___lwmod@dividend,?___lwmod
  1379   002954  C043  F043         	movff	___lwmod@dividend+1,?___lwmod+1
  1380   002958  0012               	return		;funcret
  1381   00295A                     __end_of___lwmod:
  1382                           	callstack 0
  1383                           
  1384 ;; *************** function ___lwdiv *****************
  1385 ;; Defined at:
  1386 ;;		line 7 in file "/opt/microchip/xc8/v2.46/pic/sources/c99/common/lwdiv.c"
  1387 ;; Parameters:    Size  Location     Type
  1388 ;;  dividend        2    0[COMRAM] unsigned int 
  1389 ;;  divisor         2    2[COMRAM] unsigned int 
  1390 ;; Auto vars:     Size  Location     Type
  1391 ;;  quotient        2    4[COMRAM] unsigned int 
  1392 ;;  counter         1    6[COMRAM] unsigned char 
  1393 ;; Return value:  Size  Location     Type
  1394 ;;                  2    0[COMRAM] unsigned int 
  1395 ;; Registers used:
  1396 ;;		wreg, status,2, status,0
  1397 ;; Tracked objects:
  1398 ;;		On entry : 0/0
  1399 ;;		On exit  : 0/0
  1400 ;;		Unchanged: 0/0
  1401 ;; Data sizes:     COMRAM   BANK0   BANK1   BANK2   BANK3   BANK4   BANK5   BANK6   BANK7   BANK8   BANK9  BANK10  BANK1
      +1  BANK12  BANK13  BANK14  BANK15
  1402 ;;      Params:         4       0       0       0       0       0       0       0       0       0       0       0       
      +0       0       0       0       0
  1403 ;;      Locals:         3       0       0       0       0       0       0       0       0       0       0       0       
      +0       0       0       0       0
  1404 ;;      Temps:          0       0       0       0       0       0       0       0       0       0       0       0       
      +0       0       0       0       0
  1405 ;;      Totals:         7       0       0       0       0       0       0       0       0       0       0       0       
      +0       0       0       0       0
  1406 ;;Total ram usage:        7 bytes
  1407 ;; Hardware stack levels used: 1
  1408 ;; This function calls:
  1409 ;;		Nothing
  1410 ;; This function is called by:
  1411 ;;		_LCDWriteFloat
  1412 ;; This function uses a non-reentrant model
  1413 ;;
  1414                           
  1415                           	psect	text5
  1416   002818                     __ptext5:
  1417                           	callstack 0
  1418   002818                     ___lwdiv:
  1419                           	callstack 29
  1420   002818  0E00               	movlw	0
  1421   00281A  6E06               	movwf	(___lwdiv@quotient+1)^0,c
  1422   00281C  0E00               	movlw	0
  1423   00281E  6E05               	movwf	___lwdiv@quotient^0,c
  1424   002820  5003               	movf	___lwdiv@divisor^0,w,c
  1425   002822  1004               	iorwf	(___lwdiv@divisor+1)^0,w,c
  1426   002824  B4D8               	btfsc	status,2,c
  1427   002826  EF17  F014         	goto	u2381
  1428   00282A  EF19  F014         	goto	u2380
  1429   00282E                     u2381:
  1430   00282E  EF41  F014         	goto	l725
  1431   002832                     u2380:
  1432   002832  0E01               	movlw	1
  1433   002834  6E07               	movwf	___lwdiv@counter^0,c
  1434   002836  EF21  F014         	goto	l2665
  1435   00283A                     l2663:
  1436   00283A  90D8               	bcf	status,0,c
  1437   00283C  3603               	rlcf	___lwdiv@divisor^0,f,c
  1438   00283E  3604               	rlcf	(___lwdiv@divisor+1)^0,f,c
  1439   002840  2A07               	incf	___lwdiv@counter^0,f,c
  1440   002842                     l2665:
  1441   002842  AE04               	btfss	(___lwdiv@divisor+1)^0,7,c
  1442   002844  EF26  F014         	goto	u2391
  1443   002848  EF28  F014         	goto	u2390
  1444   00284C                     u2391:
  1445   00284C  EF1D  F014         	goto	l2663
  1446   002850                     u2390:
  1447   002850                     l2667:
  1448   002850  90D8               	bcf	status,0,c
  1449   002852  3605               	rlcf	___lwdiv@quotient^0,f,c
  1450   002854  3606               	rlcf	(___lwdiv@quotient+1)^0,f,c
  1451   002856  5003               	movf	___lwdiv@divisor^0,w,c
  1452   002858  5C01               	subwf	___lwdiv@dividend^0,w,c
  1453   00285A  5004               	movf	(___lwdiv@divisor+1)^0,w,c
  1454   00285C  5802               	subwfb	(___lwdiv@dividend+1)^0,w,c
  1455   00285E  A0D8               	btfss	status,0,c
  1456   002860  EF34  F014         	goto	u2401
  1457   002864  EF36  F014         	goto	u2400
  1458   002868                     u2401:
  1459   002868  EF3B  F014         	goto	l2675
  1460   00286C                     u2400:
  1461   00286C  5003               	movf	___lwdiv@divisor^0,w,c
  1462   00286E  5E01               	subwf	___lwdiv@dividend^0,f,c
  1463   002870  5004               	movf	(___lwdiv@divisor+1)^0,w,c
  1464   002872  5A02               	subwfb	(___lwdiv@dividend+1)^0,f,c
  1465   002874  8005               	bsf	___lwdiv@quotient^0,0,c
  1466   002876                     l2675:
  1467   002876  90D8               	bcf	status,0,c
  1468   002878  3204               	rrcf	(___lwdiv@divisor+1)^0,f,c
  1469   00287A  3203               	rrcf	___lwdiv@divisor^0,f,c
  1470   00287C  2E07               	decfsz	___lwdiv@counter^0,f,c
  1471   00287E  EF28  F014         	goto	l2667
  1472   002882                     l725:
  1473   002882  C005  F001         	movff	___lwdiv@quotient,?___lwdiv
  1474   002886  C006  F002         	movff	___lwdiv@quotient+1,?___lwdiv+1
  1475   00288A  0012               	return		;funcret
  1476   00288C                     __end_of___lwdiv:
  1477                           	callstack 0
  1478                           
  1479 ;; *************** function _LCDInit *****************
  1480 ;; Defined at:
  1481 ;;		line 90 in file "lcd.c"
  1482 ;; Parameters:    Size  Location     Type
  1483 ;;		None
  1484 ;; Auto vars:     Size  Location     Type
  1485 ;;		None
  1486 ;; Return value:  Size  Location     Type
  1487 ;;                  1    wreg      void 
  1488 ;; Registers used:
  1489 ;;		wreg, status,2, status,0, cstack
  1490 ;; Tracked objects:
  1491 ;;		On entry : 0/0
  1492 ;;		On exit  : 0/0
  1493 ;;		Unchanged: 0/0
  1494 ;; Data sizes:     COMRAM   BANK0   BANK1   BANK2   BANK3   BANK4   BANK5   BANK6   BANK7   BANK8   BANK9  BANK10  BANK1
      +1  BANK12  BANK13  BANK14  BANK15
  1495 ;;      Params:         0       0       0       0       0       0       0       0       0       0       0       0       
      +0       0       0       0       0
  1496 ;;      Locals:         0       0       0       0       0       0       0       0       0       0       0       0       
      +0       0       0       0       0
  1497 ;;      Temps:          1       0       0       0       0       0       0       0       0       0       0       0       
      +0       0       0       0       0
  1498 ;;      Totals:         1       0       0       0       0       0       0       0       0       0       0       0       
      +0       0       0       0       0
  1499 ;;Total ram usage:        1 bytes
  1500 ;; Hardware stack levels used: 1
  1501 ;; Hardware stack levels required when called: 2
  1502 ;; This function calls:
  1503 ;;		_WaitLCD
  1504 ;;		_WriteNibble
  1505 ;; This function is called by:
  1506 ;;		_main
  1507 ;; This function uses a non-reentrant model
  1508 ;;
  1509                           
  1510                           	psect	text6
  1511   002452                     __ptext6:
  1512                           	callstack 0
  1513   002452                     _LCDInit:
  1514                           	callstack 28
  1515   002452                     
  1516                           ;lcd.c: 92:     TRISDbits.TRISD7 = 0;
  1517   002452  9E95               	bcf	149,7,c	;volatile
  1518                           
  1519                           ;lcd.c: 93:     TRISDbits.TRISD6 = 0;
  1520   002454  9C95               	bcf	149,6,c	;volatile
  1521                           
  1522                           ;lcd.c: 94:     TRISDbits.TRISD5 = 0;
  1523   002456  9A95               	bcf	149,5,c	;volatile
  1524                           
  1525                           ;lcd.c: 95:     TRISDbits.TRISD4 = 0;
  1526   002458  9895               	bcf	149,4,c	;volatile
  1527                           
  1528                           ;lcd.c: 96:     TRISDbits.TRISD0 = 0;
  1529   00245A  9095               	bcf	149,0,c	;volatile
  1530                           
  1531                           ;lcd.c: 97:     TRISDbits.TRISD1 = 0;
  1532   00245C  9295               	bcf	149,1,c	;volatile
  1533                           
  1534                           ;lcd.c: 98:     TRISDbits.TRISD2 = 0;
  1535   00245E  9495               	bcf	149,2,c	;volatile
  1536                           
  1537                           ;lcd.c: 99:     TRISDbits.TRISD3 = 0;
  1538   002460  9695               	bcf	149,3,c	;volatile
  1539                           
  1540                           ;lcd.c: 137:     LATDbits.LATD7 = 1;
  1541   002462  8E8C               	bsf	140,7,c	;volatile
  1542   002464                     
  1543                           ;lcd.c: 138:     _delay(30000);
  1544   002464  0E27               	movlw	39
  1545   002466  6E04               	movwf	??_LCDInit^0,c
  1546   002468  0EF5               	movlw	245
  1547   00246A                     u2647:
  1548   00246A  2EE8               	decfsz	wreg,f,c
  1549   00246C  D7FE               	bra	u2647
  1550   00246E  2E04               	decfsz	??_LCDInit^0,f,c
  1551   002470  D7FC               	bra	u2647
  1552   002472  0000               	nop	
  1553   002474                     
  1554                           ;lcd.c: 139:     WriteNibble(1, 0x03);
  1555   002474  0E03               	movlw	3
  1556   002476  6E01               	movwf	WriteNibble@data^0,c
  1557   002478  0E01               	movlw	1
  1558   00247A  EC02  F015         	call	_WriteNibble
  1559   00247E                     
  1560                           ;lcd.c: 140:     _delay(3000);
  1561   00247E  0E04               	movlw	4
  1562   002480  6E04               	movwf	??_LCDInit^0,c
  1563   002482  0EE4               	movlw	228
  1564   002484                     u2657:
  1565   002484  2EE8               	decfsz	wreg,f,c
  1566   002486  D7FE               	bra	u2657
  1567   002488  2E04               	decfsz	??_LCDInit^0,f,c
  1568   00248A  D7FC               	bra	u2657
  1569   00248C  D000               	nop2	
  1570                           
  1571                           ;lcd.c: 141:     WriteNibble(1, 0x03);
  1572   00248E  0E03               	movlw	3
  1573   002490  6E01               	movwf	WriteNibble@data^0,c
  1574   002492  0E01               	movlw	1
  1575   002494  EC02  F015         	call	_WriteNibble
  1576   002498                     
  1577                           ;lcd.c: 142:     _delay(100);
  1578   002498  0E21               	movlw	33
  1579   00249A                     u2667:
  1580   00249A  2EE8               	decfsz	wreg,f,c
  1581   00249C  D7FE               	bra	u2667
  1582   00249E  0000               	nop	
  1583   0024A0                     
  1584                           ;lcd.c: 143:     WriteNibble(1, 0x03);
  1585   0024A0  0E03               	movlw	3
  1586   0024A2  6E01               	movwf	WriteNibble@data^0,c
  1587   0024A4  0E01               	movlw	1
  1588   0024A6  EC02  F015         	call	_WriteNibble
  1589                           
  1590                           ;lcd.c: 144:     _delay(100);
  1591   0024AA  0E21               	movlw	33
  1592   0024AC                     u2677:
  1593   0024AC  2EE8               	decfsz	wreg,f,c
  1594   0024AE  D7FE               	bra	u2677
  1595   0024B0  0000               	nop	
  1596   0024B2                     
  1597                           ;lcd.c: 145:     WriteNibble(1, 0b00000010);
  1598   0024B2  0E02               	movlw	2
  1599   0024B4  6E01               	movwf	WriteNibble@data^0,c
  1600   0024B6  0E01               	movlw	1
  1601   0024B8  EC02  F015         	call	_WriteNibble
  1602   0024BC                     
  1603                           ;lcd.c: 146:     WaitLCD();
  1604   0024BC  ECE1  F015         	call	_WaitLCD	;wreg free
  1605   0024C0                     
  1606                           ;lcd.c: 147:     WriteNibble(1, 0b00000010);
  1607   0024C0  0E02               	movlw	2
  1608   0024C2  6E01               	movwf	WriteNibble@data^0,c
  1609   0024C4  0E01               	movlw	1
  1610   0024C6  EC02  F015         	call	_WriteNibble
  1611   0024CA                     
  1612                           ;lcd.c: 148:     WriteNibble(1, 0b00001000);
  1613   0024CA  0E08               	movlw	8
  1614   0024CC  6E01               	movwf	WriteNibble@data^0,c
  1615   0024CE  0E01               	movlw	1
  1616   0024D0  EC02  F015         	call	_WriteNibble
  1617   0024D4                     
  1618                           ;lcd.c: 149:     WaitLCD();
  1619   0024D4  ECE1  F015         	call	_WaitLCD	;wreg free
  1620   0024D8                     
  1621                           ;lcd.c: 150:     WriteNibble(1, 0b00000000);
  1622   0024D8  0E00               	movlw	0
  1623   0024DA  6E01               	movwf	WriteNibble@data^0,c
  1624   0024DC  0E01               	movlw	1
  1625   0024DE  EC02  F015         	call	_WriteNibble
  1626   0024E2                     
  1627                           ;lcd.c: 151:     WriteNibble(1, 0b00001000);
  1628   0024E2  0E08               	movlw	8
  1629   0024E4  6E01               	movwf	WriteNibble@data^0,c
  1630   0024E6  0E01               	movlw	1
  1631   0024E8  EC02  F015         	call	_WriteNibble
  1632   0024EC                     
  1633                           ;lcd.c: 152:     WaitLCD();
  1634   0024EC  ECE1  F015         	call	_WaitLCD	;wreg free
  1635   0024F0                     
  1636                           ;lcd.c: 153:     WriteNibble(1, 0b00000000);
  1637   0024F0  0E00               	movlw	0
  1638   0024F2  6E01               	movwf	WriteNibble@data^0,c
  1639   0024F4  0E01               	movlw	1
  1640   0024F6  EC02  F015         	call	_WriteNibble
  1641   0024FA                     
  1642                           ;lcd.c: 154:     WriteNibble(1, 0b00001100);
  1643   0024FA  0E0C               	movlw	12
  1644   0024FC  6E01               	movwf	WriteNibble@data^0,c
  1645   0024FE  0E01               	movlw	1
  1646   002500  EC02  F015         	call	_WriteNibble
  1647   002504                     
  1648                           ;lcd.c: 156:     WaitLCD();
  1649   002504  ECE1  F015         	call	_WaitLCD	;wreg free
  1650   002508                     
  1651                           ;lcd.c: 157:     WriteNibble(1, 0b00000000);
  1652   002508  0E00               	movlw	0
  1653   00250A  6E01               	movwf	WriteNibble@data^0,c
  1654   00250C  0E01               	movlw	1
  1655   00250E  EC02  F015         	call	_WriteNibble
  1656   002512                     
  1657                           ;lcd.c: 158:     WriteNibble(1, 0b00000001);
  1658   002512  0E01               	movlw	1
  1659   002514  6E01               	movwf	WriteNibble@data^0,c
  1660   002516  0E01               	movlw	1
  1661   002518  EC02  F015         	call	_WriteNibble
  1662   00251C                     
  1663                           ;lcd.c: 159:     WaitLCD();
  1664   00251C  ECE1  F015         	call	_WaitLCD	;wreg free
  1665   002520                     
  1666                           ;lcd.c: 160:     WriteNibble(1, 0b00000000);
  1667   002520  0E00               	movlw	0
  1668   002522  6E01               	movwf	WriteNibble@data^0,c
  1669   002524  0E01               	movlw	1
  1670   002526  EC02  F015         	call	_WriteNibble
  1671   00252A                     
  1672                           ;lcd.c: 161:     WriteNibble(1, 0b00000110);
  1673   00252A  0E06               	movlw	6
  1674   00252C  6E01               	movwf	WriteNibble@data^0,c
  1675   00252E  0E01               	movlw	1
  1676   002530  EC02  F015         	call	_WriteNibble
  1677   002534                     
  1678                           ;lcd.c: 162:     WaitLCD();
  1679   002534  ECE1  F015         	call	_WaitLCD	;wreg free
  1680   002538  0012               	return		;funcret
  1681   00253A                     __end_of_LCDInit:
  1682                           	callstack 0
  1683                           
  1684 ;; *************** function _LCDClear *****************
  1685 ;; Defined at:
  1686 ;;		line 165 in file "lcd.c"
  1687 ;; Parameters:    Size  Location     Type
  1688 ;;		None
  1689 ;; Auto vars:     Size  Location     Type
  1690 ;;		None
  1691 ;; Return value:  Size  Location     Type
  1692 ;;                  1    wreg      void 
  1693 ;; Registers used:
  1694 ;;		wreg, status,2, status,0, cstack
  1695 ;; Tracked objects:
  1696 ;;		On entry : 0/0
  1697 ;;		On exit  : 0/0
  1698 ;;		Unchanged: 0/0
  1699 ;; Data sizes:     COMRAM   BANK0   BANK1   BANK2   BANK3   BANK4   BANK5   BANK6   BANK7   BANK8   BANK9  BANK10  BANK1
      +1  BANK12  BANK13  BANK14  BANK15
  1700 ;;      Params:         0       0       0       0       0       0       0       0       0       0       0       0       
      +0       0       0       0       0
  1701 ;;      Locals:         0       0       0       0       0       0       0       0       0       0       0       0       
      +0       0       0       0       0
  1702 ;;      Temps:          1       0       0       0       0       0       0       0       0       0       0       0       
      +0       0       0       0       0
  1703 ;;      Totals:         1       0       0       0       0       0       0       0       0       0       0       0       
      +0       0       0       0       0
  1704 ;;Total ram usage:        1 bytes
  1705 ;; Hardware stack levels used: 1
  1706 ;; Hardware stack levels required when called: 2
  1707 ;; This function calls:
  1708 ;;		_WaitLCD
  1709 ;;		_WriteByte
  1710 ;; This function is called by:
  1711 ;;		_main
  1712 ;; This function uses a non-reentrant model
  1713 ;;
  1714                           
  1715                           	psect	text7
  1716   002B82                     __ptext7:
  1717                           	callstack 0
  1718   002B82                     _LCDClear:
  1719                           	callstack 28
  1720   002B82                     
  1721                           ;lcd.c: 167:      WriteByte(1, 0x01);
  1722   002B82  0E01               	movlw	1
  1723   002B84  6E04               	movwf	WriteByte@data^0,c
  1724   002B86  0E01               	movlw	1
  1725   002B88  ECFD  F015         	call	_WriteByte
  1726   002B8C                     
  1727                           ;lcd.c: 168:      _delay(12500);
  1728   002B8C  0E11               	movlw	17
  1729   002B8E  6E06               	movwf	??_LCDClear^0,c
  1730   002B90  0E3A               	movlw	58
  1731   002B92                     u2687:
  1732   002B92  2EE8               	decfsz	wreg,f,c
  1733   002B94  D7FE               	bra	u2687
  1734   002B96  2E06               	decfsz	??_LCDClear^0,f,c
  1735   002B98  D7FC               	bra	u2687
  1736   002B9A  D000               	nop2	
  1737   002B9C                     
  1738                           ;lcd.c: 169:      WaitLCD();
  1739   002B9C  ECE1  F015         	call	_WaitLCD	;wreg free
  1740   002BA0  0012               	return		;funcret
  1741   002BA2                     __end_of_LCDClear:
  1742                           	callstack 0
  1743                           
  1744 ;; *************** function _I2C_Write_Register *****************
  1745 ;; Defined at:
  1746 ;;		line 108 in file "mesure_temp.c"
  1747 ;; Parameters:    Size  Location     Type
  1748 ;;  reg             1    wreg     unsigned char 
  1749 ;;  value           2    2[COMRAM] unsigned int 
  1750 ;;  address         2    4[COMRAM] unsigned int 
  1751 ;; Auto vars:     Size  Location     Type
  1752 ;;  reg             1    6[COMRAM] unsigned char 
  1753 ;; Return value:  Size  Location     Type
  1754 ;;                  1    wreg      void 
  1755 ;; Registers used:
  1756 ;;		wreg, status,2, status,0, cstack
  1757 ;; Tracked objects:
  1758 ;;		On entry : 0/0
  1759 ;;		On exit  : 0/0
  1760 ;;		Unchanged: 0/0
  1761 ;; Data sizes:     COMRAM   BANK0   BANK1   BANK2   BANK3   BANK4   BANK5   BANK6   BANK7   BANK8   BANK9  BANK10  BANK1
      +1  BANK12  BANK13  BANK14  BANK15
  1762 ;;      Params:         4       0       0       0       0       0       0       0       0       0       0       0       
      +0       0       0       0       0
  1763 ;;      Locals:         1       0       0       0       0       0       0       0       0       0       0       0       
      +0       0       0       0       0
  1764 ;;      Temps:          0       0       0       0       0       0       0       0       0       0       0       0       
      +0       0       0       0       0
  1765 ;;      Totals:         5       0       0       0       0       0       0       0       0       0       0       0       
      +0       0       0       0       0
  1766 ;;Total ram usage:        5 bytes
  1767 ;; Hardware stack levels used: 1
  1768 ;; Hardware stack levels required when called: 2
  1769 ;; This function calls:
  1770 ;;		_i2c_start
  1771 ;;		_i2c_stop
  1772 ;;		_i2c_write
  1773 ;; This function is called by:
  1774 ;;		_main
  1775 ;; This function uses a non-reentrant model
  1776 ;;
  1777                           
  1778                           	psect	text8
  1779   002B5C                     __ptext8:
  1780                           	callstack 0
  1781   002B5C                     _I2C_Write_Register:
  1782                           	callstack 28
  1783                           
  1784                           ;incstack = 0
  1785                           ;I2C_Write_Register@reg stored from wreg
  1786   002B5C  6E07               	movwf	I2C_Write_Register@reg^0,c
  1787   002B5E                     
  1788                           ;mesure_temp.c: 109:     msb = i2c_read();
  1789   002B5E  EC38  F016         	call	_i2c_start	;wreg free
  1790   002B62                     
  1791                           ;mesure_temp.c: 110:     i2c_ACK();
  1792   002B62  5005               	movf	I2C_Write_Register@address^0,w,c
  1793   002B64  2405               	addwf	I2C_Write_Register@address^0,w,c
  1794   002B66  ECEF  F015         	call	_i2c_write
  1795   002B6A                     
  1796                           ;mesure_temp.c: 111:     lsb = i2c_read();
  1797   002B6A  5007               	movf	I2C_Write_Register@reg^0,w,c
  1798   002B6C  ECEF  F015         	call	_i2c_write
  1799   002B70                     
  1800                           ;mesure_temp.c: 112:     i2c_ACK();
  1801   002B70  5004               	movf	(I2C_Write_Register@value+1)^0,w,c
  1802   002B72  ECEF  F015         	call	_i2c_write
  1803   002B76                     
  1804                           ;mesure_temp.c: 113:     xlsb = i2c_read();
  1805   002B76  5003               	movf	I2C_Write_Register@value^0,w,c
  1806   002B78  ECEF  F015         	call	_i2c_write
  1807   002B7C                     
  1808                           ;mesure_temp.c: 114:     i2c_NAK();
  1809   002B7C  EC16  F016         	call	_i2c_stop	;wreg free
  1810   002B80  0012               	return		;funcret
  1811   002B82                     __end_of_I2C_Write_Register:
  1812                           	callstack 0
  1813                           
  1814 ;; *************** function _BME280_Read_Temperature *****************
  1815 ;; Defined at:
  1816 ;;		line 181 in file "mesure_temp.c"
  1817 ;; Parameters:    Size  Location     Type
  1818 ;;		None
  1819 ;; Auto vars:     Size  Location     Type
  1820 ;;  adc_T           4   31[COMRAM] long 
  1821 ;;  xlsb            1   37[COMRAM] unsigned char 
  1822 ;;  lsb             1   36[COMRAM] unsigned char 
  1823 ;;  msb             1   35[COMRAM] unsigned char 
  1824 ;; Return value:  Size  Location     Type
  1825 ;;                  4   20[COMRAM] long 
  1826 ;; Registers used:
  1827 ;;		wreg, fsr0l, fsr0h, status,2, status,0, tblptrl, tblptrh, tblptru, cstack
  1828 ;; Tracked objects:
  1829 ;;		On entry : 0/0
  1830 ;;		On exit  : 0/0
  1831 ;;		Unchanged: 0/0
  1832 ;; Data sizes:     COMRAM   BANK0   BANK1   BANK2   BANK3   BANK4   BANK5   BANK6   BANK7   BANK8   BANK9  BANK10  BANK1
      +1  BANK12  BANK13  BANK14  BANK15
  1833 ;;      Params:         4       0       0       0       0       0       0       0       0       0       0       0       
      +0       0       0       0       0
  1834 ;;      Locals:         7       0       0       0       0       0       0       0       0       0       0       0       
      +0       0       0       0       0
  1835 ;;      Temps:          7       0       0       0       0       0       0       0       0       0       0       0       
      +0       0       0       0       0
  1836 ;;      Totals:        18       0       0       0       0       0       0       0       0       0       0       0       
      +0       0       0       0       0
  1837 ;;Total ram usage:       18 bytes
  1838 ;; Hardware stack levels used: 1
  1839 ;; Hardware stack levels required when called: 5
  1840 ;; This function calls:
  1841 ;;		_LCDWriteHexa
  1842 ;;		_i2c_ACK
  1843 ;;		_i2c_NAK
  1844 ;;		_i2c_read
  1845 ;;		_i2c_start
  1846 ;;		_i2c_stop
  1847 ;;		_i2c_write
  1848 ;; This function is called by:
  1849 ;;		_main
  1850 ;; This function uses a non-reentrant model
  1851 ;;
  1852                           
  1853                           	psect	text9
  1854   00253A                     __ptext9:
  1855                           	callstack 0
  1856   00253A                     _BME280_Read_Temperature:
  1857                           	callstack 25
  1858   00253A  EC38  F016         	call	_i2c_start	;wreg free
  1859   00253E  0EEC               	movlw	236
  1860   002540  ECEF  F015         	call	_i2c_write
  1861   002544  0EFA               	movlw	250
  1862   002546  ECEF  F015         	call	_i2c_write
  1863   00254A  EC16  F016         	call	_i2c_stop	;wreg free
  1864   00254E  EC38  F016         	call	_i2c_start	;wreg free
  1865   002552  0EED               	movlw	237
  1866   002554  ECEF  F015         	call	_i2c_write
  1867   002558  ECD1  F015         	call	_i2c_read	;wreg free
  1868   00255C  6E24               	movwf	BME280_Read_Temperature@msb^0,c
  1869   00255E  EC2D  F016         	call	_i2c_ACK	;wreg free
  1870   002562  ECD1  F015         	call	_i2c_read	;wreg free
  1871   002566  6E25               	movwf	BME280_Read_Temperature@lsb^0,c
  1872   002568  EC2D  F016         	call	_i2c_ACK	;wreg free
  1873   00256C  ECD1  F015         	call	_i2c_read	;wreg free
  1874   002570  6E26               	movwf	BME280_Read_Temperature@xlsb^0,c
  1875   002572  EC22  F016         	call	_i2c_NAK	;wreg free
  1876   002576  EC16  F016         	call	_i2c_stop	;wreg free
  1877   00257A  0E01               	movlw	1
  1878   00257C  6E0C               	movwf	LCDWriteHexa@row^0,c
  1879   00257E  C024  F00D         	movff	BME280_Read_Temperature@msb,LCDWriteHexa@value
  1880   002582  0E0A               	movlw	10
  1881   002584  ECAD  F014         	call	_LCDWriteHexa
  1882   002588  0E01               	movlw	1
  1883   00258A  6E0C               	movwf	LCDWriteHexa@row^0,c
  1884   00258C  C025  F00D         	movff	BME280_Read_Temperature@lsb,LCDWriteHexa@value
  1885   002590  0E0C               	movlw	12
  1886   002592  ECAD  F014         	call	_LCDWriteHexa
  1887   002596  0E01               	movlw	1
  1888   002598  6E0C               	movwf	LCDWriteHexa@row^0,c
  1889   00259A  C026  F00D         	movff	BME280_Read_Temperature@xlsb,LCDWriteHexa@value
  1890   00259E  0E0E               	movlw	14
  1891   0025A0  ECAD  F014         	call	_LCDWriteHexa
  1892   0025A4  5025               	movf	BME280_Read_Temperature@lsb^0,w,c
  1893   0025A6  6E19               	movwf	??_BME280_Read_Temperature^0,c
  1894   0025A8  6A1A               	clrf	(??_BME280_Read_Temperature+1)^0,c
  1895   0025AA  3A19               	swapf	??_BME280_Read_Temperature^0,f,c
  1896   0025AC  3A1A               	swapf	(??_BME280_Read_Temperature+1)^0,f,c
  1897   0025AE  0EF0               	movlw	240
  1898   0025B0  161A               	andwf	(??_BME280_Read_Temperature+1)^0,f,c
  1899   0025B2  5019               	movf	??_BME280_Read_Temperature^0,w,c
  1900   0025B4  0B0F               	andlw	15
  1901   0025B6  121A               	iorwf	(??_BME280_Read_Temperature+1)^0,f,c
  1902   0025B8  0EF0               	movlw	240
  1903   0025BA  1619               	andwf	??_BME280_Read_Temperature^0,f,c
  1904   0025BC  5024               	movf	BME280_Read_Temperature@msb^0,w,c
  1905   0025BE  6E1B               	movwf	(??_BME280_Read_Temperature+2)^0,c
  1906   0025C0  6A1C               	clrf	(??_BME280_Read_Temperature+3)^0,c
  1907   0025C2  0E0C               	movlw	12
  1908   0025C4                     u2565:
  1909   0025C4  90D8               	bcf	status,0,c
  1910   0025C6  361B               	rlcf	(??_BME280_Read_Temperature+2)^0,f,c
  1911   0025C8  361C               	rlcf	(??_BME280_Read_Temperature+3)^0,f,c
  1912   0025CA  2EE8               	decfsz	wreg,f,c
  1913   0025CC  EFE2  F012         	goto	u2565
  1914   0025D0  5019               	movf	??_BME280_Read_Temperature^0,w,c
  1915   0025D2  101B               	iorwf	(??_BME280_Read_Temperature+2)^0,w,c
  1916   0025D4  6E1D               	movwf	(??_BME280_Read_Temperature+4)^0,c
  1917   0025D6  501A               	movf	(??_BME280_Read_Temperature+1)^0,w,c
  1918   0025D8  101C               	iorwf	(??_BME280_Read_Temperature+3)^0,w,c
  1919   0025DA  6E1E               	movwf	(??_BME280_Read_Temperature+5)^0,c
  1920   0025DC  C026  F01F         	movff	BME280_Read_Temperature@xlsb,??_BME280_Read_Temperature+6
  1921   0025E0  3A1F               	swapf	(??_BME280_Read_Temperature+6)^0,f,c
  1922   0025E2  0E0F               	movlw	15
  1923   0025E4  161F               	andwf	(??_BME280_Read_Temperature+6)^0,f,c
  1924   0025E6  501F               	movf	(??_BME280_Read_Temperature+6)^0,w,c
  1925   0025E8  121D               	iorwf	(??_BME280_Read_Temperature+4)^0,f,c
  1926   0025EA  0E00               	movlw	0
  1927   0025EC  121E               	iorwf	(??_BME280_Read_Temperature+5)^0,f,c
  1928   0025EE  C01D  F020         	movff	??_BME280_Read_Temperature+4,BME280_Read_Temperature@adc_T
  1929   0025F2  C01E  F021         	movff	??_BME280_Read_Temperature+5,BME280_Read_Temperature@adc_T+1
  1930   0025F6  0E00               	movlw	0
  1931   0025F8  BE21               	btfsc	(BME280_Read_Temperature@adc_T+1)^0,7,c
  1932   0025FA  0EFF               	movlw	-1
  1933   0025FC  6E22               	movwf	(BME280_Read_Temperature@adc_T+2)^0,c
  1934   0025FE  6E23               	movwf	(BME280_Read_Temperature@adc_T+3)^0,c
  1935   002600  C020  F015         	movff	BME280_Read_Temperature@adc_T,?_BME280_Read_Temperature
  1936   002604  C021  F016         	movff	BME280_Read_Temperature@adc_T+1,?_BME280_Read_Temperature+1
  1937   002608  C022  F017         	movff	BME280_Read_Temperature@adc_T+2,?_BME280_Read_Temperature+2
  1938   00260C  C023  F018         	movff	BME280_Read_Temperature@adc_T+3,?_BME280_Read_Temperature+3
  1939   002610  0012               	return		;funcret
  1940   002612                     __end_of_BME280_Read_Temperature:
  1941                           	callstack 0
  1942                           
  1943 ;; *************** function _LCDWriteHexa *****************
  1944 ;; Defined at:
  1945 ;;		line 201 in file "lcd.c"
  1946 ;; Parameters:    Size  Location     Type
  1947 ;;  column          1    wreg     unsigned char 
  1948 ;;  row             1   11[COMRAM] unsigned char 
  1949 ;;  value           1   12[COMRAM] unsigned char 
  1950 ;; Auto vars:     Size  Location     Type
  1951 ;;  column          1   15[COMRAM] unsigned char 
  1952 ;;  string          3   16[COMRAM] unsigned char [3]
  1953 ;;  hexa            1   19[COMRAM] PTR unsigned char 
  1954 ;;		 -> STR_1(17), 
  1955 ;; Return value:  Size  Location     Type
  1956 ;;                  1    wreg      void 
  1957 ;; Registers used:
  1958 ;;		wreg, fsr0l, fsr0h, status,2, status,0, tblptrl, tblptrh, tblptru, cstack
  1959 ;; Tracked objects:
  1960 ;;		On entry : 0/0
  1961 ;;		On exit  : 0/0
  1962 ;;		Unchanged: 0/0
  1963 ;; Data sizes:     COMRAM   BANK0   BANK1   BANK2   BANK3   BANK4   BANK5   BANK6   BANK7   BANK8   BANK9  BANK10  BANK1
      +1  BANK12  BANK13  BANK14  BANK15
  1964 ;;      Params:         2       0       0       0       0       0       0       0       0       0       0       0       
      +0       0       0       0       0
  1965 ;;      Locals:         5       0       0       0       0       0       0       0       0       0       0       0       
      +0       0       0       0       0
  1966 ;;      Temps:          2       0       0       0       0       0       0       0       0       0       0       0       
      +0       0       0       0       0
  1967 ;;      Totals:         9       0       0       0       0       0       0       0       0       0       0       0       
      +0       0       0       0       0
  1968 ;;Total ram usage:        9 bytes
  1969 ;; Hardware stack levels used: 1
  1970 ;; Hardware stack levels required when called: 4
  1971 ;; This function calls:
  1972 ;;		_LCDGoto
  1973 ;;		_LCDWriteStr
  1974 ;; This function is called by:
  1975 ;;		_BME280_Read_Temperature
  1976 ;;		_main
  1977 ;;		_I2C_Scan
  1978 ;; This function uses a non-reentrant model
  1979 ;;
  1980                           
  1981                           	psect	text10
  1982   00295A                     __ptext10:
  1983                           	callstack 0
  1984   00295A                     _LCDWriteHexa:
  1985                           	callstack 26
  1986                           
  1987                           ;incstack = 0
  1988                           ;LCDWriteHexa@column stored from wreg
  1989   00295A  6E10               	movwf	LCDWriteHexa@column^0,c
  1990   00295C                     
  1991                           ;lcd.c: 202:     char *hexa = "0123456789ABCDEF";
  1992   00295C  0E01               	movlw	low STR_1
  1993   00295E  6E14               	movwf	LCDWriteHexa@hexa^0,c
  1994   002960                     
  1995                           ;lcd.c: 203:     char string [3];;lcd.c: 205:     string[0] = hexa[value >> 4];
  1996   002960  C00D  F00E         	movff	LCDWriteHexa@value,??_LCDWriteHexa
  1997   002964  3A0E               	swapf	??_LCDWriteHexa^0,f,c
  1998   002966  0E0F               	movlw	15
  1999   002968  160E               	andwf	??_LCDWriteHexa^0,f,c
  2000   00296A  5014               	movf	LCDWriteHexa@hexa^0,w,c
  2001   00296C  240E               	addwf	??_LCDWriteHexa^0,w,c
  2002   00296E  6E0F               	movwf	(??_LCDWriteHexa+1)^0,c
  2003   002970  C00F  FFF6         	movff	??_LCDWriteHexa+1,tblptrl
  2004   002974                     	if	1	;There is more than 1 active tblptr byte
  2005   002974  0E10               	movlw	high __smallconst
  2006   002976  6EF7               	movwf	tblptrh,c
  2007   002978                     	endif
  2008   002978                     	if	0	;tblptru may be non-zero
  2009   002978                     	endif
  2010   002978                     	if	0	;tblptru may be non-zero
  2011   002978                     	endif
  2012   002978  0008               	tblrd		*
  2013   00297A  CFF5 F011          	movff	tablat,LCDWriteHexa@string
  2014   00297E                     
  2015                           ;lcd.c: 206:     string[1] = hexa[value & 0x0F];
  2016   00297E  C00D  F00E         	movff	LCDWriteHexa@value,??_LCDWriteHexa
  2017   002982  0E0F               	movlw	15
  2018   002984  160E               	andwf	??_LCDWriteHexa^0,f,c
  2019   002986  5014               	movf	LCDWriteHexa@hexa^0,w,c
  2020   002988  240E               	addwf	??_LCDWriteHexa^0,w,c
  2021   00298A  6E0F               	movwf	(??_LCDWriteHexa+1)^0,c
  2022   00298C  C00F  FFF6         	movff	??_LCDWriteHexa+1,tblptrl
  2023   002990                     	if	1	;There is more than 1 active tblptr byte
  2024   002990  0E10               	movlw	high __smallconst
  2025   002992  6EF7               	movwf	tblptrh,c
  2026   002994                     	endif
  2027   002994                     	if	0	;tblptru may be non-zero
  2028   002994                     	endif
  2029   002994                     	if	0	;tblptru may be non-zero
  2030   002994                     	endif
  2031   002994  0008               	tblrd		*
  2032   002996  CFF5 F012          	movff	tablat,LCDWriteHexa@string+1
  2033   00299A                     
  2034                           ;lcd.c: 207:     string[2] = '\0';
  2035   00299A  0E00               	movlw	0
  2036   00299C  6E13               	movwf	(LCDWriteHexa@string+2)^0,c
  2037   00299E                     
  2038                           ;lcd.c: 209:     LCDGoto(column, row);
  2039   00299E  C00C  F006         	movff	LCDWriteHexa@row,LCDGoto@row
  2040   0029A2  5010               	movf	LCDWriteHexa@column^0,w,c
  2041   0029A4  EC46  F014         	call	_LCDGoto
  2042   0029A8                     
  2043                           ;lcd.c: 210:     LCDWriteStr(string);
  2044   0029A8  0E11               	movlw	low LCDWriteHexa@string
  2045   0029AA  6E07               	movwf	LCDWriteStr@string^0,c
  2046   0029AC  6A08               	clrf	(LCDWriteStr@string+1)^0,c
  2047   0029AE  ECCE  F013         	call	_LCDWriteStr	;wreg free
  2048   0029B2  0012               	return		;funcret
  2049   0029B4                     __end_of_LCDWriteHexa:
  2050                           	callstack 0
  2051                           
  2052 ;; *************** function _LCDWriteStr *****************
  2053 ;; Defined at:
  2054 ;;		line 193 in file "lcd.c"
  2055 ;; Parameters:    Size  Location     Type
  2056 ;;  string          2    6[COMRAM] PTR const unsigned char 
  2057 ;;		 -> STR_3(2), STR_2(2), LCDWriteInt@string(3), LCDWriteFloat@string(5), 
  2058 ;;		 -> LCDWriteHexa@string(3), 
  2059 ;; Auto vars:     Size  Location     Type
  2060 ;;  i               1   10[COMRAM] unsigned char 
  2061 ;; Return value:  Size  Location     Type
  2062 ;;                  1    wreg      void 
  2063 ;; Registers used:
  2064 ;;		wreg, fsr0l, fsr0h, status,2, status,0, tblptrl, tblptrh, tblptru, cstack
  2065 ;; Tracked objects:
  2066 ;;		On entry : 0/0
  2067 ;;		On exit  : 0/0
  2068 ;;		Unchanged: 0/0
  2069 ;; Data sizes:     COMRAM   BANK0   BANK1   BANK2   BANK3   BANK4   BANK5   BANK6   BANK7   BANK8   BANK9  BANK10  BANK1
      +1  BANK12  BANK13  BANK14  BANK15
  2070 ;;      Params:         2       0       0       0       0       0       0       0       0       0       0       0       
      +0       0       0       0       0
  2071 ;;      Locals:         1       0       0       0       0       0       0       0       0       0       0       0       
      +0       0       0       0       0
  2072 ;;      Temps:          2       0       0       0       0       0       0       0       0       0       0       0       
      +0       0       0       0       0
  2073 ;;      Totals:         5       0       0       0       0       0       0       0       0       0       0       0       
      +0       0       0       0       0
  2074 ;;Total ram usage:        5 bytes
  2075 ;; Hardware stack levels used: 1
  2076 ;; Hardware stack levels required when called: 3
  2077 ;; This function calls:
  2078 ;;		_LCDPutChar
  2079 ;; This function is called by:
  2080 ;;		_LCDWriteHexa
  2081 ;;		_LCDWriteFloat
  2082 ;;		_main
  2083 ;;		_LCDWriteInt
  2084 ;; This function uses a non-reentrant model
  2085 ;;
  2086                           
  2087                           	psect	text11
  2088   00279C                     __ptext11:
  2089                           	callstack 0
  2090   00279C                     _LCDWriteStr:
  2091                           	callstack 27
  2092   00279C                     
  2093                           ;lcd.c: 193: void LCDWriteStr(const char *string);lcd.c: 194: {;lcd.c: 195:   UINT8_T i 
      +                          = 0;
  2094   00279C  0E00               	movlw	0
  2095   00279E  6E0B               	movwf	LCDWriteStr@i^0,c
  2096                           
  2097                           ;lcd.c: 197:   while (string[i])
  2098   0027A0  EFEC  F013         	goto	l2093
  2099   0027A4                     l2089:
  2100                           
  2101                           ;lcd.c: 198:     LCDPutChar(string[i++]);
  2102   0027A4  500B               	movf	LCDWriteStr@i^0,w,c
  2103   0027A6  2407               	addwf	LCDWriteStr@string^0,w,c
  2104   0027A8  6E09               	movwf	??_LCDWriteStr^0,c
  2105   0027AA  0E00               	movlw	0
  2106   0027AC  2008               	addwfc	(LCDWriteStr@string+1)^0,w,c
  2107   0027AE  6E0A               	movwf	(??_LCDWriteStr+1)^0,c
  2108   0027B0  C009  FFF6         	movff	??_LCDWriteStr,tblptrl
  2109   0027B4  C00A  FFF7         	movff	??_LCDWriteStr+1,tblptrh
  2110   0027B8  0E00               	movlw	low (__smallconst shr (0+16))
  2111   0027BA  6EF8               	movwf	tblptru,c
  2112   0027BC  0E0F               	movlw	(high __ramtop+-1)
  2113   0027BE  64F7               	cpfsgt	tblptrh,c
  2114   0027C0  D003               	bra	u1417
  2115   0027C2  0008               	tblrd		*
  2116   0027C4  50F5               	movf	tablat,w,c
  2117   0027C6  D005               	bra	u1410
  2118   0027C8                     u1417:
  2119   0027C8  CFF6 FFE9          	movff	tblptrl,fsr0l
  2120   0027CC  CFF7 FFEA          	movff	tblptrh,fsr0h
  2121   0027D0  50EF               	movf	indf0,w,c
  2122   0027D2                     u1410:
  2123   0027D2  EC42  F016         	call	_LCDPutChar
  2124   0027D6  2A0B               	incf	LCDWriteStr@i^0,f,c
  2125   0027D8                     l2093:
  2126                           
  2127                           ;lcd.c: 197:   while (string[i])
  2128   0027D8  500B               	movf	LCDWriteStr@i^0,w,c
  2129   0027DA  2407               	addwf	LCDWriteStr@string^0,w,c
  2130   0027DC  6E09               	movwf	??_LCDWriteStr^0,c
  2131   0027DE  0E00               	movlw	0
  2132   0027E0  2008               	addwfc	(LCDWriteStr@string+1)^0,w,c
  2133   0027E2  6E0A               	movwf	(??_LCDWriteStr+1)^0,c
  2134   0027E4  C009  FFF6         	movff	??_LCDWriteStr,tblptrl
  2135   0027E8  C00A  FFF7         	movff	??_LCDWriteStr+1,tblptrh
  2136   0027EC  0E00               	movlw	low (__smallconst shr (0+16))
  2137   0027EE  6EF8               	movwf	tblptru,c
  2138   0027F0  0E0F               	movlw	(high __ramtop+-1)
  2139   0027F2  64F7               	cpfsgt	tblptrh,c
  2140   0027F4  D003               	bra	u1427
  2141   0027F6  0008               	tblrd		*
  2142   0027F8  50F5               	movf	tablat,w,c
  2143   0027FA  D005               	bra	u1420
  2144   0027FC                     u1427:
  2145   0027FC  CFF6 FFE9          	movff	tblptrl,fsr0l
  2146   002800  CFF7 FFEA          	movff	tblptrh,fsr0h
  2147   002804  50EF               	movf	indf0,w,c
  2148   002806                     u1420:
  2149   002806  0900               	iorlw	0
  2150   002808  A4D8               	btfss	status,2,c
  2151   00280A  EF09  F014         	goto	u1431
  2152   00280E  EF0B  F014         	goto	u1430
  2153   002812                     u1431:
  2154   002812  EFD2  F013         	goto	l2089
  2155   002816                     u1430:
  2156   002816  0012               	return		;funcret
  2157   002818                     __end_of_LCDWriteStr:
  2158                           	callstack 0
  2159                           
  2160 ;; *************** function _LCDPutChar *****************
  2161 ;; Defined at:
  2162 ;;		line 181 in file "lcd.c"
  2163 ;; Parameters:    Size  Location     Type
  2164 ;;  data            1    wreg     unsigned char 
  2165 ;; Auto vars:     Size  Location     Type
  2166 ;;  data            1    5[COMRAM] unsigned char 
  2167 ;; Return value:  Size  Location     Type
  2168 ;;                  1    wreg      void 
  2169 ;; Registers used:
  2170 ;;		wreg, status,2, status,0, cstack
  2171 ;; Tracked objects:
  2172 ;;		On entry : 0/0
  2173 ;;		On exit  : 0/0
  2174 ;;		Unchanged: 0/0
  2175 ;; Data sizes:     COMRAM   BANK0   BANK1   BANK2   BANK3   BANK4   BANK5   BANK6   BANK7   BANK8   BANK9  BANK10  BANK1
      +1  BANK12  BANK13  BANK14  BANK15
  2176 ;;      Params:         0       0       0       0       0       0       0       0       0       0       0       0       
      +0       0       0       0       0
  2177 ;;      Locals:         1       0       0       0       0       0       0       0       0       0       0       0       
      +0       0       0       0       0
  2178 ;;      Temps:          0       0       0       0       0       0       0       0       0       0       0       0       
      +0       0       0       0       0
  2179 ;;      Totals:         1       0       0       0       0       0       0       0       0       0       0       0       
      +0       0       0       0       0
  2180 ;;Total ram usage:        1 bytes
  2181 ;; Hardware stack levels used: 1
  2182 ;; Hardware stack levels required when called: 2
  2183 ;; This function calls:
  2184 ;;		_WaitLCD
  2185 ;;		_WriteByte
  2186 ;; This function is called by:
  2187 ;;		_LCDWriteStr
  2188 ;;		_LCDPutByte
  2189 ;; This function uses a non-reentrant model
  2190 ;;
  2191                           
  2192                           	psect	text12
  2193   002C84                     __ptext12:
  2194                           	callstack 0
  2195   002C84                     _LCDPutChar:
  2196                           	callstack 27
  2197                           
  2198                           ;incstack = 0
  2199                           ;LCDPutChar@data stored from wreg
  2200   002C84  6E06               	movwf	LCDPutChar@data^0,c
  2201   002C86                     
  2202                           ;lcd.c: 181: void LCDPutChar(UINT8_T data);lcd.c: 182: {;lcd.c: 183:     WriteByte(0, da
      +                          ta);
  2203   002C86  C006  F004         	movff	LCDPutChar@data,WriteByte@data
  2204   002C8A  0E00               	movlw	0
  2205   002C8C  ECFD  F015         	call	_WriteByte
  2206                           
  2207                           ;lcd.c: 184:     WaitLCD();
  2208   002C90  ECE1  F015         	call	_WaitLCD	;wreg free
  2209   002C94  0012               	return		;funcret
  2210   002C96                     __end_of_LCDPutChar:
  2211                           	callstack 0
  2212                           
  2213 ;; *************** function _LCDGoto *****************
  2214 ;; Defined at:
  2215 ;;		line 172 in file "lcd.c"
  2216 ;; Parameters:    Size  Location     Type
  2217 ;;  column          1    wreg     unsigned char 
  2218 ;;  row             1    5[COMRAM] unsigned char 
  2219 ;; Auto vars:     Size  Location     Type
  2220 ;;  column          1   10[COMRAM] unsigned char 
  2221 ;; Return value:  Size  Location     Type
  2222 ;;                  1    wreg      void 
  2223 ;; Registers used:
  2224 ;;		wreg, status,2, status,0, cstack
  2225 ;; Tracked objects:
  2226 ;;		On entry : 0/0
  2227 ;;		On exit  : 0/0
  2228 ;;		Unchanged: 0/0
  2229 ;; Data sizes:     COMRAM   BANK0   BANK1   BANK2   BANK3   BANK4   BANK5   BANK6   BANK7   BANK8   BANK9  BANK10  BANK1
      +1  BANK12  BANK13  BANK14  BANK15
  2230 ;;      Params:         1       0       0       0       0       0       0       0       0       0       0       0       
      +0       0       0       0       0
  2231 ;;      Locals:         3       0       0       0       0       0       0       0       0       0       0       0       
      +0       0       0       0       0
  2232 ;;      Temps:          2       0       0       0       0       0       0       0       0       0       0       0       
      +0       0       0       0       0
  2233 ;;      Totals:         6       0       0       0       0       0       0       0       0       0       0       0       
      +0       0       0       0       0
  2234 ;;Total ram usage:        6 bytes
  2235 ;; Hardware stack levels used: 1
  2236 ;; Hardware stack levels required when called: 2
  2237 ;; This function calls:
  2238 ;;		_WaitLCD
  2239 ;;		_WriteByte
  2240 ;; This function is called by:
  2241 ;;		_LCDWriteHexa
  2242 ;;		_LCDWriteFloat
  2243 ;;		_main
  2244 ;;		_LCDWriteInt
  2245 ;; This function uses a non-reentrant model
  2246 ;;
  2247                           
  2248                           	psect	text13
  2249   00288C                     __ptext13:
  2250                           	callstack 0
  2251   00288C                     _LCDGoto:
  2252                           	callstack 27
  2253                           
  2254                           ;incstack = 0
  2255                           ;LCDGoto@column stored from wreg
  2256   00288C  6E0B               	movwf	LCDGoto@column^0,c
  2257   00288E                     
  2258                           ;lcd.c: 172: void LCDGoto(UINT8_T column, UINT8_T row);lcd.c: 173: {;lcd.c: 174:     if 
      +                          ((row > (2 - 1)) || (column > (16 - 1)))
  2259   00288E  0E02               	movlw	2
  2260   002890  6006               	cpfslt	LCDGoto@row^0,c
  2261   002892  EF4D  F014         	goto	u1381
  2262   002896  EF4F  F014         	goto	u1380
  2263   00289A                     u1381:
  2264   00289A  EF7A  F014         	goto	l115
  2265   00289E                     u1380:
  2266   00289E  0E0F               	movlw	15
  2267   0028A0  640B               	cpfsgt	LCDGoto@column^0,c
  2268   0028A2  EF55  F014         	goto	u1391
  2269   0028A6  EF57  F014         	goto	u1390
  2270   0028AA                     u1391:
  2271   0028AA  EF59  F014         	goto	l2077
  2272   0028AE                     u1390:
  2273   0028AE  EF7A  F014         	goto	l115
  2274   0028B2                     l2077:
  2275                           
  2276                           ;lcd.c: 177:     WriteByte(1, (row == 1) ? (0xC0 | column) : (0x80 | column));
  2277   0028B2  0406               	decf	LCDGoto@row^0,w,c
  2278   0028B4  B4D8               	btfsc	status,2,c
  2279   0028B6  EF5F  F014         	goto	u1401
  2280   0028BA  EF61  F014         	goto	u1400
  2281   0028BE                     u1401:
  2282   0028BE  EF6B  F014         	goto	l2081
  2283   0028C2                     u1400:
  2284   0028C2  0E80               	movlw	128
  2285   0028C4  C00B  F007         	movff	LCDGoto@column,??_LCDGoto
  2286   0028C8  6A08               	clrf	(??_LCDGoto+1)^0,c
  2287   0028CA  1007               	iorwf	??_LCDGoto^0,w,c
  2288   0028CC  6E09               	movwf	_LCDGoto$623^0,c
  2289   0028CE  5008               	movf	(??_LCDGoto+1)^0,w,c
  2290   0028D0  6E0A               	movwf	(_LCDGoto$623+1)^0,c
  2291   0028D2  EF73  F014         	goto	l2083
  2292   0028D6                     l2081:
  2293   0028D6  0EC0               	movlw	192
  2294   0028D8  C00B  F007         	movff	LCDGoto@column,??_LCDGoto
  2295   0028DC  6A08               	clrf	(??_LCDGoto+1)^0,c
  2296   0028DE  1007               	iorwf	??_LCDGoto^0,w,c
  2297   0028E0  6E09               	movwf	_LCDGoto$623^0,c
  2298   0028E2  5008               	movf	(??_LCDGoto+1)^0,w,c
  2299   0028E4  6E0A               	movwf	(_LCDGoto$623+1)^0,c
  2300   0028E6                     l2083:
  2301   0028E6  C009  F004         	movff	_LCDGoto$623,WriteByte@data
  2302   0028EA  0E01               	movlw	1
  2303   0028EC  ECFD  F015         	call	_WriteByte
  2304   0028F0                     
  2305                           ;lcd.c: 178:     WaitLCD();
  2306   0028F0  ECE1  F015         	call	_WaitLCD	;wreg free
  2307   0028F4                     l115:
  2308   0028F4  0012               	return		;funcret
  2309   0028F6                     __end_of_LCDGoto:
  2310                           	callstack 0
  2311                           
  2312 ;; *************** function _WriteByte *****************
  2313 ;; Defined at:
  2314 ;;		line 84 in file "lcd.c"
  2315 ;; Parameters:    Size  Location     Type
  2316 ;;  cmd             1    wreg     unsigned char 
  2317 ;;  data            1    3[COMRAM] unsigned char 
  2318 ;; Auto vars:     Size  Location     Type
  2319 ;;  cmd             1    4[COMRAM] unsigned char 
  2320 ;; Return value:  Size  Location     Type
  2321 ;;                  1    wreg      void 
  2322 ;; Registers used:
  2323 ;;		wreg, status,2, status,0, cstack
  2324 ;; Tracked objects:
  2325 ;;		On entry : 0/0
  2326 ;;		On exit  : 0/0
  2327 ;;		Unchanged: 0/0
  2328 ;; Data sizes:     COMRAM   BANK0   BANK1   BANK2   BANK3   BANK4   BANK5   BANK6   BANK7   BANK8   BANK9  BANK10  BANK1
      +1  BANK12  BANK13  BANK14  BANK15
  2329 ;;      Params:         1       0       0       0       0       0       0       0       0       0       0       0       
      +0       0       0       0       0
  2330 ;;      Locals:         1       0       0       0       0       0       0       0       0       0       0       0       
      +0       0       0       0       0
  2331 ;;      Temps:          0       0       0       0       0       0       0       0       0       0       0       0       
      +0       0       0       0       0
  2332 ;;      Totals:         2       0       0       0       0       0       0       0       0       0       0       0       
      +0       0       0       0       0
  2333 ;;Total ram usage:        2 bytes
  2334 ;; Hardware stack levels used: 1
  2335 ;; Hardware stack levels required when called: 1
  2336 ;; This function calls:
  2337 ;;		_WriteNibble
  2338 ;; This function is called by:
  2339 ;;		_LCDClear
  2340 ;;		_LCDGoto
  2341 ;;		_LCDPutChar
  2342 ;;		_LCDShiftDisplay
  2343 ;; This function uses a non-reentrant model
  2344 ;;
  2345                           
  2346                           	psect	text14
  2347   002BFA                     __ptext14:
  2348                           	callstack 0
  2349   002BFA                     _WriteByte:
  2350                           	callstack 27
  2351                           
  2352                           ;incstack = 0
  2353                           ;WriteByte@cmd stored from wreg
  2354   002BFA  6E05               	movwf	WriteByte@cmd^0,c
  2355   002BFC                     
  2356                           ;lcd.c: 84: void WriteByte(UINT8_T cmd, UINT8_T data);lcd.c: 85: {;lcd.c: 86:     WriteN
      +                          ibble(cmd, data >> 4);
  2357   002BFC  3804               	swapf	WriteByte@data^0,w,c
  2358   002BFE  0B0F               	andlw	15
  2359   002C00  6E01               	movwf	WriteNibble@data^0,c
  2360   002C02  5005               	movf	WriteByte@cmd^0,w,c
  2361   002C04  EC02  F015         	call	_WriteNibble
  2362                           
  2363                           ;lcd.c: 87:     WriteNibble(cmd, data);
  2364   002C08  C004  F001         	movff	WriteByte@data,WriteNibble@data
  2365   002C0C  5005               	movf	WriteByte@cmd^0,w,c
  2366   002C0E  EC02  F015         	call	_WriteNibble
  2367   002C12  0012               	return		;funcret
  2368   002C14                     __end_of_WriteByte:
  2369                           	callstack 0
  2370                           
  2371 ;; *************** function _WriteNibble *****************
  2372 ;; Defined at:
  2373 ;;		line 67 in file "lcd.c"
  2374 ;; Parameters:    Size  Location     Type
  2375 ;;  cmd             1    wreg     unsigned char 
  2376 ;;  data            1    0[COMRAM] unsigned char 
  2377 ;; Auto vars:     Size  Location     Type
  2378 ;;  cmd             1    2[COMRAM] unsigned char 
  2379 ;; Return value:  Size  Location     Type
  2380 ;;                  1    wreg      void 
  2381 ;; Registers used:
  2382 ;;		wreg, status,2, status,0
  2383 ;; Tracked objects:
  2384 ;;		On entry : 0/0
  2385 ;;		On exit  : 0/0
  2386 ;;		Unchanged: 0/0
  2387 ;; Data sizes:     COMRAM   BANK0   BANK1   BANK2   BANK3   BANK4   BANK5   BANK6   BANK7   BANK8   BANK9  BANK10  BANK1
      +1  BANK12  BANK13  BANK14  BANK15
  2388 ;;      Params:         1       0       0       0       0       0       0       0       0       0       0       0       
      +0       0       0       0       0
  2389 ;;      Locals:         1       0       0       0       0       0       0       0       0       0       0       0       
      +0       0       0       0       0
  2390 ;;      Temps:          1       0       0       0       0       0       0       0       0       0       0       0       
      +0       0       0       0       0
  2391 ;;      Totals:         3       0       0       0       0       0       0       0       0       0       0       0       
      +0       0       0       0       0
  2392 ;;Total ram usage:        3 bytes
  2393 ;; Hardware stack levels used: 1
  2394 ;; This function calls:
  2395 ;;		Nothing
  2396 ;; This function is called by:
  2397 ;;		_WriteByte
  2398 ;;		_LCDInit
  2399 ;; This function uses a non-reentrant model
  2400 ;;
  2401                           
  2402                           	psect	text15
  2403   002A04                     __ptext15:
  2404                           	callstack 0
  2405   002A04                     _WriteNibble:
  2406                           	callstack 27
  2407                           
  2408                           ;incstack = 0
  2409                           ;WriteNibble@cmd stored from wreg
  2410   002A04  6E03               	movwf	WriteNibble@cmd^0,c
  2411   002A06                     
  2412                           ;lcd.c: 67: void WriteNibble(UINT8_T cmd, UINT8_T data);lcd.c: 68: {;lcd.c: 69:     LATD
      +                          bits.LATD4 = (cmd ? 0 : 1);
  2413   002A06  5003               	movf	WriteNibble@cmd^0,w,c
  2414   002A08  B4D8               	btfsc	status,2,c
  2415   002A0A  EF09  F015         	goto	u1331
  2416   002A0E  EF0D  F015         	goto	u1330
  2417   002A12                     u1331:
  2418   002A12  6A02               	clrf	??_WriteNibble^0,c
  2419   002A14  2A02               	incf	??_WriteNibble^0,f,c
  2420   002A16  EF0E  F015         	goto	u1348
  2421   002A1A                     u1330:
  2422   002A1A  6A02               	clrf	??_WriteNibble^0,c
  2423   002A1C                     u1348:
  2424   002A1C  3A02               	swapf	??_WriteNibble^0,f,c
  2425   002A1E  508C               	movf	140,w,c	;volatile
  2426   002A20  1802               	xorwf	??_WriteNibble^0,w,c
  2427   002A22  0BEF               	andlw	-17
  2428   002A24  1802               	xorwf	??_WriteNibble^0,w,c
  2429   002A26  6E8C               	movwf	140,c	;volatile
  2430   002A28                     
  2431                           ;lcd.c: 70:     LATDbits.LATD5 = 0;
  2432   002A28  9A8C               	bcf	140,5,c	;volatile
  2433   002A2A                     
  2434                           ;lcd.c: 71:     LATDbits.LATD6 = 1;
  2435   002A2A  8C8C               	bsf	140,6,c	;volatile
  2436   002A2C                     
  2437                           ;lcd.c: 73:     LATDbits.LATD0 = LATDbits.LATD1 = LATDbits.LATD2 = LATDbits.LATD3 = 0;
  2438   002A2C  968C               	bcf	140,3,c	;volatile
  2439   002A2E  948C               	bcf	140,2,c	;volatile
  2440   002A30  928C               	bcf	140,1,c	;volatile
  2441   002A32  908C               	bcf	140,0,c	;volatile
  2442   002A34                     
  2443                           ;lcd.c: 74:     __nop();
  2444   002A34  0000               	nop	
  2445   002A36                     
  2446                           ;lcd.c: 75:     __nop();
  2447   002A36  0000               	nop	
  2448                           
  2449                           ;lcd.c: 77:     LATD = (LATD & 0xF0) | (data & 0x0F);
  2450   002A38  C001  F002         	movff	WriteNibble@data,??_WriteNibble
  2451   002A3C  0E0F               	movlw	15
  2452   002A3E  1602               	andwf	??_WriteNibble^0,f,c
  2453   002A40  508C               	movf	140,w,c	;volatile
  2454   002A42  0BF0               	andlw	240
  2455   002A44  1002               	iorwf	??_WriteNibble^0,w,c
  2456   002A46  6E8C               	movwf	140,c	;volatile
  2457   002A48                     
  2458                           ;lcd.c: 78:     __nop();
  2459   002A48  0000               	nop	
  2460   002A4A                     
  2461                           ;lcd.c: 79:     __nop();
  2462   002A4A  0000               	nop	
  2463   002A4C                     
  2464                           ;lcd.c: 81:     LATDbits.LATD6 = 0;
  2465   002A4C  9C8C               	bcf	140,6,c	;volatile
  2466   002A4E  0012               	return		;funcret
  2467   002A50                     __end_of_WriteNibble:
  2468                           	callstack 0
  2469                           
  2470 ;; *************** function _WaitLCD *****************
  2471 ;; Defined at:
  2472 ;;		line 53 in file "lcd.c"
  2473 ;; Parameters:    Size  Location     Type
  2474 ;;		None
  2475 ;; Auto vars:     Size  Location     Type
  2476 ;;  status          1    1[COMRAM] unsigned char 
  2477 ;; Return value:  Size  Location     Type
  2478 ;;                  1    wreg      void 
  2479 ;; Registers used:
  2480 ;;		wreg, status,2, status,0, cstack
  2481 ;; Tracked objects:
  2482 ;;		On entry : 0/0
  2483 ;;		On exit  : 0/0
  2484 ;;		Unchanged: 0/0
  2485 ;; Data sizes:     COMRAM   BANK0   BANK1   BANK2   BANK3   BANK4   BANK5   BANK6   BANK7   BANK8   BANK9  BANK10  BANK1
      +1  BANK12  BANK13  BANK14  BANK15
  2486 ;;      Params:         0       0       0       0       0       0       0       0       0       0       0       0       
      +0       0       0       0       0
  2487 ;;      Locals:         1       0       0       0       0       0       0       0       0       0       0       0       
      +0       0       0       0       0
  2488 ;;      Temps:          0       0       0       0       0       0       0       0       0       0       0       0       
      +0       0       0       0       0
  2489 ;;      Totals:         1       0       0       0       0       0       0       0       0       0       0       0       
      +0       0       0       0       0
  2490 ;;Total ram usage:        1 bytes
  2491 ;; Hardware stack levels used: 1
  2492 ;; Hardware stack levels required when called: 1
  2493 ;; This function calls:
  2494 ;;		_ReadByte
  2495 ;; This function is called by:
  2496 ;;		_LCDInit
  2497 ;;		_LCDClear
  2498 ;;		_LCDGoto
  2499 ;;		_LCDPutChar
  2500 ;; This function uses a non-reentrant model
  2501 ;;
  2502                           
  2503                           	psect	text16
  2504   002BC2                     __ptext16:
  2505                           	callstack 0
  2506   002BC2                     _WaitLCD:
  2507                           	callstack 27
  2508   002BC2                     
  2509                           ;lcd.c: 55:     UINT8_T status;;lcd.c: 57:     LATDbits.LATD4 = 0;
  2510   002BC2  988C               	bcf	140,4,c	;volatile
  2511                           
  2512                           ;lcd.c: 58:     LATDbits.LATD5 = 1;
  2513   002BC4  8A8C               	bsf	140,5,c	;volatile
  2514   002BC6                     l2061:
  2515                           
  2516                           ;lcd.c: 61:         status = ReadByte();
  2517   002BC6  EC69  F015         	call	_ReadByte	;wreg free
  2518   002BCA  6E02               	movwf	WaitLCD@status^0,c
  2519   002BCC                     
  2520                           ;lcd.c: 62:     } while (status & 0x80);
  2521   002BCC  BE02               	btfsc	WaitLCD@status^0,7,c
  2522   002BCE  EFEB  F015         	goto	u1351
  2523   002BD2  EFED  F015         	goto	u1350
  2524   002BD6                     u1351:
  2525   002BD6  EFE3  F015         	goto	l2061
  2526   002BDA                     u1350:
  2527   002BDA                     
  2528                           ;lcd.c: 64:     LATDbits.LATD5 = 0;
  2529   002BDA  9A8C               	bcf	140,5,c	;volatile
  2530   002BDC  0012               	return		;funcret
  2531   002BDE                     __end_of_WaitLCD:
  2532                           	callstack 0
  2533                           
  2534 ;; *************** function _ReadByte *****************
  2535 ;; Defined at:
  2536 ;;		line 22 in file "lcd.c"
  2537 ;; Parameters:    Size  Location     Type
  2538 ;;		None
  2539 ;; Auto vars:     Size  Location     Type
  2540 ;;  status          1    0[COMRAM] unsigned char 
  2541 ;; Return value:  Size  Location     Type
  2542 ;;                  1    wreg      unsigned char 
  2543 ;; Registers used:
  2544 ;;		wreg, status,2, status,0
  2545 ;; Tracked objects:
  2546 ;;		On entry : 0/0
  2547 ;;		On exit  : 0/0
  2548 ;;		Unchanged: 0/0
  2549 ;; Data sizes:     COMRAM   BANK0   BANK1   BANK2   BANK3   BANK4   BANK5   BANK6   BANK7   BANK8   BANK9  BANK10  BANK1
      +1  BANK12  BANK13  BANK14  BANK15
  2550 ;;      Params:         0       0       0       0       0       0       0       0       0       0       0       0       
      +0       0       0       0       0
  2551 ;;      Locals:         1       0       0       0       0       0       0       0       0       0       0       0       
      +0       0       0       0       0
  2552 ;;      Temps:          0       0       0       0       0       0       0       0       0       0       0       0       
      +0       0       0       0       0
  2553 ;;      Totals:         1       0       0       0       0       0       0       0       0       0       0       0       
      +0       0       0       0       0
  2554 ;;Total ram usage:        1 bytes
  2555 ;; Hardware stack levels used: 1
  2556 ;; This function calls:
  2557 ;;		Nothing
  2558 ;; This function is called by:
  2559 ;;		_WaitLCD
  2560 ;; This function uses a non-reentrant model
  2561 ;;
  2562                           
  2563                           	psect	text17
  2564   002AD2                     __ptext17:
  2565                           	callstack 0
  2566   002AD2                     _ReadByte:
  2567                           	callstack 27
  2568   002AD2                     
  2569                           ;lcd.c: 24:     UINT8_T status;;lcd.c: 26:     TRISDbits.TRISD0 = 1;
  2570   002AD2  8095               	bsf	149,0,c	;volatile
  2571                           
  2572                           ;lcd.c: 27:     TRISDbits.TRISD1 = 1;
  2573   002AD4  8295               	bsf	149,1,c	;volatile
  2574                           
  2575                           ;lcd.c: 28:     TRISDbits.TRISD2 = 1;
  2576   002AD6  8495               	bsf	149,2,c	;volatile
  2577                           
  2578                           ;lcd.c: 29:     TRISDbits.TRISD3 = 1;
  2579   002AD8  8695               	bsf	149,3,c	;volatile
  2580                           
  2581                           ;lcd.c: 31:     LATDbits.LATD6 = 1;
  2582   002ADA  8C8C               	bsf	140,6,c	;volatile
  2583                           
  2584                           ;lcd.c: 32:     __nop();
  2585   002ADC  0000               	nop	
  2586                           
  2587                           ;lcd.c: 33:     __nop();
  2588   002ADE  0000               	nop	
  2589   002AE0                     
  2590                           ;lcd.c: 35:     status = PORTD << 4;
  2591   002AE0  3883               	swapf	131,w,c	;volatile
  2592   002AE2  0BF0               	andlw	240
  2593   002AE4  6E01               	movwf	ReadByte@status^0,c
  2594   002AE6                     
  2595                           ;lcd.c: 36:     LATDbits.LATD6 = 0;
  2596   002AE6  9C8C               	bcf	140,6,c	;volatile
  2597   002AE8                     
  2598                           ;lcd.c: 38:     LATDbits.LATD6 = 1;
  2599   002AE8  8C8C               	bsf	140,6,c	;volatile
  2600   002AEA                     
  2601                           ;lcd.c: 39:     __nop();
  2602   002AEA  0000               	nop	
  2603   002AEC                     
  2604                           ;lcd.c: 40:     __nop();
  2605   002AEC  0000               	nop	
  2606                           
  2607                           ;lcd.c: 42:     status |= PORTD & 0x0F;
  2608   002AEE  5083               	movf	131,w,c	;volatile
  2609   002AF0  0B0F               	andlw	15
  2610   002AF2  1201               	iorwf	ReadByte@status^0,f,c
  2611   002AF4                     
  2612                           ;lcd.c: 43:     LATDbits.LATD6 = 0;
  2613   002AF4  9C8C               	bcf	140,6,c	;volatile
  2614   002AF6                     
  2615                           ;lcd.c: 45:     TRISDbits.TRISD0 = 0;
  2616   002AF6  9095               	bcf	149,0,c	;volatile
  2617   002AF8                     
  2618                           ;lcd.c: 46:     TRISDbits.TRISD1 = 0;
  2619   002AF8  9295               	bcf	149,1,c	;volatile
  2620   002AFA                     
  2621                           ;lcd.c: 47:     TRISDbits.TRISD2 = 0;
  2622   002AFA  9495               	bcf	149,2,c	;volatile
  2623   002AFC                     
  2624                           ;lcd.c: 48:     TRISDbits.TRISD3 = 0;
  2625   002AFC  9695               	bcf	149,3,c	;volatile
  2626   002AFE                     
  2627                           ;lcd.c: 50:     return(status);
  2628   002AFE  5001               	movf	ReadByte@status^0,w,c
  2629   002B00  0012               	return		;funcret
  2630   002B02                     __end_of_ReadByte:
  2631                           	callstack 0
  2632                           
  2633 ;; *************** function _BME280_Read_Compensation_Params *****************
  2634 ;; Defined at:
  2635 ;;		line 157 in file "mesure_temp.c"
  2636 ;; Parameters:    Size  Location     Type
  2637 ;;		None
  2638 ;; Auto vars:     Size  Location     Type
  2639 ;;  i               2   16[COMRAM] int 
  2640 ;;  data           12    4[COMRAM] unsigned int [6]
  2641 ;; Return value:  Size  Location     Type
  2642 ;;                  1    wreg      void 
  2643 ;; Registers used:
  2644 ;;		wreg, fsr2l, fsr2h, status,2, status,0, prodl, prodh, cstack
  2645 ;; Tracked objects:
  2646 ;;		On entry : 0/0
  2647 ;;		On exit  : 0/0
  2648 ;;		Unchanged: 0/0
  2649 ;; Data sizes:     COMRAM   BANK0   BANK1   BANK2   BANK3   BANK4   BANK5   BANK6   BANK7   BANK8   BANK9  BANK10  BANK1
      +1  BANK12  BANK13  BANK14  BANK15
  2650 ;;      Params:         0       0       0       0       0       0       0       0       0       0       0       0       
      +0       0       0       0       0
  2651 ;;      Locals:        14       0       0       0       0       0       0       0       0       0       0       0       
      +0       0       0       0       0
  2652 ;;      Temps:          2       0       0       0       0       0       0       0       0       0       0       0       
      +0       0       0       0       0
  2653 ;;      Totals:        16       0       0       0       0       0       0       0       0       0       0       0       
      +0       0       0       0       0
  2654 ;;Total ram usage:       16 bytes
  2655 ;; Hardware stack levels used: 1
  2656 ;; Hardware stack levels required when called: 2
  2657 ;; This function calls:
  2658 ;;		_i2c_ACK
  2659 ;;		_i2c_NAK
  2660 ;;		_i2c_read
  2661 ;;		_i2c_start
  2662 ;;		_i2c_stop
  2663 ;;		_i2c_write
  2664 ;; This function is called by:
  2665 ;;		_main
  2666 ;; This function uses a non-reentrant model
  2667 ;;
  2668                           
  2669                           	psect	text18
  2670   0026E8                     __ptext18:
  2671                           	callstack 0
  2672   0026E8                     _BME280_Read_Compensation_Params:
  2673                           	callstack 28
  2674   0026E8  EC38  F016         	call	_i2c_start	;wreg free
  2675   0026EC  0EEC               	movlw	236
  2676   0026EE  ECEF  F015         	call	_i2c_write
  2677   0026F2  0E88               	movlw	136
  2678   0026F4  ECEF  F015         	call	_i2c_write
  2679   0026F8  EC16  F016         	call	_i2c_stop	;wreg free
  2680   0026FC  EC38  F016         	call	_i2c_start	;wreg free
  2681   002700  0EED               	movlw	237
  2682   002702  ECEF  F015         	call	_i2c_write
  2683   002706  0E00               	movlw	0
  2684   002708  6E12               	movwf	(BME280_Read_Compensation_Params@i+1)^0,c
  2685   00270A  0E00               	movlw	0
  2686   00270C  6E11               	movwf	BME280_Read_Compensation_Params@i^0,c
  2687   00270E                     l2897:
  2688   00270E  ECD1  F015         	call	_i2c_read	;wreg free
  2689   002712  6E03               	movwf	??_BME280_Read_Compensation_Params^0,c
  2690   002714  6A04               	clrf	(??_BME280_Read_Compensation_Params+1)^0,c
  2691   002716  5011               	movf	BME280_Read_Compensation_Params@i^0,w,c
  2692   002718  0D02               	mullw	2
  2693   00271A  50F3               	movf	243,w,c
  2694   00271C  0F05               	addlw	low BME280_Read_Compensation_Params@data
  2695   00271E  6ED9               	movwf	fsr2l,c
  2696   002720  6ADA               	clrf	fsr2h,c
  2697   002722  C003  FFDE         	movff	??_BME280_Read_Compensation_Params,postinc2
  2698   002726  C004  FFDD         	movff	??_BME280_Read_Compensation_Params+1,postdec2
  2699   00272A  EC2D  F016         	call	_i2c_ACK	;wreg free
  2700   00272E  4A11               	infsnz	BME280_Read_Compensation_Params@i^0,f,c
  2701   002730  2A12               	incf	(BME280_Read_Compensation_Params@i+1)^0,f,c
  2702   002732  BE12               	btfsc	(BME280_Read_Compensation_Params@i+1)^0,7,c
  2703   002734  EFA5  F013         	goto	u2551
  2704   002738  5012               	movf	(BME280_Read_Compensation_Params@i+1)^0,w,c
  2705   00273A  E109               	bnz	u2550
  2706   00273C  0E05               	movlw	5
  2707   00273E  5C11               	subwf	BME280_Read_Compensation_Params@i^0,w,c
  2708   002740  A0D8               	btfss	status,0,c
  2709   002742  EFA5  F013         	goto	u2551
  2710   002746  EFA7  F013         	goto	u2550
  2711   00274A                     u2551:
  2712   00274A  EF87  F013         	goto	l2897
  2713   00274E                     u2550:
  2714   00274E  ECD1  F015         	call	_i2c_read	;wreg free
  2715   002752  6E03               	movwf	??_BME280_Read_Compensation_Params^0,c
  2716   002754  5003               	movf	??_BME280_Read_Compensation_Params^0,w,c
  2717   002756  6E0F               	movwf	(BME280_Read_Compensation_Params@data+10)^0,c
  2718   002758  6A10               	clrf	(BME280_Read_Compensation_Params@data+11)^0,c
  2719   00275A  EC22  F016         	call	_i2c_NAK	;wreg free
  2720   00275E  EC16  F016         	call	_i2c_stop	;wreg free
  2721   002762  5007               	movf	(BME280_Read_Compensation_Params@data+2)^0,w,c
  2722   002764  6E04               	movwf	(??_BME280_Read_Compensation_Params+1)^0,c
  2723   002766  6A03               	clrf	??_BME280_Read_Compensation_Params^0,c
  2724   002768  5005               	movf	BME280_Read_Compensation_Params@data^0,w,c
  2725   00276A  1003               	iorwf	??_BME280_Read_Compensation_Params^0,w,c
  2726   00276C  0100               	movlb	0	; () banked
  2727   00276E  6F60               	movwf	_compParams& (0+255),b
  2728   002770  5006               	movf	(BME280_Read_Compensation_Params@data+1)^0,w,c
  2729   002772  1004               	iorwf	(??_BME280_Read_Compensation_Params+1)^0,w,c
  2730   002774  6F61               	movwf	(_compParams+1)& (0+255),b
  2731   002776                     
  2732                           ; BSR set to: 0
  2733   002776  500B               	movf	(BME280_Read_Compensation_Params@data+6)^0,w,c
  2734   002778  6E04               	movwf	(??_BME280_Read_Compensation_Params+1)^0,c
  2735   00277A  6A03               	clrf	??_BME280_Read_Compensation_Params^0,c
  2736   00277C  5009               	movf	(BME280_Read_Compensation_Params@data+4)^0,w,c
  2737   00277E  1003               	iorwf	??_BME280_Read_Compensation_Params^0,w,c
  2738   002780  6F62               	movwf	(_compParams+2)& (0+255),b
  2739   002782  500A               	movf	(BME280_Read_Compensation_Params@data+5)^0,w,c
  2740   002784  1004               	iorwf	(??_BME280_Read_Compensation_Params+1)^0,w,c
  2741   002786  6F63               	movwf	(_compParams+3)& (0+255),b
  2742   002788                     
  2743                           ; BSR set to: 0
  2744   002788  500F               	movf	(BME280_Read_Compensation_Params@data+10)^0,w,c
  2745   00278A  6E04               	movwf	(??_BME280_Read_Compensation_Params+1)^0,c
  2746   00278C  6A03               	clrf	??_BME280_Read_Compensation_Params^0,c
  2747   00278E  500D               	movf	(BME280_Read_Compensation_Params@data+8)^0,w,c
  2748   002790  1003               	iorwf	??_BME280_Read_Compensation_Params^0,w,c
  2749   002792  6F64               	movwf	(_compParams+4)& (0+255),b
  2750   002794  500E               	movf	(BME280_Read_Compensation_Params@data+9)^0,w,c
  2751   002796  1004               	iorwf	(??_BME280_Read_Compensation_Params+1)^0,w,c
  2752   002798  6F65               	movwf	(_compParams+5)& (0+255),b
  2753   00279A                     
  2754                           ; BSR set to: 0
  2755   00279A  0012               	return		;funcret
  2756   00279C                     __end_of_BME280_Read_Compensation_Params:
  2757                           	callstack 0
  2758                           
  2759 ;; *************** function _i2c_read *****************
  2760 ;; Defined at:
  2761 ;;		line 92 in file "i2c.c"
  2762 ;; Parameters:    Size  Location     Type
  2763 ;;		None
  2764 ;; Auto vars:     Size  Location     Type
  2765 ;;  i2cReadData     1    1[COMRAM] unsigned char 
  2766 ;; Return value:  Size  Location     Type
  2767 ;;                  1    wreg      unsigned char 
  2768 ;; Registers used:
  2769 ;;		wreg, status,2, status,0, cstack
  2770 ;; Tracked objects:
  2771 ;;		On entry : 0/0
  2772 ;;		On exit  : 0/0
  2773 ;;		Unchanged: 0/0
  2774 ;; Data sizes:     COMRAM   BANK0   BANK1   BANK2   BANK3   BANK4   BANK5   BANK6   BANK7   BANK8   BANK9  BANK10  BANK1
      +1  BANK12  BANK13  BANK14  BANK15
  2775 ;;      Params:         0       0       0       0       0       0       0       0       0       0       0       0       
      +0       0       0       0       0
  2776 ;;      Locals:         1       0       0       0       0       0       0       0       0       0       0       0       
      +0       0       0       0       0
  2777 ;;      Temps:          0       0       0       0       0       0       0       0       0       0       0       0       
      +0       0       0       0       0
  2778 ;;      Totals:         1       0       0       0       0       0       0       0       0       0       0       0       
      +0       0       0       0       0
  2779 ;;Total ram usage:        1 bytes
  2780 ;; Hardware stack levels used: 1
  2781 ;; Hardware stack levels required when called: 1
  2782 ;; This function calls:
  2783 ;;		_i2c_waitForIdle
  2784 ;; This function is called by:
  2785 ;;		_BME280_Read_Compensation_Params
  2786 ;;		_BME280_Read_Temperature
  2787 ;;		_main
  2788 ;; This function uses a non-reentrant model
  2789 ;;
  2790                           
  2791                           	psect	text19
  2792   002BA2                     __ptext19:
  2793                           	callstack 0
  2794   002BA2                     _i2c_read:
  2795                           	callstack 29
  2796   002BA2                     
  2797                           ;i2c.c: 95:     i2c_waitForIdle();
  2798   002BA2  EC98  F015         	call	_i2c_waitForIdle	;wreg free
  2799   002BA6                     
  2800                           ;i2c.c: 97:     PIR1bits.SSP1IF = 0;
  2801   002BA6  969E               	bcf	158,3,c	;volatile
  2802   002BA8                     
  2803                           ;i2c.c: 98:     SSP1CON2bits.RCEN = 1;
  2804   002BA8  86C5               	bsf	197,3,c	;volatile
  2805   002BAA                     l68:
  2806   002BAA  A0C7               	btfss	199,0,c	;volatile
  2807   002BAC  EFDA  F015         	goto	u1871
  2808   002BB0  EFDC  F015         	goto	u1870
  2809   002BB4                     u1871:
  2810   002BB4  EFD5  F015         	goto	l68
  2811   002BB8                     u1870:
  2812   002BB8                     
  2813                           ;i2c.c: 101:     PIR1bits.SSP1IF = 0;
  2814   002BB8  969E               	bcf	158,3,c	;volatile
  2815                           
  2816                           ;i2c.c: 102:     i2cReadData = SSP1BUF;
  2817   002BBA  CFC9 F002          	movff	4041,i2c_read@i2cReadData	;volatile
  2818   002BBE                     
  2819                           ;i2c.c: 103:     return i2cReadData;
  2820   002BBE  5002               	movf	i2c_read@i2cReadData^0,w,c
  2821   002BC0  0012               	return		;funcret
  2822   002BC2                     __end_of_i2c_read:
  2823                           	callstack 0
  2824                           
  2825 ;; *************** function _i2c_NAK *****************
  2826 ;; Defined at:
  2827 ;;		line 84 in file "i2c.c"
  2828 ;; Parameters:    Size  Location     Type
  2829 ;;		None
  2830 ;; Auto vars:     Size  Location     Type
  2831 ;;		None
  2832 ;; Return value:  Size  Location     Type
  2833 ;;                  1    wreg      void 
  2834 ;; Registers used:
  2835 ;;		None
  2836 ;; Tracked objects:
  2837 ;;		On entry : 0/0
  2838 ;;		On exit  : 0/0
  2839 ;;		Unchanged: 0/0
  2840 ;; Data sizes:     COMRAM   BANK0   BANK1   BANK2   BANK3   BANK4   BANK5   BANK6   BANK7   BANK8   BANK9  BANK10  BANK1
      +1  BANK12  BANK13  BANK14  BANK15
  2841 ;;      Params:         0       0       0       0       0       0       0       0       0       0       0       0       
      +0       0       0       0       0
  2842 ;;      Locals:         0       0       0       0       0       0       0       0       0       0       0       0       
      +0       0       0       0       0
  2843 ;;      Temps:          0       0       0       0       0       0       0       0       0       0       0       0       
      +0       0       0       0       0
  2844 ;;      Totals:         0       0       0       0       0       0       0       0       0       0       0       0       
      +0       0       0       0       0
  2845 ;;Total ram usage:        0 bytes
  2846 ;; Hardware stack levels used: 1
  2847 ;; This function calls:
  2848 ;;		Nothing
  2849 ;; This function is called by:
  2850 ;;		_BME280_Read_Compensation_Params
  2851 ;;		_BME280_Read_Temperature
  2852 ;;		_main
  2853 ;; This function uses a non-reentrant model
  2854 ;;
  2855                           
  2856                           	psect	text20
  2857   002C44                     __ptext20:
  2858                           	callstack 0
  2859   002C44                     _i2c_NAK:
  2860                           	callstack 30
  2861   002C44                     
  2862                           ;i2c.c: 86:     PIR1bits.SSP1IF = 0;
  2863   002C44  969E               	bcf	158,3,c	;volatile
  2864                           
  2865                           ;i2c.c: 87:     SSP1CON2bits.ACKDT = 1;
  2866   002C46  8AC5               	bsf	197,5,c	;volatile
  2867                           
  2868                           ;i2c.c: 88:     SSP1CON2bits.ACKEN = 1;
  2869   002C48  88C5               	bsf	197,4,c	;volatile
  2870   002C4A                     l62:
  2871   002C4A  A69E               	btfss	158,3,c	;volatile
  2872   002C4C  EF2A  F016         	goto	u1861
  2873   002C50  EF2C  F016         	goto	u1860
  2874   002C54                     u1861:
  2875   002C54  EF25  F016         	goto	l62
  2876   002C58                     u1860:
  2877   002C58  0012               	return		;funcret
  2878   002C5A                     __end_of_i2c_NAK:
  2879                           	callstack 0
  2880                           
  2881 ;; *************** function _i2c_ACK *****************
  2882 ;; Defined at:
  2883 ;;		line 77 in file "i2c.c"
  2884 ;; Parameters:    Size  Location     Type
  2885 ;;		None
  2886 ;; Auto vars:     Size  Location     Type
  2887 ;;		None
  2888 ;; Return value:  Size  Location     Type
  2889 ;;                  1    wreg      void 
  2890 ;; Registers used:
  2891 ;;		None
  2892 ;; Tracked objects:
  2893 ;;		On entry : 0/0
  2894 ;;		On exit  : 0/0
  2895 ;;		Unchanged: 0/0
  2896 ;; Data sizes:     COMRAM   BANK0   BANK1   BANK2   BANK3   BANK4   BANK5   BANK6   BANK7   BANK8   BANK9  BANK10  BANK1
      +1  BANK12  BANK13  BANK14  BANK15
  2897 ;;      Params:         0       0       0       0       0       0       0       0       0       0       0       0       
      +0       0       0       0       0
  2898 ;;      Locals:         0       0       0       0       0       0       0       0       0       0       0       0       
      +0       0       0       0       0
  2899 ;;      Temps:          0       0       0       0       0       0       0       0       0       0       0       0       
      +0       0       0       0       0
  2900 ;;      Totals:         0       0       0       0       0       0       0       0       0       0       0       0       
      +0       0       0       0       0
  2901 ;;Total ram usage:        0 bytes
  2902 ;; Hardware stack levels used: 1
  2903 ;; This function calls:
  2904 ;;		Nothing
  2905 ;; This function is called by:
  2906 ;;		_BME280_Read_Compensation_Params
  2907 ;;		_BME280_Read_Temperature
  2908 ;;		_main
  2909 ;; This function uses a non-reentrant model
  2910 ;;
  2911                           
  2912                           	psect	text21
  2913   002C5A                     __ptext21:
  2914                           	callstack 0
  2915   002C5A                     _i2c_ACK:
  2916                           	callstack 30
  2917   002C5A                     
  2918                           ;i2c.c: 79:     PIR1bits.SSP1IF = 0;
  2919   002C5A  969E               	bcf	158,3,c	;volatile
  2920                           
  2921                           ;i2c.c: 80:     SSP1CON2bits.ACKDT= 0;
  2922   002C5C  9AC5               	bcf	197,5,c	;volatile
  2923                           
  2924                           ;i2c.c: 81:     SSP1CON2bits.ACKEN = 1;
  2925   002C5E  88C5               	bsf	197,4,c	;volatile
  2926   002C60                     l56:
  2927   002C60  A69E               	btfss	158,3,c	;volatile
  2928   002C62  EF35  F016         	goto	u1851
  2929   002C66  EF37  F016         	goto	u1850
  2930   002C6A                     u1851:
  2931   002C6A  EF30  F016         	goto	l56
  2932   002C6E                     u1850:
  2933   002C6E  0012               	return		;funcret
  2934   002C70                     __end_of_i2c_ACK:
  2935                           	callstack 0
  2936                           
  2937 ;; *************** function _BME280_Init *****************
  2938 ;; Defined at:
  2939 ;;		line 137 in file "mesure_temp.c"
  2940 ;; Parameters:    Size  Location     Type
  2941 ;;		None
  2942 ;; Auto vars:     Size  Location     Type
  2943 ;;		None
  2944 ;; Return value:  Size  Location     Type
  2945 ;;                  1    wreg      void 
  2946 ;; Registers used:
  2947 ;;		wreg, status,2, status,0, cstack
  2948 ;; Tracked objects:
  2949 ;;		On entry : 0/0
  2950 ;;		On exit  : 0/0
  2951 ;;		Unchanged: 0/0
  2952 ;; Data sizes:     COMRAM   BANK0   BANK1   BANK2   BANK3   BANK4   BANK5   BANK6   BANK7   BANK8   BANK9  BANK10  BANK1
      +1  BANK12  BANK13  BANK14  BANK15
  2953 ;;      Params:         0       0       0       0       0       0       0       0       0       0       0       0       
      +0       0       0       0       0
  2954 ;;      Locals:         0       0       0       0       0       0       0       0       0       0       0       0       
      +0       0       0       0       0
  2955 ;;      Temps:          0       0       0       0       0       0       0       0       0       0       0       0       
      +0       0       0       0       0
  2956 ;;      Totals:         0       0       0       0       0       0       0       0       0       0       0       0       
      +0       0       0       0       0
  2957 ;;Total ram usage:        0 bytes
  2958 ;; Hardware stack levels used: 1
  2959 ;; Hardware stack levels required when called: 2
  2960 ;; This function calls:
  2961 ;;		_i2c_start
  2962 ;;		_i2c_stop
  2963 ;;		_i2c_write
  2964 ;; This function is called by:
  2965 ;;		_main
  2966 ;; This function uses a non-reentrant model
  2967 ;;
  2968                           
  2969                           	psect	text22
  2970   0029B4                     __ptext22:
  2971                           	callstack 0
  2972   0029B4                     _BME280_Init:
  2973                           	callstack 28
  2974   0029B4  EC38  F016         	call	_i2c_start	;wreg free
  2975   0029B8  0EEC               	movlw	236
  2976   0029BA  ECEF  F015         	call	_i2c_write
  2977   0029BE  0EF2               	movlw	242
  2978   0029C0  ECEF  F015         	call	_i2c_write
  2979   0029C4  0E04               	movlw	4
  2980   0029C6  ECEF  F015         	call	_i2c_write
  2981   0029CA  EC16  F016         	call	_i2c_stop	;wreg free
  2982   0029CE  EC38  F016         	call	_i2c_start	;wreg free
  2983   0029D2  0EEC               	movlw	236
  2984   0029D4  ECEF  F015         	call	_i2c_write
  2985   0029D8  0EF4               	movlw	244
  2986   0029DA  ECEF  F015         	call	_i2c_write
  2987   0029DE  0EA7               	movlw	167
  2988   0029E0  ECEF  F015         	call	_i2c_write
  2989   0029E4  EC16  F016         	call	_i2c_stop	;wreg free
  2990   0029E8  EC38  F016         	call	_i2c_start	;wreg free
  2991   0029EC  0EEC               	movlw	236
  2992   0029EE  ECEF  F015         	call	_i2c_write
  2993   0029F2  0EF5               	movlw	245
  2994   0029F4  ECEF  F015         	call	_i2c_write
  2995   0029F8  0E44               	movlw	68
  2996   0029FA  ECEF  F015         	call	_i2c_write
  2997   0029FE  EC16  F016         	call	_i2c_stop	;wreg free
  2998   002A02  0012               	return		;funcret
  2999   002A04                     __end_of_BME280_Init:
  3000                           	callstack 0
  3001                           
  3002 ;; *************** function _i2c_write *****************
  3003 ;; Defined at:
  3004 ;;		line 106 in file "i2c.c"
  3005 ;; Parameters:    Size  Location     Type
  3006 ;;  i2cWriteData    1    wreg     unsigned char 
  3007 ;; Auto vars:     Size  Location     Type
  3008 ;;  i2cWriteData    1    1[COMRAM] unsigned char 
  3009 ;; Return value:  Size  Location     Type
  3010 ;;                  1    wreg      void 
  3011 ;; Registers used:
  3012 ;;		wreg, status,2, status,0, cstack
  3013 ;; Tracked objects:
  3014 ;;		On entry : 0/0
  3015 ;;		On exit  : 0/0
  3016 ;;		Unchanged: 0/0
  3017 ;; Data sizes:     COMRAM   BANK0   BANK1   BANK2   BANK3   BANK4   BANK5   BANK6   BANK7   BANK8   BANK9  BANK10  BANK1
      +1  BANK12  BANK13  BANK14  BANK15
  3018 ;;      Params:         0       0       0       0       0       0       0       0       0       0       0       0       
      +0       0       0       0       0
  3019 ;;      Locals:         1       0       0       0       0       0       0       0       0       0       0       0       
      +0       0       0       0       0
  3020 ;;      Temps:          0       0       0       0       0       0       0       0       0       0       0       0       
      +0       0       0       0       0
  3021 ;;      Totals:         1       0       0       0       0       0       0       0       0       0       0       0       
      +0       0       0       0       0
  3022 ;;Total ram usage:        1 bytes
  3023 ;; Hardware stack levels used: 1
  3024 ;; Hardware stack levels required when called: 1
  3025 ;; This function calls:
  3026 ;;		_i2c_waitForIdle
  3027 ;; This function is called by:
  3028 ;;		_I2C_Write_Register
  3029 ;;		_BME280_Init
  3030 ;;		_BME280_Read_Compensation_Params
  3031 ;;		_BME280_Read_Temperature
  3032 ;;		_main
  3033 ;; This function uses a non-reentrant model
  3034 ;;
  3035                           
  3036                           	psect	text23
  3037   002BDE                     __ptext23:
  3038                           	callstack 0
  3039   002BDE                     _i2c_write:
  3040                           	callstack 29
  3041                           
  3042                           ;incstack = 0
  3043                           ;i2c_write@i2cWriteData stored from wreg
  3044   002BDE  6E02               	movwf	i2c_write@i2cWriteData^0,c
  3045   002BE0                     
  3046                           ;i2c.c: 108:     i2c_waitForIdle();
  3047   002BE0  EC98  F015         	call	_i2c_waitForIdle	;wreg free
  3048   002BE4                     
  3049                           ;i2c.c: 110:     PIR1bits.SSP1IF = 0;
  3050   002BE4  969E               	bcf	158,3,c	;volatile
  3051   002BE6                     
  3052                           ;i2c.c: 111:     SSP1BUF = i2cWriteData;
  3053   002BE6  C002  FFC9         	movff	i2c_write@i2cWriteData,4041	;volatile
  3054   002BEA                     l74:
  3055   002BEA  A69E               	btfss	158,3,c	;volatile
  3056   002BEC  EFFA  F015         	goto	u1881
  3057   002BF0  EFFC  F015         	goto	u1880
  3058   002BF4                     u1881:
  3059   002BF4  EFF5  F015         	goto	l74
  3060   002BF8                     u1880:
  3061   002BF8  0012               	return		;funcret
  3062   002BFA                     __end_of_i2c_write:
  3063                           	callstack 0
  3064                           
  3065 ;; *************** function _i2c_stop *****************
  3066 ;; Defined at:
  3067 ;;		line 68 in file "i2c.c"
  3068 ;; Parameters:    Size  Location     Type
  3069 ;;		None
  3070 ;; Auto vars:     Size  Location     Type
  3071 ;;		None
  3072 ;; Return value:  Size  Location     Type
  3073 ;;                  1    wreg      void 
  3074 ;; Registers used:
  3075 ;;		wreg, status,2, status,0, cstack
  3076 ;; Tracked objects:
  3077 ;;		On entry : 0/0
  3078 ;;		On exit  : 0/0
  3079 ;;		Unchanged: 0/0
  3080 ;; Data sizes:     COMRAM   BANK0   BANK1   BANK2   BANK3   BANK4   BANK5   BANK6   BANK7   BANK8   BANK9  BANK10  BANK1
      +1  BANK12  BANK13  BANK14  BANK15
  3081 ;;      Params:         0       0       0       0       0       0       0       0       0       0       0       0       
      +0       0       0       0       0
  3082 ;;      Locals:         0       0       0       0       0       0       0       0       0       0       0       0       
      +0       0       0       0       0
  3083 ;;      Temps:          0       0       0       0       0       0       0       0       0       0       0       0       
      +0       0       0       0       0
  3084 ;;      Totals:         0       0       0       0       0       0       0       0       0       0       0       0       
      +0       0       0       0       0
  3085 ;;Total ram usage:        0 bytes
  3086 ;; Hardware stack levels used: 1
  3087 ;; Hardware stack levels required when called: 1
  3088 ;; This function calls:
  3089 ;;		_i2c_waitForIdle
  3090 ;; This function is called by:
  3091 ;;		_I2C_Write_Register
  3092 ;;		_BME280_Init
  3093 ;;		_BME280_Read_Compensation_Params
  3094 ;;		_BME280_Read_Temperature
  3095 ;;		_main
  3096 ;;		_I2C_Scan
  3097 ;; This function uses a non-reentrant model
  3098 ;;
  3099                           
  3100                           	psect	text24
  3101   002C2C                     __ptext24:
  3102                           	callstack 0
  3103   002C2C                     _i2c_stop:
  3104                           	callstack 29
  3105   002C2C                     
  3106                           ;i2c.c: 70:     i2c_waitForIdle();
  3107   002C2C  EC98  F015         	call	_i2c_waitForIdle	;wreg free
  3108   002C30                     
  3109                           ;i2c.c: 72:     PIR1bits.SSP1IF = 0;
  3110   002C30  969E               	bcf	158,3,c	;volatile
  3111   002C32                     
  3112                           ;i2c.c: 73:     SSP1CON2bits.PEN = 1;
  3113   002C32  84C5               	bsf	197,2,c	;volatile
  3114   002C34                     l50:
  3115   002C34  A69E               	btfss	158,3,c	;volatile
  3116   002C36  EF1F  F016         	goto	u1841
  3117   002C3A  EF21  F016         	goto	u1840
  3118   002C3E                     u1841:
  3119   002C3E  EF1A  F016         	goto	l50
  3120   002C42                     u1840:
  3121   002C42  0012               	return		;funcret
  3122   002C44                     __end_of_i2c_stop:
  3123                           	callstack 0
  3124                           
  3125 ;; *************** function _i2c_waitForIdle *****************
  3126 ;; Defined at:
  3127 ;;		line 46 in file "i2c.c"
  3128 ;; Parameters:    Size  Location     Type
  3129 ;;		None
  3130 ;; Auto vars:     Size  Location     Type
  3131 ;;		None
  3132 ;; Return value:  Size  Location     Type
  3133 ;;                  1    wreg      void 
  3134 ;; Registers used:
  3135 ;;		wreg, status,2, status,0
  3136 ;; Tracked objects:
  3137 ;;		On entry : 0/0
  3138 ;;		On exit  : 0/0
  3139 ;;		Unchanged: 0/0
  3140 ;; Data sizes:     COMRAM   BANK0   BANK1   BANK2   BANK3   BANK4   BANK5   BANK6   BANK7   BANK8   BANK9  BANK10  BANK1
      +1  BANK12  BANK13  BANK14  BANK15
  3141 ;;      Params:         0       0       0       0       0       0       0       0       0       0       0       0       
      +0       0       0       0       0
  3142 ;;      Locals:         0       0       0       0       0       0       0       0       0       0       0       0       
      +0       0       0       0       0
  3143 ;;      Temps:          1       0       0       0       0       0       0       0       0       0       0       0       
      +0       0       0       0       0
  3144 ;;      Totals:         1       0       0       0       0       0       0       0       0       0       0       0       
      +0       0       0       0       0
  3145 ;;Total ram usage:        1 bytes
  3146 ;; Hardware stack levels used: 1
  3147 ;; This function calls:
  3148 ;;		Nothing
  3149 ;; This function is called by:
  3150 ;;		_i2c_repStart
  3151 ;;		_i2c_stop
  3152 ;;		_i2c_read
  3153 ;;		_i2c_write
  3154 ;; This function uses a non-reentrant model
  3155 ;;
  3156                           
  3157                           	psect	text25
  3158   002B30                     __ptext25:
  3159                           	callstack 0
  3160   002B30                     _i2c_waitForIdle:
  3161                           	callstack 29
  3162   002B30                     l2071:
  3163   002B30  B4C7               	btfsc	199,2,c	;volatile
  3164   002B32  EF9D  F015         	goto	u1361
  3165   002B36  EFA1  F015         	goto	u1360
  3166   002B3A                     u1361:
  3167   002B3A  6A01               	clrf	??_i2c_waitForIdle^0,c
  3168   002B3C  2A01               	incf	??_i2c_waitForIdle^0,f,c
  3169   002B3E  EFA2  F015         	goto	u1368
  3170   002B42                     u1360:
  3171   002B42  6A01               	clrf	??_i2c_waitForIdle^0,c
  3172   002B44                     u1368:
  3173   002B44  50C5               	movf	197,w,c	;volatile
  3174   002B46  0B1F               	andlw	31
  3175   002B48  1001               	iorwf	??_i2c_waitForIdle^0,w,c
  3176   002B4A  0900               	iorlw	0
  3177   002B4C  A4D8               	btfss	status,2,c
  3178   002B4E  EFAB  F015         	goto	u1371
  3179   002B52  EFAD  F015         	goto	u1370
  3180   002B56                     u1371:
  3181   002B56  EF98  F015         	goto	l2071
  3182   002B5A                     u1370:
  3183   002B5A  0012               	return		;funcret
  3184   002B5C                     __end_of_i2c_waitForIdle:
  3185                           	callstack 0
  3186                           
  3187 ;; *************** function _i2c_start *****************
  3188 ;; Defined at:
  3189 ;;		line 52 in file "i2c.c"
  3190 ;; Parameters:    Size  Location     Type
  3191 ;;		None
  3192 ;; Auto vars:     Size  Location     Type
  3193 ;;		None
  3194 ;; Return value:  Size  Location     Type
  3195 ;;                  1    wreg      void 
  3196 ;; Registers used:
  3197 ;;		None
  3198 ;; Tracked objects:
  3199 ;;		On entry : 0/0
  3200 ;;		On exit  : 0/0
  3201 ;;		Unchanged: 0/0
  3202 ;; Data sizes:     COMRAM   BANK0   BANK1   BANK2   BANK3   BANK4   BANK5   BANK6   BANK7   BANK8   BANK9  BANK10  BANK1
      +1  BANK12  BANK13  BANK14  BANK15
  3203 ;;      Params:         0       0       0       0       0       0       0       0       0       0       0       0       
      +0       0       0       0       0
  3204 ;;      Locals:         0       0       0       0       0       0       0       0       0       0       0       0       
      +0       0       0       0       0
  3205 ;;      Temps:          0       0       0       0       0       0       0       0       0       0       0       0       
      +0       0       0       0       0
  3206 ;;      Totals:         0       0       0       0       0       0       0       0       0       0       0       0       
      +0       0       0       0       0
  3207 ;;Total ram usage:        0 bytes
  3208 ;; Hardware stack levels used: 1
  3209 ;; This function calls:
  3210 ;;		Nothing
  3211 ;; This function is called by:
  3212 ;;		_I2C_Write_Register
  3213 ;;		_BME280_Init
  3214 ;;		_BME280_Read_Compensation_Params
  3215 ;;		_BME280_Read_Temperature
  3216 ;;		_main
  3217 ;;		_I2C_Scan
  3218 ;; This function uses a non-reentrant model
  3219 ;;
  3220                           
  3221                           	psect	text26
  3222   002C70                     __ptext26:
  3223                           	callstack 0
  3224   002C70                     _i2c_start:
  3225                           	callstack 30
  3226   002C70                     
  3227                           ;i2c.c: 54:     PIR1bits.SSP1IF = 0;
  3228   002C70  969E               	bcf	158,3,c	;volatile
  3229                           
  3230                           ;i2c.c: 55:     SSP1CON2bits.SEN = 1;
  3231   002C72  80C5               	bsf	197,0,c	;volatile
  3232   002C74                     l38:
  3233   002C74  A69E               	btfss	158,3,c	;volatile
  3234   002C76  EF3F  F016         	goto	u1831
  3235   002C7A  EF41  F016         	goto	u1830
  3236   002C7E                     u1831:
  3237   002C7E  EF3A  F016         	goto	l38
  3238   002C82                     u1830:
  3239   002C82  0012               	return		;funcret
  3240   002C84                     __end_of_i2c_start:
  3241                           	callstack 0
  3242                           
  3243 ;; *************** function _BME280_Compensate_Temperature *****************
  3244 ;; Defined at:
  3245 ;;		line 214 in file "mesure_temp.c"
  3246 ;; Parameters:    Size  Location     Type
  3247 ;;  adc_T           4   65[COMRAM] long 
  3248 ;; Auto vars:     Size  Location     Type
  3249 ;;  var2            4   85[COMRAM] long 
  3250 ;;  var1            4   81[COMRAM] long 
  3251 ;;  temperature     4   73[COMRAM] long 
  3252 ;;  t_fine          4    0        long 
  3253 ;;  temperature_    4   69[COMRAM] long 
  3254 ;;  temperature_    4    0        long 
  3255 ;; Return value:  Size  Location     Type
  3256 ;;                  4   65[COMRAM] long 
  3257 ;; Registers used:
  3258 ;;		wreg, fsr2l, fsr2h, status,2, status,0, prodl, prodh, cstack
  3259 ;; Tracked objects:
  3260 ;;		On entry : 0/0
  3261 ;;		On exit  : 0/0
  3262 ;;		Unchanged: 0/0
  3263 ;; Data sizes:     COMRAM   BANK0   BANK1   BANK2   BANK3   BANK4   BANK5   BANK6   BANK7   BANK8   BANK9  BANK10  BANK1
      +1  BANK12  BANK13  BANK14  BANK15
  3264 ;;      Params:         4       0       0       0       0       0       0       0       0       0       0       0       
      +0       0       0       0       0
  3265 ;;      Locals:        20       0       0       0       0       0       0       0       0       0       0       0       
      +0       0       0       0       0
  3266 ;;      Temps:          0       0       0       0       0       0       0       0       0       0       0       0       
      +0       0       0       0       0
  3267 ;;      Totals:        24       0       0       0       0       0       0       0       0       0       0       0       
      +0       0       0       0       0
  3268 ;;Total ram usage:       24 bytes
  3269 ;; Hardware stack levels used: 1
  3270 ;; Hardware stack levels required when called: 2
  3271 ;; This function calls:
  3272 ;;		___fladd
  3273 ;;		___fldiv
  3274 ;;		___flmul
  3275 ;;		___flsub
  3276 ;;		___fltol
  3277 ;;		___xxtofl
  3278 ;; This function is called by:
  3279 ;;		_main
  3280 ;; This function uses a non-reentrant model
  3281 ;;
  3282                           
  3283                           	psect	text27
  3284   001C9C                     __ptext27:
  3285                           	callstack 0
  3286   001C9C                     _BME280_Compensate_Temperature:
  3287                           	callstack 28
  3288   001C9C                     
  3289                           ;mesure_temp.c: 244:     double temperature_max = 85;double t_fine;
  3290   001C9C  0E00               	movlw	0
  3291   001C9E  6E46               	movwf	BME280_Compensate_Temperature@temperature_max^0,c
  3292   001CA0  0E00               	movlw	0
  3293   001CA2  6E47               	movwf	(BME280_Compensate_Temperature@temperature_max+1)^0,c
  3294   001CA4  0EAA               	movlw	170
  3295   001CA6  6E48               	movwf	(BME280_Compensate_Temperature@temperature_max+2)^0,c
  3296   001CA8  0E42               	movlw	66
  3297   001CAA  6E49               	movwf	(BME280_Compensate_Temperature@temperature_max+3)^0,c
  3298   001CAC                     
  3299                           ;mesure_temp.c: 246:     var1 = (((double)adc_T) / 16384.0 - ((double)compParams.dig_T1)
      +                           / 1024.0);
  3300   001CAC  0E00               	movlw	0
  3301   001CAE  6E23               	movwf	___fldiv@a^0,c
  3302   001CB0  0E00               	movlw	0
  3303   001CB2  6E24               	movwf	(___fldiv@a+1)^0,c
  3304   001CB4  0E80               	movlw	128
  3305   001CB6  6E25               	movwf	(___fldiv@a+2)^0,c
  3306   001CB8  0E46               	movlw	70
  3307   001CBA  6E26               	movwf	(___fldiv@a+3)^0,c
  3308   001CBC  C042  F011         	movff	BME280_Compensate_Temperature@adc_T,___xxtofl@val
  3309   001CC0  C043  F012         	movff	BME280_Compensate_Temperature@adc_T+1,___xxtofl@val+1
  3310   001CC4  C044  F013         	movff	BME280_Compensate_Temperature@adc_T+2,___xxtofl@val+2
  3311   001CC8  C045  F014         	movff	BME280_Compensate_Temperature@adc_T+3,___xxtofl@val+3
  3312   001CCC  0E01               	movlw	1
  3313   001CCE  ECCC  F010         	call	___xxtofl
  3314   001CD2  C011  F01F         	movff	?___xxtofl,___fldiv@b
  3315   001CD6  C012  F020         	movff	?___xxtofl+1,___fldiv@b+1
  3316   001CDA  C013  F021         	movff	?___xxtofl+2,___fldiv@b+2
  3317   001CDE  C014  F022         	movff	?___xxtofl+3,___fldiv@b+3
  3318   001CE2  EC81  F00C         	call	___fldiv	;wreg free
  3319   001CE6  C01F  F038         	movff	?___fldiv,___flsub@b
  3320   001CEA  C020  F039         	movff	?___fldiv+1,___flsub@b+1
  3321   001CEE  C021  F03A         	movff	?___fldiv+2,___flsub@b+2
  3322   001CF2  C022  F03B         	movff	?___fldiv+3,___flsub@b+3
  3323   001CF6  0E00               	movlw	0
  3324   001CF8  6E23               	movwf	___fldiv@a^0,c
  3325   001CFA  0E00               	movlw	0
  3326   001CFC  6E24               	movwf	(___fldiv@a+1)^0,c
  3327   001CFE  0E80               	movlw	128
  3328   001D00  6E25               	movwf	(___fldiv@a+2)^0,c
  3329   001D02  0E44               	movlw	68
  3330   001D04  6E26               	movwf	(___fldiv@a+3)^0,c
  3331   001D06  C060  F011         	movff	_compParams,___xxtofl@val
  3332   001D0A  C061  F012         	movff	_compParams+1,___xxtofl@val+1
  3333   001D0E  6A13               	clrf	(___xxtofl@val+2)^0,c
  3334   001D10  6A14               	clrf	(___xxtofl@val+3)^0,c
  3335   001D12  0E00               	movlw	0
  3336   001D14  ECCC  F010         	call	___xxtofl
  3337   001D18  C011  F01F         	movff	?___xxtofl,___fldiv@b
  3338   001D1C  C012  F020         	movff	?___xxtofl+1,___fldiv@b+1
  3339   001D20  C013  F021         	movff	?___xxtofl+2,___fldiv@b+2
  3340   001D24  C014  F022         	movff	?___xxtofl+3,___fldiv@b+3
  3341   001D28  EC81  F00C         	call	___fldiv	;wreg free
  3342   001D2C  C01F  F03C         	movff	?___fldiv,___flsub@a
  3343   001D30  C020  F03D         	movff	?___fldiv+1,___flsub@a+1
  3344   001D34  C021  F03E         	movff	?___fldiv+2,___flsub@a+2
  3345   001D38  C022  F03F         	movff	?___fldiv+3,___flsub@a+3
  3346   001D3C  EC28  F015         	call	___flsub	;wreg free
  3347   001D40  C038  F052         	movff	?___flsub,BME280_Compensate_Temperature@var1
  3348   001D44  C039  F053         	movff	?___flsub+1,BME280_Compensate_Temperature@var1+1
  3349   001D48  C03A  F054         	movff	?___flsub+2,BME280_Compensate_Temperature@var1+2
  3350   001D4C  C03B  F055         	movff	?___flsub+3,BME280_Compensate_Temperature@var1+3
  3351   001D50                     
  3352                           ;mesure_temp.c: 247:     var1 = var1 * ((double)compParams.dig_T2);
  3353   001D50  EE20  F062         	lfsr	2,_compParams+2
  3354   001D54  CFDE F011          	movff	postinc2,___xxtofl@val
  3355   001D58  CFDD F012          	movff	postdec2,___xxtofl@val+1
  3356   001D5C  0E00               	movlw	0
  3357   001D5E  BE12               	btfsc	(___xxtofl@val+1)^0,7,c
  3358   001D60  0EFF               	movlw	-1
  3359   001D62  6E13               	movwf	(___xxtofl@val+2)^0,c
  3360   001D64  6E14               	movwf	(___xxtofl@val+3)^0,c
  3361   001D66  0E01               	movlw	1
  3362   001D68  ECCC  F010         	call	___xxtofl
  3363   001D6C  C011  F01F         	movff	?___xxtofl,___flmul@b
  3364   001D70  C012  F020         	movff	?___xxtofl+1,___flmul@b+1
  3365   001D74  C013  F021         	movff	?___xxtofl+2,___flmul@b+2
  3366   001D78  C014  F022         	movff	?___xxtofl+3,___flmul@b+3
  3367   001D7C  C052  F023         	movff	BME280_Compensate_Temperature@var1,___flmul@a
  3368   001D80  C053  F024         	movff	BME280_Compensate_Temperature@var1+1,___flmul@a+1
  3369   001D84  C054  F025         	movff	BME280_Compensate_Temperature@var1+2,___flmul@a+2
  3370   001D88  C055  F026         	movff	BME280_Compensate_Temperature@var1+3,___flmul@a+3
  3371   001D8C  EC6C  F00A         	call	___flmul	;wreg free
  3372   001D90  C01F  F052         	movff	?___flmul,BME280_Compensate_Temperature@var1
  3373   001D94  C020  F053         	movff	?___flmul+1,BME280_Compensate_Temperature@var1+1
  3374   001D98  C021  F054         	movff	?___flmul+2,BME280_Compensate_Temperature@var1+2
  3375   001D9C  C022  F055         	movff	?___flmul+3,BME280_Compensate_Temperature@var1+3
  3376   001DA0                     
  3377                           ;mesure_temp.c: 248:     var2 = (((double)adc_T) / 131072.0 - ((double)compParams.dig_T1
      +                          ) / 8192.0);
  3378   001DA0  0E00               	movlw	0
  3379   001DA2  6E23               	movwf	___fldiv@a^0,c
  3380   001DA4  0E00               	movlw	0
  3381   001DA6  6E24               	movwf	(___fldiv@a+1)^0,c
  3382   001DA8  0E00               	movlw	0
  3383   001DAA  6E25               	movwf	(___fldiv@a+2)^0,c
  3384   001DAC  0E48               	movlw	72
  3385   001DAE  6E26               	movwf	(___fldiv@a+3)^0,c
  3386   001DB0  C042  F011         	movff	BME280_Compensate_Temperature@adc_T,___xxtofl@val
  3387   001DB4  C043  F012         	movff	BME280_Compensate_Temperature@adc_T+1,___xxtofl@val+1
  3388   001DB8  C044  F013         	movff	BME280_Compensate_Temperature@adc_T+2,___xxtofl@val+2
  3389   001DBC  C045  F014         	movff	BME280_Compensate_Temperature@adc_T+3,___xxtofl@val+3
  3390   001DC0  0E01               	movlw	1
  3391   001DC2  ECCC  F010         	call	___xxtofl
  3392   001DC6  C011  F01F         	movff	?___xxtofl,___fldiv@b
  3393   001DCA  C012  F020         	movff	?___xxtofl+1,___fldiv@b+1
  3394   001DCE  C013  F021         	movff	?___xxtofl+2,___fldiv@b+2
  3395   001DD2  C014  F022         	movff	?___xxtofl+3,___fldiv@b+3
  3396   001DD6  EC81  F00C         	call	___fldiv	;wreg free
  3397   001DDA  C01F  F038         	movff	?___fldiv,___flsub@b
  3398   001DDE  C020  F039         	movff	?___fldiv+1,___flsub@b+1
  3399   001DE2  C021  F03A         	movff	?___fldiv+2,___flsub@b+2
  3400   001DE6  C022  F03B         	movff	?___fldiv+3,___flsub@b+3
  3401   001DEA  0E00               	movlw	0
  3402   001DEC  6E23               	movwf	___fldiv@a^0,c
  3403   001DEE  0E00               	movlw	0
  3404   001DF0  6E24               	movwf	(___fldiv@a+1)^0,c
  3405   001DF2  0E00               	movlw	0
  3406   001DF4  6E25               	movwf	(___fldiv@a+2)^0,c
  3407   001DF6  0E46               	movlw	70
  3408   001DF8  6E26               	movwf	(___fldiv@a+3)^0,c
  3409   001DFA  C060  F011         	movff	_compParams,___xxtofl@val
  3410   001DFE  C061  F012         	movff	_compParams+1,___xxtofl@val+1
  3411   001E02  6A13               	clrf	(___xxtofl@val+2)^0,c
  3412   001E04  6A14               	clrf	(___xxtofl@val+3)^0,c
  3413   001E06  0E00               	movlw	0
  3414   001E08  ECCC  F010         	call	___xxtofl
  3415   001E0C  C011  F01F         	movff	?___xxtofl,___fldiv@b
  3416   001E10  C012  F020         	movff	?___xxtofl+1,___fldiv@b+1
  3417   001E14  C013  F021         	movff	?___xxtofl+2,___fldiv@b+2
  3418   001E18  C014  F022         	movff	?___xxtofl+3,___fldiv@b+3
  3419   001E1C  EC81  F00C         	call	___fldiv	;wreg free
  3420   001E20  C01F  F03C         	movff	?___fldiv,___flsub@a
  3421   001E24  C020  F03D         	movff	?___fldiv+1,___flsub@a+1
  3422   001E28  C021  F03E         	movff	?___fldiv+2,___flsub@a+2
  3423   001E2C  C022  F03F         	movff	?___fldiv+3,___flsub@a+3
  3424   001E30  EC28  F015         	call	___flsub	;wreg free
  3425   001E34  C038  F056         	movff	?___flsub,BME280_Compensate_Temperature@var2
  3426   001E38  C039  F057         	movff	?___flsub+1,BME280_Compensate_Temperature@var2+1
  3427   001E3C  C03A  F058         	movff	?___flsub+2,BME280_Compensate_Temperature@var2+2
  3428   001E40  C03B  F059         	movff	?___flsub+3,BME280_Compensate_Temperature@var2+3
  3429   001E44                     
  3430                           ;mesure_temp.c: 249:     var2 = (var2 * var2) * ((double)compParams.dig_T3);
  3431   001E44  C056  F023         	movff	BME280_Compensate_Temperature@var2,___flmul@a
  3432   001E48  C057  F024         	movff	BME280_Compensate_Temperature@var2+1,___flmul@a+1
  3433   001E4C  C058  F025         	movff	BME280_Compensate_Temperature@var2+2,___flmul@a+2
  3434   001E50  C059  F026         	movff	BME280_Compensate_Temperature@var2+3,___flmul@a+3
  3435   001E54  C056  F01F         	movff	BME280_Compensate_Temperature@var2,___flmul@b
  3436   001E58  C057  F020         	movff	BME280_Compensate_Temperature@var2+1,___flmul@b+1
  3437   001E5C  C058  F021         	movff	BME280_Compensate_Temperature@var2+2,___flmul@b+2
  3438   001E60  C059  F022         	movff	BME280_Compensate_Temperature@var2+3,___flmul@b+3
  3439   001E64  EC6C  F00A         	call	___flmul	;wreg free
  3440   001E68  C01F  F04E         	movff	?___flmul,_BME280_Compensate_Temperature$1705
  3441   001E6C  C020  F04F         	movff	?___flmul+1,_BME280_Compensate_Temperature$1705+1
  3442   001E70  C021  F050         	movff	?___flmul+2,_BME280_Compensate_Temperature$1705+2
  3443   001E74  C022  F051         	movff	?___flmul+3,_BME280_Compensate_Temperature$1705+3
  3444   001E78                     
  3445                           ;mesure_temp.c: 249:     var2 = (var2 * var2) * ((double)compParams.dig_T3);
  3446   001E78  C04E  F01F         	movff	_BME280_Compensate_Temperature$1705,___flmul@b
  3447   001E7C  C04F  F020         	movff	_BME280_Compensate_Temperature$1705+1,___flmul@b+1
  3448   001E80  C050  F021         	movff	_BME280_Compensate_Temperature$1705+2,___flmul@b+2
  3449   001E84  C051  F022         	movff	_BME280_Compensate_Temperature$1705+3,___flmul@b+3
  3450   001E88  EE20  F064         	lfsr	2,_compParams+4
  3451   001E8C  CFDE F011          	movff	postinc2,___xxtofl@val
  3452   001E90  CFDD F012          	movff	postdec2,___xxtofl@val+1
  3453   001E94  0E00               	movlw	0
  3454   001E96  BE12               	btfsc	(___xxtofl@val+1)^0,7,c
  3455   001E98  0EFF               	movlw	-1
  3456   001E9A  6E13               	movwf	(___xxtofl@val+2)^0,c
  3457   001E9C  6E14               	movwf	(___xxtofl@val+3)^0,c
  3458   001E9E  0E01               	movlw	1
  3459   001EA0  ECCC  F010         	call	___xxtofl
  3460   001EA4  C011  F023         	movff	?___xxtofl,___flmul@a
  3461   001EA8  C012  F024         	movff	?___xxtofl+1,___flmul@a+1
  3462   001EAC  C013  F025         	movff	?___xxtofl+2,___flmul@a+2
  3463   001EB0  C014  F026         	movff	?___xxtofl+3,___flmul@a+3
  3464   001EB4  EC6C  F00A         	call	___flmul	;wreg free
  3465   001EB8  C01F  F056         	movff	?___flmul,BME280_Compensate_Temperature@var2
  3466   001EBC  C020  F057         	movff	?___flmul+1,BME280_Compensate_Temperature@var2+1
  3467   001EC0  C021  F058         	movff	?___flmul+2,BME280_Compensate_Temperature@var2+2
  3468   001EC4  C022  F059         	movff	?___flmul+3,BME280_Compensate_Temperature@var2+3
  3469   001EC8  C056  F005         	movff	BME280_Compensate_Temperature@var2,___fladd@a
  3470   001ECC  C057  F006         	movff	BME280_Compensate_Temperature@var2+1,___fladd@a+1
  3471   001ED0  C058  F007         	movff	BME280_Compensate_Temperature@var2+2,___fladd@a+2
  3472   001ED4  C059  F008         	movff	BME280_Compensate_Temperature@var2+3,___fladd@a+3
  3473   001ED8  C052  F001         	movff	BME280_Compensate_Temperature@var1,___fladd@b
  3474   001EDC  C053  F002         	movff	BME280_Compensate_Temperature@var1+1,___fladd@b+1
  3475   001EE0  C054  F003         	movff	BME280_Compensate_Temperature@var1+2,___fladd@b+2
  3476   001EE4  C055  F004         	movff	BME280_Compensate_Temperature@var1+3,___fladd@b+3
  3477   001EE8  EC0C  F008         	call	___fladd	;wreg free
  3478   001EEC  C001  F038         	movff	?___fladd,___fltol@f1
  3479   001EF0  C002  F039         	movff	?___fladd+1,___fltol@f1+1
  3480   001EF4  C003  F03A         	movff	?___fladd+2,___fltol@f1+2
  3481   001EF8  C004  F03B         	movff	?___fladd+3,___fltol@f1+3
  3482   001EFC  ECA6  F011         	call	___fltol	;wreg free
  3483   001F00  C038  F011         	movff	?___fltol,___xxtofl@val
  3484   001F04  C039  F012         	movff	?___fltol+1,___xxtofl@val+1
  3485   001F08  C03A  F013         	movff	?___fltol+2,___xxtofl@val+2
  3486   001F0C  C03B  F014         	movff	?___fltol+3,___xxtofl@val+3
  3487   001F10  0E01               	movlw	1
  3488   001F12  ECCC  F010         	call	___xxtofl
  3489   001F16                     
  3490                           ;mesure_temp.c: 251:     temperature = (var1 + var2) / 5120.0;
  3491   001F16  C056  F005         	movff	BME280_Compensate_Temperature@var2,___fladd@a
  3492   001F1A  C057  F006         	movff	BME280_Compensate_Temperature@var2+1,___fladd@a+1
  3493   001F1E  C058  F007         	movff	BME280_Compensate_Temperature@var2+2,___fladd@a+2
  3494   001F22  C059  F008         	movff	BME280_Compensate_Temperature@var2+3,___fladd@a+3
  3495   001F26  C052  F001         	movff	BME280_Compensate_Temperature@var1,___fladd@b
  3496   001F2A  C053  F002         	movff	BME280_Compensate_Temperature@var1+1,___fladd@b+1
  3497   001F2E  C054  F003         	movff	BME280_Compensate_Temperature@var1+2,___fladd@b+2
  3498   001F32  C055  F004         	movff	BME280_Compensate_Temperature@var1+3,___fladd@b+3
  3499   001F36  EC0C  F008         	call	___fladd	;wreg free
  3500   001F3A  C001  F01F         	movff	?___fladd,___fldiv@b
  3501   001F3E  C002  F020         	movff	?___fladd+1,___fldiv@b+1
  3502   001F42  C003  F021         	movff	?___fladd+2,___fldiv@b+2
  3503   001F46  C004  F022         	movff	?___fladd+3,___fldiv@b+3
  3504   001F4A  0E00               	movlw	0
  3505   001F4C  6E23               	movwf	___fldiv@a^0,c
  3506   001F4E  0E00               	movlw	0
  3507   001F50  6E24               	movwf	(___fldiv@a+1)^0,c
  3508   001F52  0EA0               	movlw	160
  3509   001F54  6E25               	movwf	(___fldiv@a+2)^0,c
  3510   001F56  0E45               	movlw	69
  3511   001F58  6E26               	movwf	(___fldiv@a+3)^0,c
  3512   001F5A  EC81  F00C         	call	___fldiv	;wreg free
  3513   001F5E  C01F  F04A         	movff	?___fldiv,BME280_Compensate_Temperature@temperature
  3514   001F62  C020  F04B         	movff	?___fldiv+1,BME280_Compensate_Temperature@temperature+1
  3515   001F66  C021  F04C         	movff	?___fldiv+2,BME280_Compensate_Temperature@temperature+2
  3516   001F6A  C022  F04D         	movff	?___fldiv+3,BME280_Compensate_Temperature@temperature+3
  3517   001F6E                     
  3518                           ;mesure_temp.c: 262:     return temperature;
  3519   001F6E  C04A  F042         	movff	BME280_Compensate_Temperature@temperature,?_BME280_Compensate_Temperature
  3520   001F72  C04B  F043         	movff	BME280_Compensate_Temperature@temperature+1,?_BME280_Compensate_Temperature+1
  3521   001F76  C04C  F044         	movff	BME280_Compensate_Temperature@temperature+2,?_BME280_Compensate_Temperature+2
  3522   001F7A  C04D  F045         	movff	BME280_Compensate_Temperature@temperature+3,?_BME280_Compensate_Temperature+3
  3523   001F7E  0012               	return		;funcret
  3524   001F80                     __end_of_BME280_Compensate_Temperature:
  3525                           	callstack 0
  3526                           
  3527 ;; *************** function ___xxtofl *****************
  3528 ;; Defined at:
  3529 ;;		line 10 in file "/opt/microchip/xc8/v2.46/pic/sources/c99/common/xxtofl.c"
  3530 ;; Parameters:    Size  Location     Type
  3531 ;;  sign            1    wreg     unsigned char 
  3532 ;;  val             4   16[COMRAM] long 
  3533 ;; Auto vars:     Size  Location     Type
  3534 ;;  sign            1   24[COMRAM] unsigned char 
  3535 ;;  arg             4   26[COMRAM] unsigned long 
  3536 ;;  exp             1   25[COMRAM] unsigned char 
  3537 ;; Return value:  Size  Location     Type
  3538 ;;                  4   16[COMRAM] unsigned char 
  3539 ;; Registers used:
  3540 ;;		wreg, status,2, status,0
  3541 ;; Tracked objects:
  3542 ;;		On entry : 0/0
  3543 ;;		On exit  : 0/0
  3544 ;;		Unchanged: 0/0
  3545 ;; Data sizes:     COMRAM   BANK0   BANK1   BANK2   BANK3   BANK4   BANK5   BANK6   BANK7   BANK8   BANK9  BANK10  BANK1
      +1  BANK12  BANK13  BANK14  BANK15
  3546 ;;      Params:         4       0       0       0       0       0       0       0       0       0       0       0       
      +0       0       0       0       0
  3547 ;;      Locals:         6       0       0       0       0       0       0       0       0       0       0       0       
      +0       0       0       0       0
  3548 ;;      Temps:          4       0       0       0       0       0       0       0       0       0       0       0       
      +0       0       0       0       0
  3549 ;;      Totals:        14       0       0       0       0       0       0       0       0       0       0       0       
      +0       0       0       0       0
  3550 ;;Total ram usage:       14 bytes
  3551 ;; Hardware stack levels used: 1
  3552 ;; This function calls:
  3553 ;;		Nothing
  3554 ;; This function is called by:
  3555 ;;		_BME280_Compensate_Temperature
  3556 ;; This function uses a non-reentrant model
  3557 ;;
  3558                           
  3559                           	psect	text28
  3560   002198                     __ptext28:
  3561                           	callstack 0
  3562   002198                     ___xxtofl:
  3563                           	callstack 29
  3564                           
  3565                           ;incstack = 0
  3566                           ;___xxtofl@sign stored from wreg
  3567   002198  6E19               	movwf	___xxtofl@sign^0,c
  3568   00219A  5019               	movf	___xxtofl@sign^0,w,c
  3569   00219C  B4D8               	btfsc	status,2,c
  3570   00219E  EFD3  F010         	goto	u2441
  3571   0021A2  EFD5  F010         	goto	u2440
  3572   0021A6                     u2441:
  3573   0021A6  EFF7  F010         	goto	l889
  3574   0021AA                     u2440:
  3575   0021AA  BE14               	btfsc	(___xxtofl@val+3)^0,7,c
  3576   0021AC  EFDC  F010         	goto	u2450
  3577   0021B0  EFDA  F010         	goto	u2451
  3578   0021B4                     u2451:
  3579   0021B4  EFF7  F010         	goto	l889
  3580   0021B8                     u2450:
  3581   0021B8  C011  F015         	movff	___xxtofl@val,??___xxtofl
  3582   0021BC  C012  F016         	movff	___xxtofl@val+1,??___xxtofl+1
  3583   0021C0  C013  F017         	movff	___xxtofl@val+2,??___xxtofl+2
  3584   0021C4  C014  F018         	movff	___xxtofl@val+3,??___xxtofl+3
  3585   0021C8  1E15               	comf	??___xxtofl^0,f,c
  3586   0021CA  1E16               	comf	(??___xxtofl+1)^0,f,c
  3587   0021CC  1E17               	comf	(??___xxtofl+2)^0,f,c
  3588   0021CE  1E18               	comf	(??___xxtofl+3)^0,f,c
  3589   0021D0  2A15               	incf	??___xxtofl^0,f,c
  3590   0021D2  0E00               	movlw	0
  3591   0021D4  2216               	addwfc	(??___xxtofl+1)^0,f,c
  3592   0021D6  2217               	addwfc	(??___xxtofl+2)^0,f,c
  3593   0021D8  2218               	addwfc	(??___xxtofl+3)^0,f,c
  3594   0021DA  C015  F01B         	movff	??___xxtofl,___xxtofl@arg
  3595   0021DE  C016  F01C         	movff	??___xxtofl+1,___xxtofl@arg+1
  3596   0021E2  C017  F01D         	movff	??___xxtofl+2,___xxtofl@arg+2
  3597   0021E6  C018  F01E         	movff	??___xxtofl+3,___xxtofl@arg+3
  3598   0021EA  EFFF  F010         	goto	l2701
  3599   0021EE                     l889:
  3600   0021EE  C011  F01B         	movff	___xxtofl@val,___xxtofl@arg
  3601   0021F2  C012  F01C         	movff	___xxtofl@val+1,___xxtofl@arg+1
  3602   0021F6  C013  F01D         	movff	___xxtofl@val+2,___xxtofl@arg+2
  3603   0021FA  C014  F01E         	movff	___xxtofl@val+3,___xxtofl@arg+3
  3604   0021FE                     l2701:
  3605   0021FE  5011               	movf	___xxtofl@val^0,w,c
  3606   002200  1012               	iorwf	(___xxtofl@val+1)^0,w,c
  3607   002202  1013               	iorwf	(___xxtofl@val+2)^0,w,c
  3608   002204  1014               	iorwf	(___xxtofl@val+3)^0,w,c
  3609   002206  A4D8               	btfss	status,2,c
  3610   002208  EF08  F011         	goto	u2461
  3611   00220C  EF0A  F011         	goto	u2460
  3612   002210                     u2461:
  3613   002210  EF14  F011         	goto	l2707
  3614   002214                     u2460:
  3615   002214  0E00               	movlw	0
  3616   002216  6E11               	movwf	?___xxtofl^0,c
  3617   002218  0E00               	movlw	0
  3618   00221A  6E12               	movwf	(?___xxtofl+1)^0,c
  3619   00221C  0E00               	movlw	0
  3620   00221E  6E13               	movwf	(?___xxtofl+2)^0,c
  3621   002220  0E00               	movlw	0
  3622   002222  6E14               	movwf	(?___xxtofl+3)^0,c
  3623   002224  EFA5  F011         	goto	l892
  3624   002228                     l2707:
  3625   002228  0E96               	movlw	150
  3626   00222A  6E1A               	movwf	___xxtofl@exp^0,c
  3627   00222C  EF1E  F011         	goto	l2711
  3628   002230                     l2709:
  3629   002230  2A1A               	incf	___xxtofl@exp^0,f,c
  3630   002232  90D8               	bcf	status,0,c
  3631   002234  321E               	rrcf	(___xxtofl@arg+3)^0,f,c
  3632   002236  321D               	rrcf	(___xxtofl@arg+2)^0,f,c
  3633   002238  321C               	rrcf	(___xxtofl@arg+1)^0,f,c
  3634   00223A  321B               	rrcf	___xxtofl@arg^0,f,c
  3635   00223C                     l2711:
  3636   00223C  0E00               	movlw	0
  3637   00223E  141B               	andwf	___xxtofl@arg^0,w,c
  3638   002240  6E15               	movwf	??___xxtofl^0,c
  3639   002242  0E00               	movlw	0
  3640   002244  141C               	andwf	(___xxtofl@arg+1)^0,w,c
  3641   002246  6E16               	movwf	(??___xxtofl+1)^0,c
  3642   002248  0E00               	movlw	0
  3643   00224A  141D               	andwf	(___xxtofl@arg+2)^0,w,c
  3644   00224C  6E17               	movwf	(??___xxtofl+2)^0,c
  3645   00224E  0EFE               	movlw	254
  3646   002250  141E               	andwf	(___xxtofl@arg+3)^0,w,c
  3647   002252  6E18               	movwf	(??___xxtofl+3)^0,c
  3648   002254  5015               	movf	??___xxtofl^0,w,c
  3649   002256  1016               	iorwf	(??___xxtofl+1)^0,w,c
  3650   002258  1017               	iorwf	(??___xxtofl+2)^0,w,c
  3651   00225A  1018               	iorwf	(??___xxtofl+3)^0,w,c
  3652   00225C  A4D8               	btfss	status,2,c
  3653   00225E  EF33  F011         	goto	u2471
  3654   002262  EF35  F011         	goto	u2470
  3655   002266                     u2471:
  3656   002266  EF18  F011         	goto	l2709
  3657   00226A                     u2470:
  3658   00226A  EF43  F011         	goto	l896
  3659   00226E                     l2713:
  3660   00226E  2A1A               	incf	___xxtofl@exp^0,f,c
  3661   002270  0E01               	movlw	1
  3662   002272  261B               	addwf	___xxtofl@arg^0,f,c
  3663   002274  0E00               	movlw	0
  3664   002276  221C               	addwfc	(___xxtofl@arg+1)^0,f,c
  3665   002278  221D               	addwfc	(___xxtofl@arg+2)^0,f,c
  3666   00227A  221E               	addwfc	(___xxtofl@arg+3)^0,f,c
  3667   00227C  90D8               	bcf	status,0,c
  3668   00227E  321E               	rrcf	(___xxtofl@arg+3)^0,f,c
  3669   002280  321D               	rrcf	(___xxtofl@arg+2)^0,f,c
  3670   002282  321C               	rrcf	(___xxtofl@arg+1)^0,f,c
  3671   002284  321B               	rrcf	___xxtofl@arg^0,f,c
  3672   002286                     l896:
  3673   002286  0E00               	movlw	0
  3674   002288  141B               	andwf	___xxtofl@arg^0,w,c
  3675   00228A  6E15               	movwf	??___xxtofl^0,c
  3676   00228C  0E00               	movlw	0
  3677   00228E  141C               	andwf	(___xxtofl@arg+1)^0,w,c
  3678   002290  6E16               	movwf	(??___xxtofl+1)^0,c
  3679   002292  0E00               	movlw	0
  3680   002294  141D               	andwf	(___xxtofl@arg+2)^0,w,c
  3681   002296  6E17               	movwf	(??___xxtofl+2)^0,c
  3682   002298  0EFF               	movlw	255
  3683   00229A  141E               	andwf	(___xxtofl@arg+3)^0,w,c
  3684   00229C  6E18               	movwf	(??___xxtofl+3)^0,c
  3685   00229E  5015               	movf	??___xxtofl^0,w,c
  3686   0022A0  1016               	iorwf	(??___xxtofl+1)^0,w,c
  3687   0022A2  1017               	iorwf	(??___xxtofl+2)^0,w,c
  3688   0022A4  1018               	iorwf	(??___xxtofl+3)^0,w,c
  3689   0022A6  A4D8               	btfss	status,2,c
  3690   0022A8  EF58  F011         	goto	u2481
  3691   0022AC  EF5A  F011         	goto	u2480
  3692   0022B0                     u2481:
  3693   0022B0  EF37  F011         	goto	l2713
  3694   0022B4                     u2480:
  3695   0022B4  EF62  F011         	goto	l2721
  3696   0022B8                     l2719:
  3697   0022B8  061A               	decf	___xxtofl@exp^0,f,c
  3698   0022BA  90D8               	bcf	status,0,c
  3699   0022BC  361B               	rlcf	___xxtofl@arg^0,f,c
  3700   0022BE  361C               	rlcf	(___xxtofl@arg+1)^0,f,c
  3701   0022C0  361D               	rlcf	(___xxtofl@arg+2)^0,f,c
  3702   0022C2  361E               	rlcf	(___xxtofl@arg+3)^0,f,c
  3703   0022C4                     l2721:
  3704   0022C4  BE1D               	btfsc	(___xxtofl@arg+2)^0,7,c
  3705   0022C6  EF67  F011         	goto	u2491
  3706   0022CA  EF69  F011         	goto	u2490
  3707   0022CE                     u2491:
  3708   0022CE  EF71  F011         	goto	l903
  3709   0022D2                     u2490:
  3710   0022D2  0E02               	movlw	2
  3711   0022D4  601A               	cpfslt	___xxtofl@exp^0,c
  3712   0022D6  EF6F  F011         	goto	u2501
  3713   0022DA  EF71  F011         	goto	u2500
  3714   0022DE                     u2501:
  3715   0022DE  EF5C  F011         	goto	l2719
  3716   0022E2                     u2500:
  3717   0022E2                     l903:
  3718   0022E2  B01A               	btfsc	___xxtofl@exp^0,0,c
  3719   0022E4  EF76  F011         	goto	u2511
  3720   0022E8  EF78  F011         	goto	u2510
  3721   0022EC                     u2511:
  3722   0022EC  EF79  F011         	goto	l2727
  3723   0022F0                     u2510:
  3724   0022F0  9E1D               	bcf	(___xxtofl@arg+2)^0,7,c
  3725   0022F2                     l2727:
  3726   0022F2  90D8               	bcf	status,0,c
  3727   0022F4  321A               	rrcf	___xxtofl@exp^0,f,c
  3728   0022F6  C01A  F015         	movff	___xxtofl@exp,??___xxtofl
  3729   0022FA  6A16               	clrf	(??___xxtofl+1)^0,c
  3730   0022FC  6A17               	clrf	(??___xxtofl+2)^0,c
  3731   0022FE  6A18               	clrf	(??___xxtofl+3)^0,c
  3732   002300  C015  F018         	movff	??___xxtofl,??___xxtofl+3
  3733   002304  6A17               	clrf	(??___xxtofl+2)^0,c
  3734   002306  6A16               	clrf	(??___xxtofl+1)^0,c
  3735   002308  6A15               	clrf	??___xxtofl^0,c
  3736   00230A  5015               	movf	??___xxtofl^0,w,c
  3737   00230C  121B               	iorwf	___xxtofl@arg^0,f,c
  3738   00230E  5016               	movf	(??___xxtofl+1)^0,w,c
  3739   002310  121C               	iorwf	(___xxtofl@arg+1)^0,f,c
  3740   002312  5017               	movf	(??___xxtofl+2)^0,w,c
  3741   002314  121D               	iorwf	(___xxtofl@arg+2)^0,f,c
  3742   002316  5018               	movf	(??___xxtofl+3)^0,w,c
  3743   002318  121E               	iorwf	(___xxtofl@arg+3)^0,f,c
  3744   00231A  5019               	movf	___xxtofl@sign^0,w,c
  3745   00231C  B4D8               	btfsc	status,2,c
  3746   00231E  EF93  F011         	goto	u2521
  3747   002322  EF95  F011         	goto	u2520
  3748   002326                     u2521:
  3749   002326  EF9D  F011         	goto	l2737
  3750   00232A                     u2520:
  3751   00232A  BE14               	btfsc	(___xxtofl@val+3)^0,7,c
  3752   00232C  EF9C  F011         	goto	u2530
  3753   002330  EF9A  F011         	goto	u2531
  3754   002334                     u2531:
  3755   002334  EF9D  F011         	goto	l2737
  3756   002338                     u2530:
  3757   002338  8E1E               	bsf	(___xxtofl@arg+3)^0,7,c
  3758   00233A                     l2737:
  3759   00233A  C01B  F011         	movff	___xxtofl@arg,?___xxtofl
  3760   00233E  C01C  F012         	movff	___xxtofl@arg+1,?___xxtofl+1
  3761   002342  C01D  F013         	movff	___xxtofl@arg+2,?___xxtofl+2
  3762   002346  C01E  F014         	movff	___xxtofl@arg+3,?___xxtofl+3
  3763   00234A                     l892:
  3764   00234A  0012               	return		;funcret
  3765   00234C                     __end_of___xxtofl:
  3766                           	callstack 0
  3767                           
  3768 ;; *************** function ___fltol *****************
  3769 ;; Defined at:
  3770 ;;		line 43 in file "/opt/microchip/xc8/v2.46/pic/sources/c99/common/fltol.c"
  3771 ;; Parameters:    Size  Location     Type
  3772 ;;  f1              4   55[COMRAM] unsigned char 
  3773 ;; Auto vars:     Size  Location     Type
  3774 ;;  exp1            1   64[COMRAM] unsigned char 
  3775 ;;  sign1           1   63[COMRAM] unsigned char 
  3776 ;; Return value:  Size  Location     Type
  3777 ;;                  4   55[COMRAM] long 
  3778 ;; Registers used:
  3779 ;;		wreg, status,2, status,0
  3780 ;; Tracked objects:
  3781 ;;		On entry : 0/0
  3782 ;;		On exit  : 0/0
  3783 ;;		Unchanged: 0/0
  3784 ;; Data sizes:     COMRAM   BANK0   BANK1   BANK2   BANK3   BANK4   BANK5   BANK6   BANK7   BANK8   BANK9  BANK10  BANK1
      +1  BANK12  BANK13  BANK14  BANK15
  3785 ;;      Params:         4       0       0       0       0       0       0       0       0       0       0       0       
      +0       0       0       0       0
  3786 ;;      Locals:         2       0       0       0       0       0       0       0       0       0       0       0       
      +0       0       0       0       0
  3787 ;;      Temps:          4       0       0       0       0       0       0       0       0       0       0       0       
      +0       0       0       0       0
  3788 ;;      Totals:        10       0       0       0       0       0       0       0       0       0       0       0       
      +0       0       0       0       0
  3789 ;;Total ram usage:       10 bytes
  3790 ;; Hardware stack levels used: 1
  3791 ;; This function calls:
  3792 ;;		Nothing
  3793 ;; This function is called by:
  3794 ;;		_LCDWriteFloat
  3795 ;;		_BME280_Compensate_Temperature
  3796 ;; This function uses a non-reentrant model
  3797 ;;
  3798                           
  3799                           	psect	text29
  3800   00234C                     __ptext29:
  3801                           	callstack 0
  3802   00234C                     ___fltol:
  3803                           	callstack 29
  3804   00234C  343A               	rlcf	(___fltol@f1+2)^0,w,c
  3805   00234E  343B               	rlcf	(___fltol@f1+3)^0,w,c
  3806   002350  6E41               	movwf	___fltol@exp1^0,c
  3807   002352  5041               	movf	___fltol@exp1^0,w,c
  3808   002354  A4D8               	btfss	status,2,c
  3809   002356  EFAF  F011         	goto	u2311
  3810   00235A  EFB1  F011         	goto	u2310
  3811   00235E                     u2311:
  3812   00235E  EFBB  F011         	goto	l2619
  3813   002362                     u2310:
  3814   002362                     l2615:
  3815   002362  0E00               	movlw	0
  3816   002364  6E38               	movwf	?___fltol^0,c
  3817   002366  0E00               	movlw	0
  3818   002368  6E39               	movwf	(?___fltol+1)^0,c
  3819   00236A  0E00               	movlw	0
  3820   00236C  6E3A               	movwf	(?___fltol+2)^0,c
  3821   00236E  0E00               	movlw	0
  3822   002370  6E3B               	movwf	(?___fltol+3)^0,c
  3823   002372  EF28  F012         	goto	l531
  3824   002376                     l2619:
  3825   002376  C038  F03C         	movff	___fltol@f1,??___fltol
  3826   00237A  C039  F03D         	movff	___fltol@f1+1,??___fltol+1
  3827   00237E  C03A  F03E         	movff	___fltol@f1+2,??___fltol+2
  3828   002382  C03B  F03F         	movff	___fltol@f1+3,??___fltol+3
  3829   002386  0E20               	movlw	32
  3830   002388  EFCB  F011         	goto	u2320
  3831   00238C                     u2325:
  3832   00238C  90D8               	bcf	status,0,c
  3833   00238E  323F               	rrcf	(??___fltol+3)^0,f,c
  3834   002390  323E               	rrcf	(??___fltol+2)^0,f,c
  3835   002392  323D               	rrcf	(??___fltol+1)^0,f,c
  3836   002394  323C               	rrcf	??___fltol^0,f,c
  3837   002396                     u2320:
  3838   002396  2EE8               	decfsz	wreg,f,c
  3839   002398  EFC6  F011         	goto	u2325
  3840   00239C  503C               	movf	??___fltol^0,w,c
  3841   00239E  6E40               	movwf	___fltol@sign1^0,c
  3842   0023A0  8E3A               	bsf	(___fltol@f1+2)^0,7,c
  3843   0023A2  0EFF               	movlw	255
  3844   0023A4  1638               	andwf	___fltol@f1^0,f,c
  3845   0023A6  0EFF               	movlw	255
  3846   0023A8  1639               	andwf	(___fltol@f1+1)^0,f,c
  3847   0023AA  0EFF               	movlw	255
  3848   0023AC  163A               	andwf	(___fltol@f1+2)^0,f,c
  3849   0023AE  0E00               	movlw	0
  3850   0023B0  163B               	andwf	(___fltol@f1+3)^0,f,c
  3851   0023B2  0E96               	movlw	150
  3852   0023B4  5E41               	subwf	___fltol@exp1^0,f,c
  3853   0023B6  BE41               	btfsc	___fltol@exp1^0,7,c
  3854   0023B8  EFE2  F011         	goto	u2330
  3855   0023BC  EFE0  F011         	goto	u2331
  3856   0023C0                     u2331:
  3857   0023C0  EFF8  F011         	goto	l2639
  3858   0023C4                     u2330:
  3859   0023C4  5041               	movf	___fltol@exp1^0,w,c
  3860   0023C6  0A80               	xorlw	128
  3861   0023C8  0F97               	addlw	151
  3862   0023CA  B0D8               	btfsc	status,0,c
  3863   0023CC  EFEA  F011         	goto	u2341
  3864   0023D0  EFEC  F011         	goto	u2340
  3865   0023D4                     u2341:
  3866   0023D4  EFEE  F011         	goto	l2635
  3867   0023D8                     u2340:
  3868   0023D8  EFB1  F011         	goto	l2615
  3869   0023DC                     l2635:
  3870   0023DC  90D8               	bcf	status,0,c
  3871   0023DE  323B               	rrcf	(___fltol@f1+3)^0,f,c
  3872   0023E0  323A               	rrcf	(___fltol@f1+2)^0,f,c
  3873   0023E2  3239               	rrcf	(___fltol@f1+1)^0,f,c
  3874   0023E4  3238               	rrcf	___fltol@f1^0,f,c
  3875   0023E6  3E41               	incfsz	___fltol@exp1^0,f,c
  3876   0023E8  EFEE  F011         	goto	l2635
  3877   0023EC  EF10  F012         	goto	l2649
  3878   0023F0                     l2639:
  3879   0023F0  0E1F               	movlw	31
  3880   0023F2  6441               	cpfsgt	___fltol@exp1^0,c
  3881   0023F4  EFFE  F011         	goto	u2351
  3882   0023F8  EF00  F012         	goto	u2350
  3883   0023FC                     u2351:
  3884   0023FC  EF08  F012         	goto	l2647
  3885   002400                     u2350:
  3886   002400  EFB1  F011         	goto	l2615
  3887   002404                     l2645:
  3888   002404  90D8               	bcf	status,0,c
  3889   002406  3638               	rlcf	___fltol@f1^0,f,c
  3890   002408  3639               	rlcf	(___fltol@f1+1)^0,f,c
  3891   00240A  363A               	rlcf	(___fltol@f1+2)^0,f,c
  3892   00240C  363B               	rlcf	(___fltol@f1+3)^0,f,c
  3893   00240E  0641               	decf	___fltol@exp1^0,f,c
  3894   002410                     l2647:
  3895   002410  5041               	movf	___fltol@exp1^0,w,c
  3896   002412  A4D8               	btfss	status,2,c
  3897   002414  EF0E  F012         	goto	u2361
  3898   002418  EF10  F012         	goto	u2360
  3899   00241C                     u2361:
  3900   00241C  EF02  F012         	goto	l2645
  3901   002420                     u2360:
  3902   002420                     l2649:
  3903   002420  5040               	movf	___fltol@sign1^0,w,c
  3904   002422  B4D8               	btfsc	status,2,c
  3905   002424  EF16  F012         	goto	u2371
  3906   002428  EF18  F012         	goto	u2370
  3907   00242C                     u2371:
  3908   00242C  EF20  F012         	goto	l2653
  3909   002430                     u2370:
  3910   002430  1E3B               	comf	(___fltol@f1+3)^0,f,c
  3911   002432  1E3A               	comf	(___fltol@f1+2)^0,f,c
  3912   002434  1E39               	comf	(___fltol@f1+1)^0,f,c
  3913   002436  6C38               	negf	___fltol@f1^0,c
  3914   002438  0E00               	movlw	0
  3915   00243A  2239               	addwfc	(___fltol@f1+1)^0,f,c
  3916   00243C  223A               	addwfc	(___fltol@f1+2)^0,f,c
  3917   00243E  223B               	addwfc	(___fltol@f1+3)^0,f,c
  3918   002440                     l2653:
  3919   002440  C038  F038         	movff	___fltol@f1,?___fltol
  3920   002444  C039  F039         	movff	___fltol@f1+1,?___fltol+1
  3921   002448  C03A  F03A         	movff	___fltol@f1+2,?___fltol+2
  3922   00244C  C03B  F03B         	movff	___fltol@f1+3,?___fltol+3
  3923   002450                     l531:
  3924   002450  0012               	return		;funcret
  3925   002452                     __end_of___fltol:
  3926                           	callstack 0
  3927                           
  3928 ;; *************** function ___flsub *****************
  3929 ;; Defined at:
  3930 ;;		line 245 in file "/opt/microchip/xc8/v2.46/pic/sources/c99/common/sprcadd.c"
  3931 ;; Parameters:    Size  Location     Type
  3932 ;;  b               4   55[COMRAM] long 
  3933 ;;  a               4   59[COMRAM] long 
  3934 ;; Auto vars:     Size  Location     Type
  3935 ;;		None
  3936 ;; Return value:  Size  Location     Type
  3937 ;;                  4   55[COMRAM] long 
  3938 ;; Registers used:
  3939 ;;		wreg, status,2, status,0, cstack
  3940 ;; Tracked objects:
  3941 ;;		On entry : 0/0
  3942 ;;		On exit  : 0/0
  3943 ;;		Unchanged: 0/0
  3944 ;; Data sizes:     COMRAM   BANK0   BANK1   BANK2   BANK3   BANK4   BANK5   BANK6   BANK7   BANK8   BANK9  BANK10  BANK1
      +1  BANK12  BANK13  BANK14  BANK15
  3945 ;;      Params:         8       0       0       0       0       0       0       0       0       0       0       0       
      +0       0       0       0       0
  3946 ;;      Locals:         0       0       0       0       0       0       0       0       0       0       0       0       
      +0       0       0       0       0
  3947 ;;      Temps:          0       0       0       0       0       0       0       0       0       0       0       0       
      +0       0       0       0       0
  3948 ;;      Totals:         8       0       0       0       0       0       0       0       0       0       0       0       
      +0       0       0       0       0
  3949 ;;Total ram usage:        8 bytes
  3950 ;; Hardware stack levels used: 1
  3951 ;; Hardware stack levels required when called: 1
  3952 ;; This function calls:
  3953 ;;		___fladd
  3954 ;; This function is called by:
  3955 ;;		_BME280_Compensate_Temperature
  3956 ;; This function uses a non-reentrant model
  3957 ;;
  3958                           
  3959                           	psect	text30
  3960   002A50                     __ptext30:
  3961                           	callstack 0
  3962   002A50                     ___flsub:
  3963                           	callstack 28
  3964   002A50  0E00               	movlw	0
  3965   002A52  1A3C               	xorwf	___flsub@a^0,f,c
  3966   002A54  0E00               	movlw	0
  3967   002A56  1A3D               	xorwf	(___flsub@a+1)^0,f,c
  3968   002A58  0E00               	movlw	0
  3969   002A5A  1A3E               	xorwf	(___flsub@a+2)^0,f,c
  3970   002A5C  0E80               	movlw	128
  3971   002A5E  1A3F               	xorwf	(___flsub@a+3)^0,f,c
  3972   002A60  C038  F001         	movff	___flsub@b,___fladd@b
  3973   002A64  C039  F002         	movff	___flsub@b+1,___fladd@b+1
  3974   002A68  C03A  F003         	movff	___flsub@b+2,___fladd@b+2
  3975   002A6C  C03B  F004         	movff	___flsub@b+3,___fladd@b+3
  3976   002A70  C03C  F005         	movff	___flsub@a,___fladd@a
  3977   002A74  C03D  F006         	movff	___flsub@a+1,___fladd@a+1
  3978   002A78  C03E  F007         	movff	___flsub@a+2,___fladd@a+2
  3979   002A7C  C03F  F008         	movff	___flsub@a+3,___fladd@a+3
  3980   002A80  EC0C  F008         	call	___fladd	;wreg free
  3981   002A84  C001  F038         	movff	?___fladd,?___flsub
  3982   002A88  C002  F039         	movff	?___fladd+1,?___flsub+1
  3983   002A8C  C003  F03A         	movff	?___fladd+2,?___flsub+2
  3984   002A90  C004  F03B         	movff	?___fladd+3,?___flsub+3
  3985   002A94  0012               	return		;funcret
  3986   002A96                     __end_of___flsub:
  3987                           	callstack 0
  3988                           
  3989 ;; *************** function ___fladd *****************
  3990 ;; Defined at:
  3991 ;;		line 10 in file "/opt/microchip/xc8/v2.46/pic/sources/c99/common/sprcadd.c"
  3992 ;; Parameters:    Size  Location     Type
  3993 ;;  b               4    0[COMRAM] long 
  3994 ;;  a               4    4[COMRAM] long 
  3995 ;; Auto vars:     Size  Location     Type
  3996 ;;  grs             1   15[COMRAM] unsigned char 
  3997 ;;  bexp            1   14[COMRAM] unsigned char 
  3998 ;;  aexp            1   13[COMRAM] unsigned char 
  3999 ;;  signs           1   12[COMRAM] unsigned char 
  4000 ;; Return value:  Size  Location     Type
  4001 ;;                  4    0[COMRAM] unsigned char 
  4002 ;; Registers used:
  4003 ;;		wreg, status,2, status,0
  4004 ;; Tracked objects:
  4005 ;;		On entry : 0/0
  4006 ;;		On exit  : 0/0
  4007 ;;		Unchanged: 0/0
  4008 ;; Data sizes:     COMRAM   BANK0   BANK1   BANK2   BANK3   BANK4   BANK5   BANK6   BANK7   BANK8   BANK9  BANK10  BANK1
      +1  BANK12  BANK13  BANK14  BANK15
  4009 ;;      Params:         8       0       0       0       0       0       0       0       0       0       0       0       
      +0       0       0       0       0
  4010 ;;      Locals:         4       0       0       0       0       0       0       0       0       0       0       0       
      +0       0       0       0       0
  4011 ;;      Temps:          4       0       0       0       0       0       0       0       0       0       0       0       
      +0       0       0       0       0
  4012 ;;      Totals:        16       0       0       0       0       0       0       0       0       0       0       0       
      +0       0       0       0       0
  4013 ;;Total ram usage:       16 bytes
  4014 ;; Hardware stack levels used: 1
  4015 ;; This function calls:
  4016 ;;		Nothing
  4017 ;; This function is called by:
  4018 ;;		_BME280_Compensate_Temperature
  4019 ;;		___flsub
  4020 ;; This function uses a non-reentrant model
  4021 ;;
  4022                           
  4023                           	psect	text31
  4024   001018                     __ptext31:
  4025                           	callstack 0
  4026   001018                     ___fladd:
  4027                           	callstack 28
  4028   001018  5004               	movf	(___fladd@b+3)^0,w,c
  4029   00101A  0B80               	andlw	128
  4030   00101C  6E0D               	movwf	___fladd@signs^0,c
  4031   00101E  5004               	movf	(___fladd@b+3)^0,w,c
  4032   001020  2404               	addwf	(___fladd@b+3)^0,w,c
  4033   001022  6E0F               	movwf	___fladd@bexp^0,c
  4034   001024  AE03               	btfss	(___fladd@b+2)^0,7,c
  4035   001026  EF17  F008         	goto	u1441
  4036   00102A  EF19  F008         	goto	u1440
  4037   00102E                     u1441:
  4038   00102E  EF1A  F008         	goto	l2101
  4039   001032                     u1440:
  4040   001032  800F               	bsf	___fladd@bexp^0,0,c
  4041   001034                     l2101:
  4042   001034  500F               	movf	___fladd@bexp^0,w,c
  4043   001036  B4D8               	btfsc	status,2,c
  4044   001038  EF20  F008         	goto	u1451
  4045   00103C  EF22  F008         	goto	u1450
  4046   001040                     u1451:
  4047   001040  EF37  F008         	goto	l2111
  4048   001044                     u1450:
  4049   001044  280F               	incf	___fladd@bexp^0,w,c
  4050   001046  A4D8               	btfss	status,2,c
  4051   001048  EF28  F008         	goto	u1461
  4052   00104C  EF2A  F008         	goto	u1460
  4053   001050                     u1461:
  4054   001050  EF32  F008         	goto	l2107
  4055   001054                     u1460:
  4056   001054  0E00               	movlw	0
  4057   001056  6E01               	movwf	___fladd@b^0,c
  4058   001058  0E00               	movlw	0
  4059   00105A  6E02               	movwf	(___fladd@b+1)^0,c
  4060   00105C  0E00               	movlw	0
  4061   00105E  6E03               	movwf	(___fladd@b+2)^0,c
  4062   001060  0E00               	movlw	0
  4063   001062  6E04               	movwf	(___fladd@b+3)^0,c
  4064   001064                     l2107:
  4065   001064  8E03               	bsf	(___fladd@b+2)^0,7,c
  4066   001066  0E00               	movlw	0
  4067   001068  6E04               	movwf	(___fladd@b+3)^0,c
  4068   00106A  EF3F  F008         	goto	l2113
  4069   00106E                     l2111:
  4070   00106E  0E00               	movlw	0
  4071   001070  6E01               	movwf	___fladd@b^0,c
  4072   001072  0E00               	movlw	0
  4073   001074  6E02               	movwf	(___fladd@b+1)^0,c
  4074   001076  0E00               	movlw	0
  4075   001078  6E03               	movwf	(___fladd@b+2)^0,c
  4076   00107A  0E00               	movlw	0
  4077   00107C  6E04               	movwf	(___fladd@b+3)^0,c
  4078   00107E                     l2113:
  4079   00107E  5008               	movf	(___fladd@a+3)^0,w,c
  4080   001080  0B80               	andlw	128
  4081   001082  6E0E               	movwf	___fladd@aexp^0,c
  4082   001084  500D               	movf	___fladd@signs^0,w,c
  4083   001086  180E               	xorwf	___fladd@aexp^0,w,c
  4084   001088  B4D8               	btfsc	status,2,c
  4085   00108A  EF49  F008         	goto	u1471
  4086   00108E  EF4B  F008         	goto	u1470
  4087   001092                     u1471:
  4088   001092  EF4C  F008         	goto	l2119
  4089   001096                     u1470:
  4090   001096  8C0D               	bsf	___fladd@signs^0,6,c
  4091   001098                     l2119:
  4092   001098  5008               	movf	(___fladd@a+3)^0,w,c
  4093   00109A  2408               	addwf	(___fladd@a+3)^0,w,c
  4094   00109C  6E0E               	movwf	___fladd@aexp^0,c
  4095   00109E  AE07               	btfss	(___fladd@a+2)^0,7,c
  4096   0010A0  EF54  F008         	goto	u1481
  4097   0010A4  EF56  F008         	goto	u1480
  4098   0010A8                     u1481:
  4099   0010A8  EF57  F008         	goto	l2125
  4100   0010AC                     u1480:
  4101   0010AC  800E               	bsf	___fladd@aexp^0,0,c
  4102   0010AE                     l2125:
  4103   0010AE  500E               	movf	___fladd@aexp^0,w,c
  4104   0010B0  B4D8               	btfsc	status,2,c
  4105   0010B2  EF5D  F008         	goto	u1491
  4106   0010B6  EF5F  F008         	goto	u1490
  4107   0010BA                     u1491:
  4108   0010BA  EF74  F008         	goto	l2135
  4109   0010BE                     u1490:
  4110   0010BE  280E               	incf	___fladd@aexp^0,w,c
  4111   0010C0  A4D8               	btfss	status,2,c
  4112   0010C2  EF65  F008         	goto	u1501
  4113   0010C6  EF67  F008         	goto	u1500
  4114   0010CA                     u1501:
  4115   0010CA  EF6F  F008         	goto	l2131
  4116   0010CE                     u1500:
  4117   0010CE  0E00               	movlw	0
  4118   0010D0  6E05               	movwf	___fladd@a^0,c
  4119   0010D2  0E00               	movlw	0
  4120   0010D4  6E06               	movwf	(___fladd@a+1)^0,c
  4121   0010D6  0E00               	movlw	0
  4122   0010D8  6E07               	movwf	(___fladd@a+2)^0,c
  4123   0010DA  0E00               	movlw	0
  4124   0010DC  6E08               	movwf	(___fladd@a+3)^0,c
  4125   0010DE                     l2131:
  4126   0010DE  8E07               	bsf	(___fladd@a+2)^0,7,c
  4127   0010E0  0E00               	movlw	0
  4128   0010E2  6E08               	movwf	(___fladd@a+3)^0,c
  4129   0010E4  EF7C  F008         	goto	l2137
  4130   0010E8                     l2135:
  4131   0010E8  0E00               	movlw	0
  4132   0010EA  6E05               	movwf	___fladd@a^0,c
  4133   0010EC  0E00               	movlw	0
  4134   0010EE  6E06               	movwf	(___fladd@a+1)^0,c
  4135   0010F0  0E00               	movlw	0
  4136   0010F2  6E07               	movwf	(___fladd@a+2)^0,c
  4137   0010F4  0E00               	movlw	0
  4138   0010F6  6E08               	movwf	(___fladd@a+3)^0,c
  4139   0010F8                     l2137:
  4140   0010F8  500F               	movf	___fladd@bexp^0,w,c
  4141   0010FA  5C0E               	subwf	___fladd@aexp^0,w,c
  4142   0010FC  B0D8               	btfsc	status,0,c
  4143   0010FE  EF83  F008         	goto	u1511
  4144   001102  EF85  F008         	goto	u1510
  4145   001106                     u1511:
  4146   001106  EFAC  F008         	goto	l2173
  4147   00110A                     u1510:
  4148   00110A  AC0D               	btfss	___fladd@signs^0,6,c
  4149   00110C  EF8A  F008         	goto	u1521
  4150   001110  EF8C  F008         	goto	u1520
  4151   001114                     u1521:
  4152   001114  EF8E  F008         	goto	l2143
  4153   001118                     u1520:
  4154   001118  0E80               	movlw	128
  4155   00111A  1A0D               	xorwf	___fladd@signs^0,f,c
  4156   00111C                     l2143:
  4157   00111C  C00F  F010         	movff	___fladd@bexp,___fladd@grs
  4158   001120  C00E  F00F         	movff	___fladd@aexp,___fladd@bexp
  4159   001124  C010  F00E         	movff	___fladd@grs,___fladd@aexp
  4160   001128  C001  F010         	movff	___fladd@b,___fladd@grs
  4161   00112C  C005  F001         	movff	___fladd@a,___fladd@b
  4162   001130  C010  F005         	movff	___fladd@grs,___fladd@a
  4163   001134  C002  F010         	movff	___fladd@b+1,___fladd@grs
  4164   001138  C006  F002         	movff	___fladd@a+1,___fladd@b+1
  4165   00113C  C010  F006         	movff	___fladd@grs,___fladd@a+1
  4166   001140  C003  F010         	movff	___fladd@b+2,___fladd@grs
  4167   001144  C007  F003         	movff	___fladd@a+2,___fladd@b+2
  4168   001148  C010  F007         	movff	___fladd@grs,___fladd@a+2
  4169   00114C  C004  F010         	movff	___fladd@b+3,___fladd@grs
  4170   001150  C008  F004         	movff	___fladd@a+3,___fladd@b+3
  4171   001154  C010  F008         	movff	___fladd@grs,___fladd@a+3
  4172   001158                     l2173:
  4173   001158  0E00               	movlw	0
  4174   00115A  6E10               	movwf	___fladd@grs^0,c
  4175   00115C  500F               	movf	___fladd@bexp^0,w,c
  4176   00115E  C00E  F009         	movff	___fladd@aexp,??___fladd
  4177   001162  6A0A               	clrf	(??___fladd+1)^0,c
  4178   001164  5E09               	subwf	??___fladd^0,f,c
  4179   001166  0E00               	movlw	0
  4180   001168  5A0A               	subwfb	(??___fladd+1)^0,f,c
  4181   00116A  BE0A               	btfsc	(??___fladd+1)^0,7,c
  4182   00116C  EFC1  F008         	goto	u1531
  4183   001170  500A               	movf	(??___fladd+1)^0,w,c
  4184   001172  E109               	bnz	u1530
  4185   001174  0E1A               	movlw	26
  4186   001176  5C09               	subwf	??___fladd^0,w,c
  4187   001178  A0D8               	btfss	status,0,c
  4188   00117A  EFC1  F008         	goto	u1531
  4189   00117E  EFC3  F008         	goto	u1530
  4190   001182                     u1531:
  4191   001182  EFFA  F008         	goto	l763
  4192   001186                     u1530:
  4193   001186  5001               	movf	___fladd@b^0,w,c
  4194   001188  1002               	iorwf	(___fladd@b+1)^0,w,c
  4195   00118A  1003               	iorwf	(___fladd@b+2)^0,w,c
  4196   00118C  1004               	iorwf	(___fladd@b+3)^0,w,c
  4197   00118E  A4D8               	btfss	status,2,c
  4198   001190  EFCC  F008         	goto	u1541
  4199   001194  EFCF  F008         	goto	u1540
  4200   001198                     u1541:
  4201   001198  0E01               	movlw	1
  4202   00119A  EFD0  F008         	goto	u1550
  4203   00119E                     u1540:
  4204   00119E  0E00               	movlw	0
  4205   0011A0                     u1550:
  4206   0011A0  6E10               	movwf	___fladd@grs^0,c
  4207   0011A2  0E00               	movlw	0
  4208   0011A4  6E01               	movwf	___fladd@b^0,c
  4209   0011A6  0E00               	movlw	0
  4210   0011A8  6E02               	movwf	(___fladd@b+1)^0,c
  4211   0011AA  0E00               	movlw	0
  4212   0011AC  6E03               	movwf	(___fladd@b+2)^0,c
  4213   0011AE  0E00               	movlw	0
  4214   0011B0  6E04               	movwf	(___fladd@b+3)^0,c
  4215   0011B2  C00E  F00F         	movff	___fladd@aexp,___fladd@bexp
  4216   0011B6  EF03  F009         	goto	l762
  4217   0011BA                     l764:
  4218   0011BA  A010               	btfss	___fladd@grs^0,0,c
  4219   0011BC  EFE2  F008         	goto	u1561
  4220   0011C0  EFE4  F008         	goto	u1560
  4221   0011C4                     u1561:
  4222   0011C4  EFEA  F008         	goto	l2185
  4223   0011C8                     u1560:
  4224   0011C8  90D8               	bcf	status,0,c
  4225   0011CA  3010               	rrcf	___fladd@grs^0,w,c
  4226   0011CC  0901               	iorlw	1
  4227   0011CE  6E10               	movwf	___fladd@grs^0,c
  4228   0011D0  EFEC  F008         	goto	l2187
  4229   0011D4                     l2185:
  4230   0011D4  90D8               	bcf	status,0,c
  4231   0011D6  3210               	rrcf	___fladd@grs^0,f,c
  4232   0011D8                     l2187:
  4233   0011D8  A001               	btfss	___fladd@b^0,0,c
  4234   0011DA  EFF1  F008         	goto	u1571
  4235   0011DE  EFF3  F008         	goto	u1570
  4236   0011E2                     u1571:
  4237   0011E2  EFF4  F008         	goto	l2191
  4238   0011E6                     u1570:
  4239   0011E6  8E10               	bsf	___fladd@grs^0,7,c
  4240   0011E8                     l2191:
  4241   0011E8  3404               	rlcf	(___fladd@b+3)^0,w,c
  4242   0011EA  3204               	rrcf	(___fladd@b+3)^0,f,c
  4243   0011EC  3203               	rrcf	(___fladd@b+2)^0,f,c
  4244   0011EE  3202               	rrcf	(___fladd@b+1)^0,f,c
  4245   0011F0  3201               	rrcf	___fladd@b^0,f,c
  4246   0011F2  2A0F               	incf	___fladd@bexp^0,f,c
  4247   0011F4                     l763:
  4248   0011F4  500E               	movf	___fladd@aexp^0,w,c
  4249   0011F6  5C0F               	subwf	___fladd@bexp^0,w,c
  4250   0011F8  A0D8               	btfss	status,0,c
  4251   0011FA  EF01  F009         	goto	u1581
  4252   0011FE  EF03  F009         	goto	u1580
  4253   001202                     u1581:
  4254   001202  EFDD  F008         	goto	l764
  4255   001206                     u1580:
  4256   001206                     l762:
  4257   001206  BC0D               	btfsc	___fladd@signs^0,6,c
  4258   001208  EF08  F009         	goto	u1591
  4259   00120C  EF0A  F009         	goto	u1590
  4260   001210                     u1591:
  4261   001210  EF4A  F009         	goto	l2219
  4262   001214                     u1590:
  4263   001214  500F               	movf	___fladd@bexp^0,w,c
  4264   001216  A4D8               	btfss	status,2,c
  4265   001218  EF10  F009         	goto	u1601
  4266   00121C  EF12  F009         	goto	u1600
  4267   001220                     u1601:
  4268   001220  EF1C  F009         	goto	l2201
  4269   001224                     u1600:
  4270   001224  0E00               	movlw	0
  4271   001226  6E01               	movwf	?___fladd^0,c
  4272   001228  0E00               	movlw	0
  4273   00122A  6E02               	movwf	(?___fladd+1)^0,c
  4274   00122C  0E00               	movlw	0
  4275   00122E  6E03               	movwf	(?___fladd+2)^0,c
  4276   001230  0E00               	movlw	0
  4277   001232  6E04               	movwf	(?___fladd+3)^0,c
  4278   001234  EF6B  F00A         	goto	l771
  4279   001238                     l2201:
  4280   001238  5005               	movf	___fladd@a^0,w,c
  4281   00123A  2601               	addwf	___fladd@b^0,f,c
  4282   00123C  5006               	movf	(___fladd@a+1)^0,w,c
  4283   00123E  2202               	addwfc	(___fladd@b+1)^0,f,c
  4284   001240  5007               	movf	(___fladd@a+2)^0,w,c
  4285   001242  2203               	addwfc	(___fladd@b+2)^0,f,c
  4286   001244  5008               	movf	(___fladd@a+3)^0,w,c
  4287   001246  2204               	addwfc	(___fladd@b+3)^0,f,c
  4288   001248  A004               	btfss	(___fladd@b+3)^0,0,c
  4289   00124A  EF29  F009         	goto	u1611
  4290   00124E  EF2B  F009         	goto	u1610
  4291   001252                     u1611:
  4292   001252  EFD7  F009         	goto	l2255
  4293   001256                     u1610:
  4294   001256  A010               	btfss	___fladd@grs^0,0,c
  4295   001258  EF30  F009         	goto	u1621
  4296   00125C  EF32  F009         	goto	u1620
  4297   001260                     u1621:
  4298   001260  EF38  F009         	goto	l2209
  4299   001264                     u1620:
  4300   001264  90D8               	bcf	status,0,c
  4301   001266  3010               	rrcf	___fladd@grs^0,w,c
  4302   001268  0901               	iorlw	1
  4303   00126A  6E10               	movwf	___fladd@grs^0,c
  4304   00126C  EF3A  F009         	goto	l2211
  4305   001270                     l2209:
  4306   001270  90D8               	bcf	status,0,c
  4307   001272  3210               	rrcf	___fladd@grs^0,f,c
  4308   001274                     l2211:
  4309   001274  A001               	btfss	___fladd@b^0,0,c
  4310   001276  EF3F  F009         	goto	u1631
  4311   00127A  EF41  F009         	goto	u1630
  4312   00127E                     u1631:
  4313   00127E  EF42  F009         	goto	l2215
  4314   001282                     u1630:
  4315   001282  8E10               	bsf	___fladd@grs^0,7,c
  4316   001284                     l2215:
  4317   001284  3404               	rlcf	(___fladd@b+3)^0,w,c
  4318   001286  3204               	rrcf	(___fladd@b+3)^0,f,c
  4319   001288  3203               	rrcf	(___fladd@b+2)^0,f,c
  4320   00128A  3202               	rrcf	(___fladd@b+1)^0,f,c
  4321   00128C  3201               	rrcf	___fladd@b^0,f,c
  4322   00128E  2A0F               	incf	___fladd@bexp^0,f,c
  4323   001290  EFD7  F009         	goto	l2255
  4324   001294                     l2219:
  4325   001294  5005               	movf	___fladd@a^0,w,c
  4326   001296  5C01               	subwf	___fladd@b^0,w,c
  4327   001298  5006               	movf	(___fladd@a+1)^0,w,c
  4328   00129A  5802               	subwfb	(___fladd@b+1)^0,w,c
  4329   00129C  5007               	movf	(___fladd@a+2)^0,w,c
  4330   00129E  5803               	subwfb	(___fladd@b+2)^0,w,c
  4331   0012A0  5004               	movf	(___fladd@b+3)^0,w,c
  4332   0012A2  0A80               	xorlw	128
  4333   0012A4  6E09               	movwf	??___fladd^0,c
  4334   0012A6  5008               	movf	(___fladd@a+3)^0,w,c
  4335   0012A8  0A80               	xorlw	128
  4336   0012AA  5809               	subwfb	??___fladd^0,w,c
  4337   0012AC  B0D8               	btfsc	status,0,c
  4338   0012AE  EF5B  F009         	goto	u1641
  4339   0012B2  EF5D  F009         	goto	u1640
  4340   0012B6                     u1641:
  4341   0012B6  EF88  F009         	goto	l2229
  4342   0012BA                     u1640:
  4343   0012BA  5001               	movf	___fladd@b^0,w,c
  4344   0012BC  5C05               	subwf	___fladd@a^0,w,c
  4345   0012BE  6E09               	movwf	??___fladd^0,c
  4346   0012C0  5002               	movf	(___fladd@b+1)^0,w,c
  4347   0012C2  5806               	subwfb	(___fladd@a+1)^0,w,c
  4348   0012C4  6E0A               	movwf	(??___fladd+1)^0,c
  4349   0012C6  5003               	movf	(___fladd@b+2)^0,w,c
  4350   0012C8  5807               	subwfb	(___fladd@a+2)^0,w,c
  4351   0012CA  6E0B               	movwf	(??___fladd+2)^0,c
  4352   0012CC  5004               	movf	(___fladd@b+3)^0,w,c
  4353   0012CE  5808               	subwfb	(___fladd@a+3)^0,w,c
  4354   0012D0  6E0C               	movwf	(??___fladd+3)^0,c
  4355   0012D2  0EFF               	movlw	255
  4356   0012D4  2409               	addwf	??___fladd^0,w,c
  4357   0012D6  6E01               	movwf	___fladd@b^0,c
  4358   0012D8  0EFF               	movlw	255
  4359   0012DA  200A               	addwfc	(??___fladd+1)^0,w,c
  4360   0012DC  6E02               	movwf	(___fladd@b+1)^0,c
  4361   0012DE  0EFF               	movlw	255
  4362   0012E0  200B               	addwfc	(??___fladd+2)^0,w,c
  4363   0012E2  6E03               	movwf	(___fladd@b+2)^0,c
  4364   0012E4  0EFF               	movlw	255
  4365   0012E6  200C               	addwfc	(??___fladd+3)^0,w,c
  4366   0012E8  6E04               	movwf	(___fladd@b+3)^0,c
  4367   0012EA  0E80               	movlw	128
  4368   0012EC  1A0D               	xorwf	___fladd@signs^0,f,c
  4369   0012EE  6C10               	negf	___fladd@grs^0,c
  4370   0012F0  5010               	movf	___fladd@grs^0,w,c
  4371   0012F2  A4D8               	btfss	status,2,c
  4372   0012F4  EF7E  F009         	goto	u1651
  4373   0012F8  EF80  F009         	goto	u1650
  4374   0012FC                     u1651:
  4375   0012FC  EF90  F009         	goto	l779
  4376   001300                     u1650:
  4377   001300  0E01               	movlw	1
  4378   001302  2601               	addwf	___fladd@b^0,f,c
  4379   001304  0E00               	movlw	0
  4380   001306  2202               	addwfc	(___fladd@b+1)^0,f,c
  4381   001308  2203               	addwfc	(___fladd@b+2)^0,f,c
  4382   00130A  2204               	addwfc	(___fladd@b+3)^0,f,c
  4383   00130C  EF90  F009         	goto	l779
  4384   001310                     l2229:
  4385   001310  5005               	movf	___fladd@a^0,w,c
  4386   001312  5E01               	subwf	___fladd@b^0,f,c
  4387   001314  5006               	movf	(___fladd@a+1)^0,w,c
  4388   001316  5A02               	subwfb	(___fladd@b+1)^0,f,c
  4389   001318  5007               	movf	(___fladd@a+2)^0,w,c
  4390   00131A  5A03               	subwfb	(___fladd@b+2)^0,f,c
  4391   00131C  5008               	movf	(___fladd@a+3)^0,w,c
  4392   00131E  5A04               	subwfb	(___fladd@b+3)^0,f,c
  4393   001320                     l779:
  4394   001320  5001               	movf	___fladd@b^0,w,c
  4395   001322  1002               	iorwf	(___fladd@b+1)^0,w,c
  4396   001324  1003               	iorwf	(___fladd@b+2)^0,w,c
  4397   001326  1004               	iorwf	(___fladd@b+3)^0,w,c
  4398   001328  A4D8               	btfss	status,2,c
  4399   00132A  EF99  F009         	goto	u1661
  4400   00132E  EF9B  F009         	goto	u1660
  4401   001332                     u1661:
  4402   001332  EFD0  F009         	goto	l2253
  4403   001336                     u1660:
  4404   001336  5010               	movf	___fladd@grs^0,w,c
  4405   001338  A4D8               	btfss	status,2,c
  4406   00133A  EFA1  F009         	goto	u1671
  4407   00133E  EFA3  F009         	goto	u1670
  4408   001342                     u1671:
  4409   001342  EFD0  F009         	goto	l2253
  4410   001346                     u1670:
  4411   001346  0E00               	movlw	0
  4412   001348  6E01               	movwf	?___fladd^0,c
  4413   00134A  0E00               	movlw	0
  4414   00134C  6E02               	movwf	(?___fladd+1)^0,c
  4415   00134E  0E00               	movlw	0
  4416   001350  6E03               	movwf	(?___fladd+2)^0,c
  4417   001352  0E00               	movlw	0
  4418   001354  6E04               	movwf	(?___fladd+3)^0,c
  4419   001356  EF6B  F00A         	goto	l771
  4420   00135A                     l2237:
  4421   00135A  90D8               	bcf	status,0,c
  4422   00135C  3601               	rlcf	___fladd@b^0,f,c
  4423   00135E  3602               	rlcf	(___fladd@b+1)^0,f,c
  4424   001360  3603               	rlcf	(___fladd@b+2)^0,f,c
  4425   001362  3604               	rlcf	(___fladd@b+3)^0,f,c
  4426   001364  AE10               	btfss	___fladd@grs^0,7,c
  4427   001366  EFB7  F009         	goto	u1681
  4428   00136A  EFB9  F009         	goto	u1680
  4429   00136E                     u1681:
  4430   00136E  EFBA  F009         	goto	l2243
  4431   001372                     u1680:
  4432   001372  8001               	bsf	___fladd@b^0,0,c
  4433   001374                     l2243:
  4434   001374  A010               	btfss	___fladd@grs^0,0,c
  4435   001376  EFBF  F009         	goto	u1691
  4436   00137A  EFC1  F009         	goto	u1690
  4437   00137E                     u1691:
  4438   00137E  EFC5  F009         	goto	l2247
  4439   001382                     u1690:
  4440   001382  80D8               	bsf	status,0,c
  4441   001384  3610               	rlcf	___fladd@grs^0,f,c
  4442   001386  EFC7  F009         	goto	l2249
  4443   00138A                     l2247:
  4444   00138A  90D8               	bcf	status,0,c
  4445   00138C  3610               	rlcf	___fladd@grs^0,f,c
  4446   00138E                     l2249:
  4447   00138E  500F               	movf	___fladd@bexp^0,w,c
  4448   001390  B4D8               	btfsc	status,2,c
  4449   001392  EFCD  F009         	goto	u1701
  4450   001396  EFCF  F009         	goto	u1700
  4451   00139A                     u1701:
  4452   00139A  EFD0  F009         	goto	l2253
  4453   00139E                     u1700:
  4454   00139E  060F               	decf	___fladd@bexp^0,f,c
  4455   0013A0                     l2253:
  4456   0013A0  AE03               	btfss	(___fladd@b+2)^0,7,c
  4457   0013A2  EFD5  F009         	goto	u1711
  4458   0013A6  EFD7  F009         	goto	u1710
  4459   0013AA                     u1711:
  4460   0013AA  EFAD  F009         	goto	l2237
  4461   0013AE                     u1710:
  4462   0013AE                     l2255:
  4463   0013AE  0E00               	movlw	0
  4464   0013B0  6E0E               	movwf	___fladd@aexp^0,c
  4465   0013B2  AE10               	btfss	___fladd@grs^0,7,c
  4466   0013B4  EFDE  F009         	goto	u1721
  4467   0013B8  EFE0  F009         	goto	u1720
  4468   0013BC                     u1721:
  4469   0013BC  EFF8  F009         	goto	l788
  4470   0013C0                     u1720:
  4471   0013C0  C010  F009         	movff	___fladd@grs,??___fladd
  4472   0013C4  0E7F               	movlw	127
  4473   0013C6  1609               	andwf	??___fladd^0,f,c
  4474   0013C8  B4D8               	btfsc	status,2,c
  4475   0013CA  EFE9  F009         	goto	u1731
  4476   0013CE  EFEB  F009         	goto	u1730
  4477   0013D2                     u1731:
  4478   0013D2  EFEF  F009         	goto	l789
  4479   0013D6                     u1730:
  4480   0013D6                     l2261:
  4481   0013D6  0E01               	movlw	1
  4482   0013D8  6E0E               	movwf	___fladd@aexp^0,c
  4483   0013DA  EFF8  F009         	goto	l788
  4484   0013DE                     l789:
  4485   0013DE  A001               	btfss	___fladd@b^0,0,c
  4486   0013E0  EFF4  F009         	goto	u1741
  4487   0013E4  EFF6  F009         	goto	u1740
  4488   0013E8                     u1741:
  4489   0013E8  EFF8  F009         	goto	l788
  4490   0013EC                     u1740:
  4491   0013EC  EFEB  F009         	goto	l2261
  4492   0013F0                     l788:
  4493   0013F0  500E               	movf	___fladd@aexp^0,w,c
  4494   0013F2  B4D8               	btfsc	status,2,c
  4495   0013F4  EFFE  F009         	goto	u1751
  4496   0013F8  EF00  F00A         	goto	u1750
  4497   0013FC                     u1751:
  4498   0013FC  EF2B  F00A         	goto	l2273
  4499   001400                     u1750:
  4500   001400  0E01               	movlw	1
  4501   001402  2601               	addwf	___fladd@b^0,f,c
  4502   001404  0E00               	movlw	0
  4503   001406  2202               	addwfc	(___fladd@b+1)^0,f,c
  4504   001408  2203               	addwfc	(___fladd@b+2)^0,f,c
  4505   00140A  2204               	addwfc	(___fladd@b+3)^0,f,c
  4506   00140C  A004               	btfss	(___fladd@b+3)^0,0,c
  4507   00140E  EF0B  F00A         	goto	u1761
  4508   001412  EF0D  F00A         	goto	u1760
  4509   001416                     u1761:
  4510   001416  EF2B  F00A         	goto	l2273
  4511   00141A                     u1760:
  4512   00141A  C001  F009         	movff	___fladd@b,??___fladd
  4513   00141E  C002  F00A         	movff	___fladd@b+1,??___fladd+1
  4514   001422  C003  F00B         	movff	___fladd@b+2,??___fladd+2
  4515   001426  C004  F00C         	movff	___fladd@b+3,??___fladd+3
  4516   00142A  340C               	rlcf	(??___fladd+3)^0,w,c
  4517   00142C  320C               	rrcf	(??___fladd+3)^0,f,c
  4518   00142E  320B               	rrcf	(??___fladd+2)^0,f,c
  4519   001430  320A               	rrcf	(??___fladd+1)^0,f,c
  4520   001432  3209               	rrcf	??___fladd^0,f,c
  4521   001434  C009  F001         	movff	??___fladd,___fladd@b
  4522   001438  C00A  F002         	movff	??___fladd+1,___fladd@b+1
  4523   00143C  C00B  F003         	movff	??___fladd+2,___fladd@b+2
  4524   001440  C00C  F004         	movff	??___fladd+3,___fladd@b+3
  4525   001444  280F               	incf	___fladd@bexp^0,w,c
  4526   001446  B4D8               	btfsc	status,2,c
  4527   001448  EF28  F00A         	goto	u1771
  4528   00144C  EF2A  F00A         	goto	u1770
  4529   001450                     u1771:
  4530   001450  EF2B  F00A         	goto	l2273
  4531   001454                     u1770:
  4532   001454  2A0F               	incf	___fladd@bexp^0,f,c
  4533   001456                     l2273:
  4534   001456  280F               	incf	___fladd@bexp^0,w,c
  4535   001458  B4D8               	btfsc	status,2,c
  4536   00145A  EF31  F00A         	goto	u1781
  4537   00145E  EF33  F00A         	goto	u1780
  4538   001462                     u1781:
  4539   001462  EF3B  F00A         	goto	l2277
  4540   001466                     u1780:
  4541   001466  500F               	movf	___fladd@bexp^0,w,c
  4542   001468  A4D8               	btfss	status,2,c
  4543   00146A  EF39  F00A         	goto	u1791
  4544   00146E  EF3B  F00A         	goto	u1790
  4545   001472                     u1791:
  4546   001472  EF4D  F00A         	goto	l2281
  4547   001476                     u1790:
  4548   001476                     l2277:
  4549   001476  0E00               	movlw	0
  4550   001478  6E01               	movwf	___fladd@b^0,c
  4551   00147A  0E00               	movlw	0
  4552   00147C  6E02               	movwf	(___fladd@b+1)^0,c
  4553   00147E  0E00               	movlw	0
  4554   001480  6E03               	movwf	(___fladd@b+2)^0,c
  4555   001482  0E00               	movlw	0
  4556   001484  6E04               	movwf	(___fladd@b+3)^0,c
  4557   001486  500F               	movf	___fladd@bexp^0,w,c
  4558   001488  A4D8               	btfss	status,2,c
  4559   00148A  EF49  F00A         	goto	u1801
  4560   00148E  EF4B  F00A         	goto	u1800
  4561   001492                     u1801:
  4562   001492  EF4D  F00A         	goto	l2281
  4563   001496                     u1800:
  4564   001496  0E00               	movlw	0
  4565   001498  6E0D               	movwf	___fladd@signs^0,c
  4566   00149A                     l2281:
  4567   00149A  A00F               	btfss	___fladd@bexp^0,0,c
  4568   00149C  EF52  F00A         	goto	u1811
  4569   0014A0  EF54  F00A         	goto	u1810
  4570   0014A4                     u1811:
  4571   0014A4  EF57  F00A         	goto	l2285
  4572   0014A8                     u1810:
  4573   0014A8  8E03               	bsf	(___fladd@b+2)^0,7,c
  4574   0014AA  EF58  F00A         	goto	l2287
  4575   0014AE                     l2285:
  4576   0014AE  9E03               	bcf	(___fladd@b+2)^0,7,c
  4577   0014B0                     l2287:
  4578   0014B0  90D8               	bcf	status,0,c
  4579   0014B2  300F               	rrcf	___fladd@bexp^0,w,c
  4580   0014B4  6E04               	movwf	(___fladd@b+3)^0,c
  4581   0014B6  AE0D               	btfss	___fladd@signs^0,7,c
  4582   0014B8  EF60  F00A         	goto	u1821
  4583   0014BC  EF62  F00A         	goto	u1820
  4584   0014C0                     u1821:
  4585   0014C0  EF63  F00A         	goto	l2293
  4586   0014C4                     u1820:
  4587   0014C4  8E04               	bsf	(___fladd@b+3)^0,7,c
  4588   0014C6                     l2293:
  4589   0014C6  C001  F001         	movff	___fladd@b,?___fladd
  4590   0014CA  C002  F002         	movff	___fladd@b+1,?___fladd+1
  4591   0014CE  C003  F003         	movff	___fladd@b+2,?___fladd+2
  4592   0014D2  C004  F004         	movff	___fladd@b+3,?___fladd+3
  4593   0014D6                     l771:
  4594   0014D6  0012               	return		;funcret
  4595   0014D8                     __end_of___fladd:
  4596                           	callstack 0
  4597                           
  4598 ;; *************** function ___flmul *****************
  4599 ;; Defined at:
  4600 ;;		line 8 in file "/opt/microchip/xc8/v2.46/pic/sources/c99/common/sprcmul.c"
  4601 ;; Parameters:    Size  Location     Type
  4602 ;;  b               4   30[COMRAM] unsigned char 
  4603 ;;  a               4   34[COMRAM] unsigned char 
  4604 ;; Auto vars:     Size  Location     Type
  4605 ;;  prod            4   49[COMRAM] struct .
  4606 ;;  grs             4   43[COMRAM] unsigned long 
  4607 ;;  temp            2   53[COMRAM] struct .
  4608 ;;  bexp            1   48[COMRAM] unsigned char 
  4609 ;;  aexp            1   47[COMRAM] unsigned char 
  4610 ;;  sign            1   42[COMRAM] unsigned char 
  4611 ;; Return value:  Size  Location     Type
  4612 ;;                  4   30[COMRAM] unsigned char 
  4613 ;; Registers used:
  4614 ;;		wreg, status,2, status,0, prodl, prodh
  4615 ;; Tracked objects:
  4616 ;;		On entry : 0/0
  4617 ;;		On exit  : 0/0
  4618 ;;		Unchanged: 0/0
  4619 ;; Data sizes:     COMRAM   BANK0   BANK1   BANK2   BANK3   BANK4   BANK5   BANK6   BANK7   BANK8   BANK9  BANK10  BANK1
      +1  BANK12  BANK13  BANK14  BANK15
  4620 ;;      Params:         8       0       0       0       0       0       0       0       0       0       0       0       
      +0       0       0       0       0
  4621 ;;      Locals:        13       0       0       0       0       0       0       0       0       0       0       0       
      +0       0       0       0       0
  4622 ;;      Temps:          4       0       0       0       0       0       0       0       0       0       0       0       
      +0       0       0       0       0
  4623 ;;      Totals:        25       0       0       0       0       0       0       0       0       0       0       0       
      +0       0       0       0       0
  4624 ;;Total ram usage:       25 bytes
  4625 ;; Hardware stack levels used: 1
  4626 ;; This function calls:
  4627 ;;		Nothing
  4628 ;; This function is called by:
  4629 ;;		_LCDWriteFloat
  4630 ;;		_BME280_Compensate_Temperature
  4631 ;; This function uses a non-reentrant model
  4632 ;;
  4633                           
  4634                           	psect	text32
  4635   0014D8                     __ptext32:
  4636                           	callstack 0
  4637   0014D8                     ___flmul:
  4638                           	callstack 29
  4639   0014D8  5022               	movf	(___flmul@b+3)^0,w,c
  4640   0014DA  0B80               	andlw	128
  4641   0014DC  6E2B               	movwf	___flmul@sign^0,c
  4642   0014DE  5022               	movf	(___flmul@b+3)^0,w,c
  4643   0014E0  2422               	addwf	(___flmul@b+3)^0,w,c
  4644   0014E2  6E31               	movwf	___flmul@bexp^0,c
  4645   0014E4  AE21               	btfss	(___flmul@b+2)^0,7,c
  4646   0014E6  EF77  F00A         	goto	u2121
  4647   0014EA  EF79  F00A         	goto	u2120
  4648   0014EE                     u2121:
  4649   0014EE  EF7A  F00A         	goto	l2483
  4650   0014F2                     u2120:
  4651   0014F2  8031               	bsf	___flmul@bexp^0,0,c
  4652   0014F4                     l2483:
  4653   0014F4  5031               	movf	___flmul@bexp^0,w,c
  4654   0014F6  B4D8               	btfsc	status,2,c
  4655   0014F8  EF80  F00A         	goto	u2131
  4656   0014FC  EF82  F00A         	goto	u2130
  4657   001500                     u2131:
  4658   001500  EF95  F00A         	goto	l2491
  4659   001504                     u2130:
  4660   001504  2831               	incf	___flmul@bexp^0,w,c
  4661   001506  A4D8               	btfss	status,2,c
  4662   001508  EF88  F00A         	goto	u2141
  4663   00150C  EF8A  F00A         	goto	u2140
  4664   001510                     u2141:
  4665   001510  EF92  F00A         	goto	l2489
  4666   001514                     u2140:
  4667   001514  0E00               	movlw	0
  4668   001516  6E1F               	movwf	___flmul@b^0,c
  4669   001518  0E00               	movlw	0
  4670   00151A  6E20               	movwf	(___flmul@b+1)^0,c
  4671   00151C  0E00               	movlw	0
  4672   00151E  6E21               	movwf	(___flmul@b+2)^0,c
  4673   001520  0E00               	movlw	0
  4674   001522  6E22               	movwf	(___flmul@b+3)^0,c
  4675   001524                     l2489:
  4676   001524  8E21               	bsf	(___flmul@b+2)^0,7,c
  4677   001526  EF9D  F00A         	goto	l2493
  4678   00152A                     l2491:
  4679   00152A  0E00               	movlw	0
  4680   00152C  6E1F               	movwf	___flmul@b^0,c
  4681   00152E  0E00               	movlw	0
  4682   001530  6E20               	movwf	(___flmul@b+1)^0,c
  4683   001532  0E00               	movlw	0
  4684   001534  6E21               	movwf	(___flmul@b+2)^0,c
  4685   001536  0E00               	movlw	0
  4686   001538  6E22               	movwf	(___flmul@b+3)^0,c
  4687   00153A                     l2493:
  4688   00153A  5026               	movf	(___flmul@a+3)^0,w,c
  4689   00153C  0B80               	andlw	128
  4690   00153E  1A2B               	xorwf	___flmul@sign^0,f,c
  4691   001540  5026               	movf	(___flmul@a+3)^0,w,c
  4692   001542  2426               	addwf	(___flmul@a+3)^0,w,c
  4693   001544  6E30               	movwf	___flmul@aexp^0,c
  4694   001546  AE25               	btfss	(___flmul@a+2)^0,7,c
  4695   001548  EFA8  F00A         	goto	u2151
  4696   00154C  EFAA  F00A         	goto	u2150
  4697   001550                     u2151:
  4698   001550  EFAB  F00A         	goto	l2501
  4699   001554                     u2150:
  4700   001554  8030               	bsf	___flmul@aexp^0,0,c
  4701   001556                     l2501:
  4702   001556  5030               	movf	___flmul@aexp^0,w,c
  4703   001558  B4D8               	btfsc	status,2,c
  4704   00155A  EFB1  F00A         	goto	u2161
  4705   00155E  EFB3  F00A         	goto	u2160
  4706   001562                     u2161:
  4707   001562  EFC6  F00A         	goto	l2509
  4708   001566                     u2160:
  4709   001566  2830               	incf	___flmul@aexp^0,w,c
  4710   001568  A4D8               	btfss	status,2,c
  4711   00156A  EFB9  F00A         	goto	u2171
  4712   00156E  EFBB  F00A         	goto	u2170
  4713   001572                     u2171:
  4714   001572  EFC3  F00A         	goto	l2507
  4715   001576                     u2170:
  4716   001576  0E00               	movlw	0
  4717   001578  6E23               	movwf	___flmul@a^0,c
  4718   00157A  0E00               	movlw	0
  4719   00157C  6E24               	movwf	(___flmul@a+1)^0,c
  4720   00157E  0E00               	movlw	0
  4721   001580  6E25               	movwf	(___flmul@a+2)^0,c
  4722   001582  0E00               	movlw	0
  4723   001584  6E26               	movwf	(___flmul@a+3)^0,c
  4724   001586                     l2507:
  4725   001586  8E25               	bsf	(___flmul@a+2)^0,7,c
  4726   001588  EFCE  F00A         	goto	l848
  4727   00158C                     l2509:
  4728   00158C  0E00               	movlw	0
  4729   00158E  6E23               	movwf	___flmul@a^0,c
  4730   001590  0E00               	movlw	0
  4731   001592  6E24               	movwf	(___flmul@a+1)^0,c
  4732   001594  0E00               	movlw	0
  4733   001596  6E25               	movwf	(___flmul@a+2)^0,c
  4734   001598  0E00               	movlw	0
  4735   00159A  6E26               	movwf	(___flmul@a+3)^0,c
  4736   00159C                     l848:
  4737   00159C  5030               	movf	___flmul@aexp^0,w,c
  4738   00159E  B4D8               	btfsc	status,2,c
  4739   0015A0  EFD4  F00A         	goto	u2181
  4740   0015A4  EFD6  F00A         	goto	u2180
  4741   0015A8                     u2181:
  4742   0015A8  EFDE  F00A         	goto	l2513
  4743   0015AC                     u2180:
  4744   0015AC  5031               	movf	___flmul@bexp^0,w,c
  4745   0015AE  A4D8               	btfss	status,2,c
  4746   0015B0  EFDC  F00A         	goto	u2191
  4747   0015B4  EFDE  F00A         	goto	u2190
  4748   0015B8                     u2191:
  4749   0015B8  EFE8  F00A         	goto	l2517
  4750   0015BC                     u2190:
  4751   0015BC                     l2513:
  4752   0015BC  0E00               	movlw	0
  4753   0015BE  6E1F               	movwf	?___flmul^0,c
  4754   0015C0  0E00               	movlw	0
  4755   0015C2  6E20               	movwf	(?___flmul+1)^0,c
  4756   0015C4  0E00               	movlw	0
  4757   0015C6  6E21               	movwf	(?___flmul+2)^0,c
  4758   0015C8  0E00               	movlw	0
  4759   0015CA  6E22               	movwf	(?___flmul+3)^0,c
  4760   0015CC  EF80  F00C         	goto	l852
  4761   0015D0                     l2517:
  4762   0015D0  5025               	movf	(___flmul@a+2)^0,w,c
  4763   0015D2  021F               	mulwf	___flmul@b^0,c
  4764   0015D4  CFF3 F036          	movff	prodl,___flmul@temp
  4765   0015D8  CFF4 F037          	movff	prodh,___flmul@temp+1
  4766   0015DC  5036               	movf	___flmul@temp^0,w,c
  4767   0015DE  6E2C               	movwf	___flmul@grs^0,c
  4768   0015E0  6A2D               	clrf	(___flmul@grs+1)^0,c
  4769   0015E2  6A2E               	clrf	(___flmul@grs+2)^0,c
  4770   0015E4  6A2F               	clrf	(___flmul@grs+3)^0,c
  4771   0015E6  5037               	movf	(___flmul@temp+1)^0,w,c
  4772   0015E8  6E32               	movwf	___flmul@prod^0,c
  4773   0015EA  6A33               	clrf	(___flmul@prod+1)^0,c
  4774   0015EC  6A34               	clrf	(___flmul@prod+2)^0,c
  4775   0015EE  6A35               	clrf	(___flmul@prod+3)^0,c
  4776   0015F0  5024               	movf	(___flmul@a+1)^0,w,c
  4777   0015F2  0220               	mulwf	(___flmul@b+1)^0,c
  4778   0015F4  CFF3 F036          	movff	prodl,___flmul@temp
  4779   0015F8  CFF4 F037          	movff	prodh,___flmul@temp+1
  4780   0015FC  5036               	movf	___flmul@temp^0,w,c
  4781   0015FE  262C               	addwf	___flmul@grs^0,f,c
  4782   001600  0E00               	movlw	0
  4783   001602  222D               	addwfc	(___flmul@grs+1)^0,f,c
  4784   001604  222E               	addwfc	(___flmul@grs+2)^0,f,c
  4785   001606  222F               	addwfc	(___flmul@grs+3)^0,f,c
  4786   001608  5037               	movf	(___flmul@temp+1)^0,w,c
  4787   00160A  2632               	addwf	___flmul@prod^0,f,c
  4788   00160C  0E00               	movlw	0
  4789   00160E  2233               	addwfc	(___flmul@prod+1)^0,f,c
  4790   001610  2234               	addwfc	(___flmul@prod+2)^0,f,c
  4791   001612  2235               	addwfc	(___flmul@prod+3)^0,f,c
  4792   001614  5023               	movf	___flmul@a^0,w,c
  4793   001616  0221               	mulwf	(___flmul@b+2)^0,c
  4794   001618  CFF3 F036          	movff	prodl,___flmul@temp
  4795   00161C  CFF4 F037          	movff	prodh,___flmul@temp+1
  4796   001620  5036               	movf	___flmul@temp^0,w,c
  4797   001622  262C               	addwf	___flmul@grs^0,f,c
  4798   001624  0E00               	movlw	0
  4799   001626  222D               	addwfc	(___flmul@grs+1)^0,f,c
  4800   001628  222E               	addwfc	(___flmul@grs+2)^0,f,c
  4801   00162A  222F               	addwfc	(___flmul@grs+3)^0,f,c
  4802   00162C  5037               	movf	(___flmul@temp+1)^0,w,c
  4803   00162E  2632               	addwf	___flmul@prod^0,f,c
  4804   001630  0E00               	movlw	0
  4805   001632  2233               	addwfc	(___flmul@prod+1)^0,f,c
  4806   001634  2234               	addwfc	(___flmul@prod+2)^0,f,c
  4807   001636  2235               	addwfc	(___flmul@prod+3)^0,f,c
  4808   001638  C02E  F02F         	movff	___flmul@grs+2,___flmul@grs+3
  4809   00163C  C02D  F02E         	movff	___flmul@grs+1,___flmul@grs+2
  4810   001640  C02C  F02D         	movff	___flmul@grs,___flmul@grs+1
  4811   001644  6A2C               	clrf	___flmul@grs^0,c
  4812   001646  5023               	movf	___flmul@a^0,w,c
  4813   001648  0220               	mulwf	(___flmul@b+1)^0,c
  4814   00164A  CFF3 F036          	movff	prodl,___flmul@temp
  4815   00164E  CFF4 F037          	movff	prodh,___flmul@temp+1
  4816   001652  5036               	movf	___flmul@temp^0,w,c
  4817   001654  262C               	addwf	___flmul@grs^0,f,c
  4818   001656  5037               	movf	(___flmul@temp+1)^0,w,c
  4819   001658  222D               	addwfc	(___flmul@grs+1)^0,f,c
  4820   00165A  0E00               	movlw	0
  4821   00165C  222E               	addwfc	(___flmul@grs+2)^0,f,c
  4822   00165E  0E00               	movlw	0
  4823   001660  222F               	addwfc	(___flmul@grs+3)^0,f,c
  4824   001662  5024               	movf	(___flmul@a+1)^0,w,c
  4825   001664  021F               	mulwf	___flmul@b^0,c
  4826   001666  CFF3 F036          	movff	prodl,___flmul@temp
  4827   00166A  CFF4 F037          	movff	prodh,___flmul@temp+1
  4828   00166E  5036               	movf	___flmul@temp^0,w,c
  4829   001670  262C               	addwf	___flmul@grs^0,f,c
  4830   001672  5037               	movf	(___flmul@temp+1)^0,w,c
  4831   001674  222D               	addwfc	(___flmul@grs+1)^0,f,c
  4832   001676  0E00               	movlw	0
  4833   001678  222E               	addwfc	(___flmul@grs+2)^0,f,c
  4834   00167A  0E00               	movlw	0
  4835   00167C  222F               	addwfc	(___flmul@grs+3)^0,f,c
  4836   00167E  C02E  F02F         	movff	___flmul@grs+2,___flmul@grs+3
  4837   001682  C02D  F02E         	movff	___flmul@grs+1,___flmul@grs+2
  4838   001686  C02C  F02D         	movff	___flmul@grs,___flmul@grs+1
  4839   00168A  6A2C               	clrf	___flmul@grs^0,c
  4840   00168C  5023               	movf	___flmul@a^0,w,c
  4841   00168E  021F               	mulwf	___flmul@b^0,c
  4842   001690  CFF3 F036          	movff	prodl,___flmul@temp
  4843   001694  CFF4 F037          	movff	prodh,___flmul@temp+1
  4844   001698  5036               	movf	___flmul@temp^0,w,c
  4845   00169A  262C               	addwf	___flmul@grs^0,f,c
  4846   00169C  5037               	movf	(___flmul@temp+1)^0,w,c
  4847   00169E  222D               	addwfc	(___flmul@grs+1)^0,f,c
  4848   0016A0  0E00               	movlw	0
  4849   0016A2  222E               	addwfc	(___flmul@grs+2)^0,f,c
  4850   0016A4  0E00               	movlw	0
  4851   0016A6  222F               	addwfc	(___flmul@grs+3)^0,f,c
  4852   0016A8  5025               	movf	(___flmul@a+2)^0,w,c
  4853   0016AA  0220               	mulwf	(___flmul@b+1)^0,c
  4854   0016AC  CFF3 F036          	movff	prodl,___flmul@temp
  4855   0016B0  CFF4 F037          	movff	prodh,___flmul@temp+1
  4856   0016B4  5036               	movf	___flmul@temp^0,w,c
  4857   0016B6  2632               	addwf	___flmul@prod^0,f,c
  4858   0016B8  5037               	movf	(___flmul@temp+1)^0,w,c
  4859   0016BA  2233               	addwfc	(___flmul@prod+1)^0,f,c
  4860   0016BC  0E00               	movlw	0
  4861   0016BE  2234               	addwfc	(___flmul@prod+2)^0,f,c
  4862   0016C0  0E00               	movlw	0
  4863   0016C2  2235               	addwfc	(___flmul@prod+3)^0,f,c
  4864   0016C4  5024               	movf	(___flmul@a+1)^0,w,c
  4865   0016C6  0221               	mulwf	(___flmul@b+2)^0,c
  4866   0016C8  CFF3 F036          	movff	prodl,___flmul@temp
  4867   0016CC  CFF4 F037          	movff	prodh,___flmul@temp+1
  4868   0016D0  5036               	movf	___flmul@temp^0,w,c
  4869   0016D2  2632               	addwf	___flmul@prod^0,f,c
  4870   0016D4  5037               	movf	(___flmul@temp+1)^0,w,c
  4871   0016D6  2233               	addwfc	(___flmul@prod+1)^0,f,c
  4872   0016D8  0E00               	movlw	0
  4873   0016DA  2234               	addwfc	(___flmul@prod+2)^0,f,c
  4874   0016DC  0E00               	movlw	0
  4875   0016DE  2235               	addwfc	(___flmul@prod+3)^0,f,c
  4876   0016E0  5025               	movf	(___flmul@a+2)^0,w,c
  4877   0016E2  0221               	mulwf	(___flmul@b+2)^0,c
  4878   0016E4  CFF3 F036          	movff	prodl,___flmul@temp
  4879   0016E8  CFF4 F037          	movff	prodh,___flmul@temp+1
  4880   0016EC  5036               	movf	___flmul@temp^0,w,c
  4881   0016EE  6E27               	movwf	??___flmul^0,c
  4882   0016F0  5037               	movf	(___flmul@temp+1)^0,w,c
  4883   0016F2  6E28               	movwf	(??___flmul+1)^0,c
  4884   0016F4  6A29               	clrf	(??___flmul+2)^0,c
  4885   0016F6  6A2A               	clrf	(??___flmul+3)^0,c
  4886   0016F8  C029  F02A         	movff	??___flmul+2,??___flmul+3
  4887   0016FC  C028  F029         	movff	??___flmul+1,??___flmul+2
  4888   001700  C027  F028         	movff	??___flmul,??___flmul+1
  4889   001704  6A27               	clrf	??___flmul^0,c
  4890   001706  5027               	movf	??___flmul^0,w,c
  4891   001708  2632               	addwf	___flmul@prod^0,f,c
  4892   00170A  5028               	movf	(??___flmul+1)^0,w,c
  4893   00170C  2233               	addwfc	(___flmul@prod+1)^0,f,c
  4894   00170E  5029               	movf	(??___flmul+2)^0,w,c
  4895   001710  2234               	addwfc	(___flmul@prod+2)^0,f,c
  4896   001712  502A               	movf	(??___flmul+3)^0,w,c
  4897   001714  2235               	addwfc	(___flmul@prod+3)^0,f,c
  4898   001716  C02C  F027         	movff	___flmul@grs,??___flmul
  4899   00171A  C02D  F028         	movff	___flmul@grs+1,??___flmul+1
  4900   00171E  C02E  F029         	movff	___flmul@grs+2,??___flmul+2
  4901   001722  C02F  F02A         	movff	___flmul@grs+3,??___flmul+3
  4902   001726  0E19               	movlw	25
  4903   001728  EF9B  F00B         	goto	u2200
  4904   00172C                     u2205:
  4905   00172C  90D8               	bcf	status,0,c
  4906   00172E  322A               	rrcf	(??___flmul+3)^0,f,c
  4907   001730  3229               	rrcf	(??___flmul+2)^0,f,c
  4908   001732  3228               	rrcf	(??___flmul+1)^0,f,c
  4909   001734  3227               	rrcf	??___flmul^0,f,c
  4910   001736                     u2200:
  4911   001736  2EE8               	decfsz	wreg,f,c
  4912   001738  EF96  F00B         	goto	u2205
  4913   00173C  5027               	movf	??___flmul^0,w,c
  4914   00173E  2632               	addwf	___flmul@prod^0,f,c
  4915   001740  5028               	movf	(??___flmul+1)^0,w,c
  4916   001742  2233               	addwfc	(___flmul@prod+1)^0,f,c
  4917   001744  5029               	movf	(??___flmul+2)^0,w,c
  4918   001746  2234               	addwfc	(___flmul@prod+2)^0,f,c
  4919   001748  502A               	movf	(??___flmul+3)^0,w,c
  4920   00174A  2235               	addwfc	(___flmul@prod+3)^0,f,c
  4921   00174C  C02E  F02F         	movff	___flmul@grs+2,___flmul@grs+3
  4922   001750  C02D  F02E         	movff	___flmul@grs+1,___flmul@grs+2
  4923   001754  C02C  F02D         	movff	___flmul@grs,___flmul@grs+1
  4924   001758  6A2C               	clrf	___flmul@grs^0,c
  4925   00175A  5030               	movf	___flmul@aexp^0,w,c
  4926   00175C  C031  F027         	movff	___flmul@bexp,??___flmul
  4927   001760  6A28               	clrf	(??___flmul+1)^0,c
  4928   001762  2627               	addwf	??___flmul^0,f,c
  4929   001764  0E00               	movlw	0
  4930   001766  2228               	addwfc	(??___flmul+1)^0,f,c
  4931   001768  0E82               	movlw	130
  4932   00176A  2427               	addwf	??___flmul^0,w,c
  4933   00176C  6E36               	movwf	___flmul@temp^0,c
  4934   00176E  0EFF               	movlw	255
  4935   001770  2028               	addwfc	(??___flmul+1)^0,w,c
  4936   001772  6E37               	movwf	(___flmul@temp+1)^0,c
  4937   001774  EFD1  F00B         	goto	l2565
  4938   001778                     l2559:
  4939   001778  90D8               	bcf	status,0,c
  4940   00177A  3632               	rlcf	___flmul@prod^0,f,c
  4941   00177C  3633               	rlcf	(___flmul@prod+1)^0,f,c
  4942   00177E  3634               	rlcf	(___flmul@prod+2)^0,f,c
  4943   001780  3635               	rlcf	(___flmul@prod+3)^0,f,c
  4944   001782  AE2F               	btfss	(___flmul@grs+3)^0,7,c
  4945   001784  EFC6  F00B         	goto	u2211
  4946   001788  EFC8  F00B         	goto	u2210
  4947   00178C                     u2211:
  4948   00178C  EFC9  F00B         	goto	l855
  4949   001790                     u2210:
  4950   001790  8032               	bsf	___flmul@prod^0,0,c
  4951   001792                     l855:
  4952   001792  90D8               	bcf	status,0,c
  4953   001794  362C               	rlcf	___flmul@grs^0,f,c
  4954   001796  362D               	rlcf	(___flmul@grs+1)^0,f,c
  4955   001798  362E               	rlcf	(___flmul@grs+2)^0,f,c
  4956   00179A  362F               	rlcf	(___flmul@grs+3)^0,f,c
  4957   00179C  0636               	decf	___flmul@temp^0,f,c
  4958   00179E  A0D8               	btfss	status,0,c
  4959   0017A0  0637               	decf	(___flmul@temp+1)^0,f,c
  4960   0017A2                     l2565:
  4961   0017A2  AE34               	btfss	(___flmul@prod+2)^0,7,c
  4962   0017A4  EFD6  F00B         	goto	u2221
  4963   0017A8  EFD8  F00B         	goto	u2220
  4964   0017AC                     u2221:
  4965   0017AC  EFBC  F00B         	goto	l2559
  4966   0017B0                     u2220:
  4967   0017B0  0E00               	movlw	0
  4968   0017B2  6E30               	movwf	___flmul@aexp^0,c
  4969   0017B4  AE2F               	btfss	(___flmul@grs+3)^0,7,c
  4970   0017B6  EFDF  F00B         	goto	u2231
  4971   0017BA  EFE1  F00B         	goto	u2230
  4972   0017BE                     u2231:
  4973   0017BE  EF05  F00C         	goto	l857
  4974   0017C2                     u2230:
  4975   0017C2  0EFF               	movlw	255
  4976   0017C4  142C               	andwf	___flmul@grs^0,w,c
  4977   0017C6  6E27               	movwf	??___flmul^0,c
  4978   0017C8  0EFF               	movlw	255
  4979   0017CA  142D               	andwf	(___flmul@grs+1)^0,w,c
  4980   0017CC  6E28               	movwf	(??___flmul+1)^0,c
  4981   0017CE  0EFF               	movlw	255
  4982   0017D0  142E               	andwf	(___flmul@grs+2)^0,w,c
  4983   0017D2  6E29               	movwf	(??___flmul+2)^0,c
  4984   0017D4  0E7F               	movlw	127
  4985   0017D6  142F               	andwf	(___flmul@grs+3)^0,w,c
  4986   0017D8  6E2A               	movwf	(??___flmul+3)^0,c
  4987   0017DA  5027               	movf	??___flmul^0,w,c
  4988   0017DC  1028               	iorwf	(??___flmul+1)^0,w,c
  4989   0017DE  1029               	iorwf	(??___flmul+2)^0,w,c
  4990   0017E0  102A               	iorwf	(??___flmul+3)^0,w,c
  4991   0017E2  B4D8               	btfsc	status,2,c
  4992   0017E4  EFF6  F00B         	goto	u2241
  4993   0017E8  EFF8  F00B         	goto	u2240
  4994   0017EC                     u2241:
  4995   0017EC  EFFC  F00B         	goto	l858
  4996   0017F0                     u2240:
  4997   0017F0                     l2573:
  4998   0017F0  0E01               	movlw	1
  4999   0017F2  6E30               	movwf	___flmul@aexp^0,c
  5000   0017F4  EF05  F00C         	goto	l857
  5001   0017F8                     l858:
  5002   0017F8  A032               	btfss	___flmul@prod^0,0,c
  5003   0017FA  EF01  F00C         	goto	u2251
  5004   0017FE  EF03  F00C         	goto	u2250
  5005   001802                     u2251:
  5006   001802  EF05  F00C         	goto	l857
  5007   001806                     u2250:
  5008   001806  EFF8  F00B         	goto	l2573
  5009   00180A                     l857:
  5010   00180A  5030               	movf	___flmul@aexp^0,w,c
  5011   00180C  B4D8               	btfsc	status,2,c
  5012   00180E  EF0B  F00C         	goto	u2261
  5013   001812  EF0D  F00C         	goto	u2260
  5014   001816                     u2261:
  5015   001816  EF31  F00C         	goto	l2585
  5016   00181A                     u2260:
  5017   00181A  0E01               	movlw	1
  5018   00181C  2632               	addwf	___flmul@prod^0,f,c
  5019   00181E  0E00               	movlw	0
  5020   001820  2233               	addwfc	(___flmul@prod+1)^0,f,c
  5021   001822  2234               	addwfc	(___flmul@prod+2)^0,f,c
  5022   001824  2235               	addwfc	(___flmul@prod+3)^0,f,c
  5023   001826  A035               	btfss	(___flmul@prod+3)^0,0,c
  5024   001828  EF18  F00C         	goto	u2271
  5025   00182C  EF1A  F00C         	goto	u2270
  5026   001830                     u2271:
  5027   001830  EF31  F00C         	goto	l2585
  5028   001834                     u2270:
  5029   001834  C032  F027         	movff	___flmul@prod,??___flmul
  5030   001838  C033  F028         	movff	___flmul@prod+1,??___flmul+1
  5031   00183C  C034  F029         	movff	___flmul@prod+2,??___flmul+2
  5032   001840  C035  F02A         	movff	___flmul@prod+3,??___flmul+3
  5033   001844  342A               	rlcf	(??___flmul+3)^0,w,c
  5034   001846  322A               	rrcf	(??___flmul+3)^0,f,c
  5035   001848  3229               	rrcf	(??___flmul+2)^0,f,c
  5036   00184A  3228               	rrcf	(??___flmul+1)^0,f,c
  5037   00184C  3227               	rrcf	??___flmul^0,f,c
  5038   00184E  C027  F032         	movff	??___flmul,___flmul@prod
  5039   001852  C028  F033         	movff	??___flmul+1,___flmul@prod+1
  5040   001856  C029  F034         	movff	??___flmul+2,___flmul@prod+2
  5041   00185A  C02A  F035         	movff	??___flmul+3,___flmul@prod+3
  5042   00185E  4A36               	infsnz	___flmul@temp^0,f,c
  5043   001860  2A37               	incf	(___flmul@temp+1)^0,f,c
  5044   001862                     l2585:
  5045   001862  BE37               	btfsc	(___flmul@temp+1)^0,7,c
  5046   001864  EF3C  F00C         	goto	u2281
  5047   001868  5037               	movf	(___flmul@temp+1)^0,w,c
  5048   00186A  E108               	bnz	u2280
  5049   00186C  2836               	incf	___flmul@temp^0,w,c
  5050   00186E  A0D8               	btfss	status,0,c
  5051   001870  EF3C  F00C         	goto	u2281
  5052   001874  EF3E  F00C         	goto	u2280
  5053   001878                     u2281:
  5054   001878  EF48  F00C         	goto	l2589
  5055   00187C                     u2280:
  5056   00187C  0E00               	movlw	0
  5057   00187E  6E32               	movwf	___flmul@prod^0,c
  5058   001880  0E00               	movlw	0
  5059   001882  6E33               	movwf	(___flmul@prod+1)^0,c
  5060   001884  0E80               	movlw	128
  5061   001886  6E34               	movwf	(___flmul@prod+2)^0,c
  5062   001888  0E7F               	movlw	127
  5063   00188A  6E35               	movwf	(___flmul@prod+3)^0,c
  5064   00188C  EF76  F00C         	goto	l2601
  5065   001890                     l2589:
  5066   001890  BE37               	btfsc	(___flmul@temp+1)^0,7,c
  5067   001892  EF55  F00C         	goto	u2290
  5068   001896  5037               	movf	(___flmul@temp+1)^0,w,c
  5069   001898  E106               	bnz	u2291
  5070   00189A  0436               	decf	___flmul@temp^0,w,c
  5071   00189C  B0D8               	btfsc	status,0,c
  5072   00189E  EF53  F00C         	goto	u2291
  5073   0018A2  EF55  F00C         	goto	u2290
  5074   0018A6                     u2291:
  5075   0018A6  EF61  F00C         	goto	l865
  5076   0018AA                     u2290:
  5077   0018AA  0E00               	movlw	0
  5078   0018AC  6E32               	movwf	___flmul@prod^0,c
  5079   0018AE  0E00               	movlw	0
  5080   0018B0  6E33               	movwf	(___flmul@prod+1)^0,c
  5081   0018B2  0E00               	movlw	0
  5082   0018B4  6E34               	movwf	(___flmul@prod+2)^0,c
  5083   0018B6  0E00               	movlw	0
  5084   0018B8  6E35               	movwf	(___flmul@prod+3)^0,c
  5085   0018BA  0E00               	movlw	0
  5086   0018BC  6E2B               	movwf	___flmul@sign^0,c
  5087   0018BE  EF76  F00C         	goto	l2601
  5088   0018C2                     l865:
  5089   0018C2  C036  F031         	movff	___flmul@temp,___flmul@bexp
  5090   0018C6  0EFF               	movlw	255
  5091   0018C8  1632               	andwf	___flmul@prod^0,f,c
  5092   0018CA  0EFF               	movlw	255
  5093   0018CC  1633               	andwf	(___flmul@prod+1)^0,f,c
  5094   0018CE  0E7F               	movlw	127
  5095   0018D0  1634               	andwf	(___flmul@prod+2)^0,f,c
  5096   0018D2  0E00               	movlw	0
  5097   0018D4  1635               	andwf	(___flmul@prod+3)^0,f,c
  5098   0018D6  A031               	btfss	___flmul@bexp^0,0,c
  5099   0018D8  EF70  F00C         	goto	u2301
  5100   0018DC  EF72  F00C         	goto	u2300
  5101   0018E0                     u2301:
  5102   0018E0  EF73  F00C         	goto	l2599
  5103   0018E4                     u2300:
  5104   0018E4  8E34               	bsf	(___flmul@prod+2)^0,7,c
  5105   0018E6                     l2599:
  5106   0018E6  90D8               	bcf	status,0,c
  5107   0018E8  3031               	rrcf	___flmul@bexp^0,w,c
  5108   0018EA  6E35               	movwf	(___flmul@prod+3)^0,c
  5109   0018EC                     l2601:
  5110   0018EC  502B               	movf	___flmul@sign^0,w,c
  5111   0018EE  1235               	iorwf	(___flmul@prod+3)^0,f,c
  5112   0018F0  C032  F01F         	movff	___flmul@prod,?___flmul
  5113   0018F4  C033  F020         	movff	___flmul@prod+1,?___flmul+1
  5114   0018F8  C034  F021         	movff	___flmul@prod+2,?___flmul+2
  5115   0018FC  C035  F022         	movff	___flmul@prod+3,?___flmul+3
  5116   001900                     l852:
  5117   001900  0012               	return		;funcret
  5118   001902                     __end_of___flmul:
  5119                           	callstack 0
  5120                           
  5121 ;; *************** function ___fldiv *****************
  5122 ;; Defined at:
  5123 ;;		line 11 in file "/opt/microchip/xc8/v2.46/pic/sources/c99/common/sprcdiv.c"
  5124 ;; Parameters:    Size  Location     Type
  5125 ;;  b               4   30[COMRAM] unsigned char 
  5126 ;;  a               4   34[COMRAM] unsigned char 
  5127 ;; Auto vars:     Size  Location     Type
  5128 ;;  grs             4   49[COMRAM] unsigned long 
  5129 ;;  rem             4   42[COMRAM] unsigned long 
  5130 ;;  new_exp         2   47[COMRAM] short 
  5131 ;;  aexp            1   54[COMRAM] unsigned char 
  5132 ;;  bexp            1   53[COMRAM] unsigned char 
  5133 ;;  sign            1   46[COMRAM] unsigned char 
  5134 ;; Return value:  Size  Location     Type
  5135 ;;                  4   30[COMRAM] unsigned char 
  5136 ;; Registers used:
  5137 ;;		wreg, status,2, status,0
  5138 ;; Tracked objects:
  5139 ;;		On entry : 0/0
  5140 ;;		On exit  : 0/0
  5141 ;;		Unchanged: 0/0
  5142 ;; Data sizes:     COMRAM   BANK0   BANK1   BANK2   BANK3   BANK4   BANK5   BANK6   BANK7   BANK8   BANK9  BANK10  BANK1
      +1  BANK12  BANK13  BANK14  BANK15
  5143 ;;      Params:         8       0       0       0       0       0       0       0       0       0       0       0       
      +0       0       0       0       0
  5144 ;;      Locals:        13       0       0       0       0       0       0       0       0       0       0       0       
      +0       0       0       0       0
  5145 ;;      Temps:          4       0       0       0       0       0       0       0       0       0       0       0       
      +0       0       0       0       0
  5146 ;;      Totals:        25       0       0       0       0       0       0       0       0       0       0       0       
      +0       0       0       0       0
  5147 ;;Total ram usage:       25 bytes
  5148 ;; Hardware stack levels used: 1
  5149 ;; This function calls:
  5150 ;;		Nothing
  5151 ;; This function is called by:
  5152 ;;		_BME280_Compensate_Temperature
  5153 ;; This function uses a non-reentrant model
  5154 ;;
  5155                           
  5156                           	psect	text33
  5157   001902                     __ptext33:
  5158                           	callstack 0
  5159   001902                     ___fldiv:
  5160                           	callstack 29
  5161   001902  5022               	movf	(___fldiv@b+3)^0,w,c
  5162   001904  0B80               	andlw	128
  5163   001906  6E2F               	movwf	___fldiv@sign^0,c
  5164   001908  5022               	movf	(___fldiv@b+3)^0,w,c
  5165   00190A  2422               	addwf	(___fldiv@b+3)^0,w,c
  5166   00190C  6E36               	movwf	___fldiv@bexp^0,c
  5167   00190E  AE21               	btfss	(___fldiv@b+2)^0,7,c
  5168   001910  EF8C  F00C         	goto	u1891
  5169   001914  EF8E  F00C         	goto	u1890
  5170   001918                     u1891:
  5171   001918  EF8F  F00C         	goto	l2345
  5172   00191C                     u1890:
  5173   00191C  8036               	bsf	___fldiv@bexp^0,0,c
  5174   00191E                     l2345:
  5175   00191E  5036               	movf	___fldiv@bexp^0,w,c
  5176   001920  B4D8               	btfsc	status,2,c
  5177   001922  EF95  F00C         	goto	u1901
  5178   001926  EF97  F00C         	goto	u1900
  5179   00192A                     u1901:
  5180   00192A  EFAC  F00C         	goto	l2355
  5181   00192E                     u1900:
  5182   00192E  2836               	incf	___fldiv@bexp^0,w,c
  5183   001930  A4D8               	btfss	status,2,c
  5184   001932  EF9D  F00C         	goto	u1911
  5185   001936  EF9F  F00C         	goto	u1910
  5186   00193A                     u1911:
  5187   00193A  EFA7  F00C         	goto	l2351
  5188   00193E                     u1910:
  5189   00193E  0E00               	movlw	0
  5190   001940  6E1F               	movwf	___fldiv@b^0,c
  5191   001942  0E00               	movlw	0
  5192   001944  6E20               	movwf	(___fldiv@b+1)^0,c
  5193   001946  0E00               	movlw	0
  5194   001948  6E21               	movwf	(___fldiv@b+2)^0,c
  5195   00194A  0E00               	movlw	0
  5196   00194C  6E22               	movwf	(___fldiv@b+3)^0,c
  5197   00194E                     l2351:
  5198   00194E  8E21               	bsf	(___fldiv@b+2)^0,7,c
  5199   001950  0E00               	movlw	0
  5200   001952  6E22               	movwf	(___fldiv@b+3)^0,c
  5201   001954  EFB4  F00C         	goto	l2357
  5202   001958                     l2355:
  5203   001958  0E00               	movlw	0
  5204   00195A  6E1F               	movwf	___fldiv@b^0,c
  5205   00195C  0E00               	movlw	0
  5206   00195E  6E20               	movwf	(___fldiv@b+1)^0,c
  5207   001960  0E00               	movlw	0
  5208   001962  6E21               	movwf	(___fldiv@b+2)^0,c
  5209   001964  0E00               	movlw	0
  5210   001966  6E22               	movwf	(___fldiv@b+3)^0,c
  5211   001968                     l2357:
  5212   001968  5026               	movf	(___fldiv@a+3)^0,w,c
  5213   00196A  0B80               	andlw	128
  5214   00196C  1A2F               	xorwf	___fldiv@sign^0,f,c
  5215   00196E  5026               	movf	(___fldiv@a+3)^0,w,c
  5216   001970  2426               	addwf	(___fldiv@a+3)^0,w,c
  5217   001972  6E37               	movwf	___fldiv@aexp^0,c
  5218   001974  AE25               	btfss	(___fldiv@a+2)^0,7,c
  5219   001976  EFBF  F00C         	goto	u1921
  5220   00197A  EFC1  F00C         	goto	u1920
  5221   00197E                     u1921:
  5222   00197E  EFC2  F00C         	goto	l2365
  5223   001982                     u1920:
  5224   001982  8037               	bsf	___fldiv@aexp^0,0,c
  5225   001984                     l2365:
  5226   001984  5037               	movf	___fldiv@aexp^0,w,c
  5227   001986  B4D8               	btfsc	status,2,c
  5228   001988  EFC8  F00C         	goto	u1931
  5229   00198C  EFCA  F00C         	goto	u1930
  5230   001990                     u1931:
  5231   001990  EFDF  F00C         	goto	l2375
  5232   001994                     u1930:
  5233   001994  2837               	incf	___fldiv@aexp^0,w,c
  5234   001996  A4D8               	btfss	status,2,c
  5235   001998  EFD0  F00C         	goto	u1941
  5236   00199C  EFD2  F00C         	goto	u1940
  5237   0019A0                     u1941:
  5238   0019A0  EFDA  F00C         	goto	l2371
  5239   0019A4                     u1940:
  5240   0019A4  0E00               	movlw	0
  5241   0019A6  6E23               	movwf	___fldiv@a^0,c
  5242   0019A8  0E00               	movlw	0
  5243   0019AA  6E24               	movwf	(___fldiv@a+1)^0,c
  5244   0019AC  0E00               	movlw	0
  5245   0019AE  6E25               	movwf	(___fldiv@a+2)^0,c
  5246   0019B0  0E00               	movlw	0
  5247   0019B2  6E26               	movwf	(___fldiv@a+3)^0,c
  5248   0019B4                     l2371:
  5249   0019B4  8E25               	bsf	(___fldiv@a+2)^0,7,c
  5250   0019B6  0E00               	movlw	0
  5251   0019B8  6E26               	movwf	(___fldiv@a+3)^0,c
  5252   0019BA  EFE7  F00C         	goto	l2377
  5253   0019BE                     l2375:
  5254   0019BE  0E00               	movlw	0
  5255   0019C0  6E23               	movwf	___fldiv@a^0,c
  5256   0019C2  0E00               	movlw	0
  5257   0019C4  6E24               	movwf	(___fldiv@a+1)^0,c
  5258   0019C6  0E00               	movlw	0
  5259   0019C8  6E25               	movwf	(___fldiv@a+2)^0,c
  5260   0019CA  0E00               	movlw	0
  5261   0019CC  6E26               	movwf	(___fldiv@a+3)^0,c
  5262   0019CE                     l2377:
  5263   0019CE  5023               	movf	___fldiv@a^0,w,c
  5264   0019D0  1024               	iorwf	(___fldiv@a+1)^0,w,c
  5265   0019D2  1025               	iorwf	(___fldiv@a+2)^0,w,c
  5266   0019D4  1026               	iorwf	(___fldiv@a+3)^0,w,c
  5267   0019D6  A4D8               	btfss	status,2,c
  5268   0019D8  EFF0  F00C         	goto	u1951
  5269   0019DC  EFF2  F00C         	goto	u1950
  5270   0019E0                     u1951:
  5271   0019E0  EF0A  F00D         	goto	l2389
  5272   0019E4                     u1950:
  5273   0019E4  0E00               	movlw	0
  5274   0019E6  6E1F               	movwf	___fldiv@b^0,c
  5275   0019E8  0E00               	movlw	0
  5276   0019EA  6E20               	movwf	(___fldiv@b+1)^0,c
  5277   0019EC  0E00               	movlw	0
  5278   0019EE  6E21               	movwf	(___fldiv@b+2)^0,c
  5279   0019F0  0E00               	movlw	0
  5280   0019F2  6E22               	movwf	(___fldiv@b+3)^0,c
  5281   0019F4  0E80               	movlw	128
  5282   0019F6  1221               	iorwf	(___fldiv@b+2)^0,f,c
  5283   0019F8  0E7F               	movlw	127
  5284   0019FA  1222               	iorwf	(___fldiv@b+3)^0,f,c
  5285   0019FC                     l2383:
  5286   0019FC  502F               	movf	___fldiv@sign^0,w,c
  5287   0019FE  1222               	iorwf	(___fldiv@b+3)^0,f,c
  5288   001A00  C01F  F01F         	movff	___fldiv@b,?___fldiv
  5289   001A04  C020  F020         	movff	___fldiv@b+1,?___fldiv+1
  5290   001A08  C021  F021         	movff	___fldiv@b+2,?___fldiv+2
  5291   001A0C  C022  F022         	movff	___fldiv@b+3,?___fldiv+3
  5292   001A10  EF4D  F00E         	goto	l816
  5293   001A14                     l2389:
  5294   001A14  5036               	movf	___fldiv@bexp^0,w,c
  5295   001A16  A4D8               	btfss	status,2,c
  5296   001A18  EF10  F00D         	goto	u1961
  5297   001A1C  EF12  F00D         	goto	u1960
  5298   001A20                     u1961:
  5299   001A20  EF1C  F00D         	goto	l2397
  5300   001A24                     u1960:
  5301   001A24  0E00               	movlw	0
  5302   001A26  6E1F               	movwf	?___fldiv^0,c
  5303   001A28  0E00               	movlw	0
  5304   001A2A  6E20               	movwf	(?___fldiv+1)^0,c
  5305   001A2C  0E00               	movlw	0
  5306   001A2E  6E21               	movwf	(?___fldiv+2)^0,c
  5307   001A30  0E00               	movlw	0
  5308   001A32  6E22               	movwf	(?___fldiv+3)^0,c
  5309   001A34  EF4D  F00E         	goto	l816
  5310   001A38                     l2397:
  5311   001A38  5037               	movf	___fldiv@aexp^0,w,c
  5312   001A3A  C036  F027         	movff	___fldiv@bexp,??___fldiv
  5313   001A3E  6A28               	clrf	(??___fldiv+1)^0,c
  5314   001A40  5E27               	subwf	??___fldiv^0,f,c
  5315   001A42  0E00               	movlw	0
  5316   001A44  5A28               	subwfb	(??___fldiv+1)^0,f,c
  5317   001A46  0E7F               	movlw	127
  5318   001A48  2427               	addwf	??___fldiv^0,w,c
  5319   001A4A  6E30               	movwf	___fldiv@new_exp^0,c
  5320   001A4C  0E00               	movlw	0
  5321   001A4E  2028               	addwfc	(??___fldiv+1)^0,w,c
  5322   001A50  6E31               	movwf	(___fldiv@new_exp+1)^0,c
  5323   001A52  C01F  F02B         	movff	___fldiv@b,___fldiv@rem
  5324   001A56  C020  F02C         	movff	___fldiv@b+1,___fldiv@rem+1
  5325   001A5A  C021  F02D         	movff	___fldiv@b+2,___fldiv@rem+2
  5326   001A5E  C022  F02E         	movff	___fldiv@b+3,___fldiv@rem+3
  5327   001A62  0E00               	movlw	0
  5328   001A64  6E1F               	movwf	___fldiv@b^0,c
  5329   001A66  0E00               	movlw	0
  5330   001A68  6E20               	movwf	(___fldiv@b+1)^0,c
  5331   001A6A  0E00               	movlw	0
  5332   001A6C  6E21               	movwf	(___fldiv@b+2)^0,c
  5333   001A6E  0E00               	movlw	0
  5334   001A70  6E22               	movwf	(___fldiv@b+3)^0,c
  5335   001A72  0E00               	movlw	0
  5336   001A74  6E32               	movwf	___fldiv@grs^0,c
  5337   001A76  0E00               	movlw	0
  5338   001A78  6E33               	movwf	(___fldiv@grs+1)^0,c
  5339   001A7A  0E00               	movlw	0
  5340   001A7C  6E34               	movwf	(___fldiv@grs+2)^0,c
  5341   001A7E  0E00               	movlw	0
  5342   001A80  6E35               	movwf	(___fldiv@grs+3)^0,c
  5343   001A82  0E00               	movlw	0
  5344   001A84  6E37               	movwf	___fldiv@aexp^0,c
  5345   001A86  EF7D  F00D         	goto	l818
  5346   001A8A                     l2407:
  5347   001A8A  5037               	movf	___fldiv@aexp^0,w,c
  5348   001A8C  B4D8               	btfsc	status,2,c
  5349   001A8E  EF4B  F00D         	goto	u1971
  5350   001A92  EF4D  F00D         	goto	u1970
  5351   001A96                     u1971:
  5352   001A96  EF64  F00D         	goto	l2415
  5353   001A9A                     u1970:
  5354   001A9A  90D8               	bcf	status,0,c
  5355   001A9C  362B               	rlcf	___fldiv@rem^0,f,c
  5356   001A9E  362C               	rlcf	(___fldiv@rem+1)^0,f,c
  5357   001AA0  362D               	rlcf	(___fldiv@rem+2)^0,f,c
  5358   001AA2  362E               	rlcf	(___fldiv@rem+3)^0,f,c
  5359   001AA4  90D8               	bcf	status,0,c
  5360   001AA6  361F               	rlcf	___fldiv@b^0,f,c
  5361   001AA8  3620               	rlcf	(___fldiv@b+1)^0,f,c
  5362   001AAA  3621               	rlcf	(___fldiv@b+2)^0,f,c
  5363   001AAC  3622               	rlcf	(___fldiv@b+3)^0,f,c
  5364   001AAE  AE35               	btfss	(___fldiv@grs+3)^0,7,c
  5365   001AB0  EF5C  F00D         	goto	u1981
  5366   001AB4  EF5E  F00D         	goto	u1980
  5367   001AB8                     u1981:
  5368   001AB8  EF5F  F00D         	goto	l821
  5369   001ABC                     u1980:
  5370   001ABC  801F               	bsf	___fldiv@b^0,0,c
  5371   001ABE                     l821:
  5372   001ABE  90D8               	bcf	status,0,c
  5373   001AC0  3632               	rlcf	___fldiv@grs^0,f,c
  5374   001AC2  3633               	rlcf	(___fldiv@grs+1)^0,f,c
  5375   001AC4  3634               	rlcf	(___fldiv@grs+2)^0,f,c
  5376   001AC6  3635               	rlcf	(___fldiv@grs+3)^0,f,c
  5377   001AC8                     l2415:
  5378   001AC8  5023               	movf	___fldiv@a^0,w,c
  5379   001ACA  5C2B               	subwf	___fldiv@rem^0,w,c
  5380   001ACC  5024               	movf	(___fldiv@a+1)^0,w,c
  5381   001ACE  582C               	subwfb	(___fldiv@rem+1)^0,w,c
  5382   001AD0  5025               	movf	(___fldiv@a+2)^0,w,c
  5383   001AD2  582D               	subwfb	(___fldiv@rem+2)^0,w,c
  5384   001AD4  5026               	movf	(___fldiv@a+3)^0,w,c
  5385   001AD6  582E               	subwfb	(___fldiv@rem+3)^0,w,c
  5386   001AD8  A0D8               	btfss	status,0,c
  5387   001ADA  EF71  F00D         	goto	u1991
  5388   001ADE  EF73  F00D         	goto	u1990
  5389   001AE2                     u1991:
  5390   001AE2  EF7C  F00D         	goto	l2421
  5391   001AE6                     u1990:
  5392   001AE6  8C35               	bsf	(___fldiv@grs+3)^0,6,c
  5393   001AE8  5023               	movf	___fldiv@a^0,w,c
  5394   001AEA  5E2B               	subwf	___fldiv@rem^0,f,c
  5395   001AEC  5024               	movf	(___fldiv@a+1)^0,w,c
  5396   001AEE  5A2C               	subwfb	(___fldiv@rem+1)^0,f,c
  5397   001AF0  5025               	movf	(___fldiv@a+2)^0,w,c
  5398   001AF2  5A2D               	subwfb	(___fldiv@rem+2)^0,f,c
  5399   001AF4  5026               	movf	(___fldiv@a+3)^0,w,c
  5400   001AF6  5A2E               	subwfb	(___fldiv@rem+3)^0,f,c
  5401   001AF8                     l2421:
  5402   001AF8  2A37               	incf	___fldiv@aexp^0,f,c
  5403   001AFA                     l818:
  5404   001AFA  0E19               	movlw	25
  5405   001AFC  6437               	cpfsgt	___fldiv@aexp^0,c
  5406   001AFE  EF83  F00D         	goto	u2001
  5407   001B02  EF85  F00D         	goto	u2000
  5408   001B06                     u2001:
  5409   001B06  EF45  F00D         	goto	l2407
  5410   001B0A                     u2000:
  5411   001B0A  502B               	movf	___fldiv@rem^0,w,c
  5412   001B0C  102C               	iorwf	(___fldiv@rem+1)^0,w,c
  5413   001B0E  102D               	iorwf	(___fldiv@rem+2)^0,w,c
  5414   001B10  102E               	iorwf	(___fldiv@rem+3)^0,w,c
  5415   001B12  B4D8               	btfsc	status,2,c
  5416   001B14  EF8E  F00D         	goto	u2011
  5417   001B18  EF90  F00D         	goto	u2010
  5418   001B1C                     u2011:
  5419   001B1C  EFA8  F00D         	goto	l2433
  5420   001B20                     u2010:
  5421   001B20  8032               	bsf	___fldiv@grs^0,0,c
  5422   001B22  EFA8  F00D         	goto	l2433
  5423   001B26                     l2427:
  5424   001B26  90D8               	bcf	status,0,c
  5425   001B28  361F               	rlcf	___fldiv@b^0,f,c
  5426   001B2A  3620               	rlcf	(___fldiv@b+1)^0,f,c
  5427   001B2C  3621               	rlcf	(___fldiv@b+2)^0,f,c
  5428   001B2E  3622               	rlcf	(___fldiv@b+3)^0,f,c
  5429   001B30  AE35               	btfss	(___fldiv@grs+3)^0,7,c
  5430   001B32  EF9D  F00D         	goto	u2021
  5431   001B36  EF9F  F00D         	goto	u2020
  5432   001B3A                     u2021:
  5433   001B3A  EFA0  F00D         	goto	l827
  5434   001B3E                     u2020:
  5435   001B3E  801F               	bsf	___fldiv@b^0,0,c
  5436   001B40                     l827:
  5437   001B40  90D8               	bcf	status,0,c
  5438   001B42  3632               	rlcf	___fldiv@grs^0,f,c
  5439   001B44  3633               	rlcf	(___fldiv@grs+1)^0,f,c
  5440   001B46  3634               	rlcf	(___fldiv@grs+2)^0,f,c
  5441   001B48  3635               	rlcf	(___fldiv@grs+3)^0,f,c
  5442   001B4A  0630               	decf	___fldiv@new_exp^0,f,c
  5443   001B4C  A0D8               	btfss	status,0,c
  5444   001B4E  0631               	decf	(___fldiv@new_exp+1)^0,f,c
  5445   001B50                     l2433:
  5446   001B50  AE21               	btfss	(___fldiv@b+2)^0,7,c
  5447   001B52  EFAD  F00D         	goto	u2031
  5448   001B56  EFAF  F00D         	goto	u2030
  5449   001B5A                     u2031:
  5450   001B5A  EF93  F00D         	goto	l2427
  5451   001B5E                     u2030:
  5452   001B5E  0E00               	movlw	0
  5453   001B60  6E37               	movwf	___fldiv@aexp^0,c
  5454   001B62  AE35               	btfss	(___fldiv@grs+3)^0,7,c
  5455   001B64  EFB6  F00D         	goto	u2041
  5456   001B68  EFB8  F00D         	goto	u2040
  5457   001B6C                     u2041:
  5458   001B6C  EFDC  F00D         	goto	l829
  5459   001B70                     u2040:
  5460   001B70  0EFF               	movlw	255
  5461   001B72  1432               	andwf	___fldiv@grs^0,w,c
  5462   001B74  6E27               	movwf	??___fldiv^0,c
  5463   001B76  0EFF               	movlw	255
  5464   001B78  1433               	andwf	(___fldiv@grs+1)^0,w,c
  5465   001B7A  6E28               	movwf	(??___fldiv+1)^0,c
  5466   001B7C  0EFF               	movlw	255
  5467   001B7E  1434               	andwf	(___fldiv@grs+2)^0,w,c
  5468   001B80  6E29               	movwf	(??___fldiv+2)^0,c
  5469   001B82  0E7F               	movlw	127
  5470   001B84  1435               	andwf	(___fldiv@grs+3)^0,w,c
  5471   001B86  6E2A               	movwf	(??___fldiv+3)^0,c
  5472   001B88  5027               	movf	??___fldiv^0,w,c
  5473   001B8A  1028               	iorwf	(??___fldiv+1)^0,w,c
  5474   001B8C  1029               	iorwf	(??___fldiv+2)^0,w,c
  5475   001B8E  102A               	iorwf	(??___fldiv+3)^0,w,c
  5476   001B90  B4D8               	btfsc	status,2,c
  5477   001B92  EFCD  F00D         	goto	u2051
  5478   001B96  EFCF  F00D         	goto	u2050
  5479   001B9A                     u2051:
  5480   001B9A  EFD3  F00D         	goto	l830
  5481   001B9E                     u2050:
  5482   001B9E                     l2441:
  5483   001B9E  0E01               	movlw	1
  5484   001BA0  6E37               	movwf	___fldiv@aexp^0,c
  5485   001BA2  EFDC  F00D         	goto	l829
  5486   001BA6                     l830:
  5487   001BA6  A01F               	btfss	___fldiv@b^0,0,c
  5488   001BA8  EFD8  F00D         	goto	u2061
  5489   001BAC  EFDA  F00D         	goto	u2060
  5490   001BB0                     u2061:
  5491   001BB0  EFDC  F00D         	goto	l829
  5492   001BB4                     u2060:
  5493   001BB4  EFCF  F00D         	goto	l2441
  5494   001BB8                     l829:
  5495   001BB8  5037               	movf	___fldiv@aexp^0,w,c
  5496   001BBA  B4D8               	btfsc	status,2,c
  5497   001BBC  EFE2  F00D         	goto	u2071
  5498   001BC0  EFE4  F00D         	goto	u2070
  5499   001BC4                     u2071:
  5500   001BC4  EF08  F00E         	goto	l2453
  5501   001BC8                     u2070:
  5502   001BC8  0E01               	movlw	1
  5503   001BCA  261F               	addwf	___fldiv@b^0,f,c
  5504   001BCC  0E00               	movlw	0
  5505   001BCE  2220               	addwfc	(___fldiv@b+1)^0,f,c
  5506   001BD0  2221               	addwfc	(___fldiv@b+2)^0,f,c
  5507   001BD2  2222               	addwfc	(___fldiv@b+3)^0,f,c
  5508   001BD4  A022               	btfss	(___fldiv@b+3)^0,0,c
  5509   001BD6  EFEF  F00D         	goto	u2081
  5510   001BDA  EFF1  F00D         	goto	u2080
  5511   001BDE                     u2081:
  5512   001BDE  EF08  F00E         	goto	l2453
  5513   001BE2                     u2080:
  5514   001BE2  C01F  F027         	movff	___fldiv@b,??___fldiv
  5515   001BE6  C020  F028         	movff	___fldiv@b+1,??___fldiv+1
  5516   001BEA  C021  F029         	movff	___fldiv@b+2,??___fldiv+2
  5517   001BEE  C022  F02A         	movff	___fldiv@b+3,??___fldiv+3
  5518   001BF2  342A               	rlcf	(??___fldiv+3)^0,w,c
  5519   001BF4  322A               	rrcf	(??___fldiv+3)^0,f,c
  5520   001BF6  3229               	rrcf	(??___fldiv+2)^0,f,c
  5521   001BF8  3228               	rrcf	(??___fldiv+1)^0,f,c
  5522   001BFA  3227               	rrcf	??___fldiv^0,f,c
  5523   001BFC  C027  F01F         	movff	??___fldiv,___fldiv@b
  5524   001C00  C028  F020         	movff	??___fldiv+1,___fldiv@b+1
  5525   001C04  C029  F021         	movff	??___fldiv+2,___fldiv@b+2
  5526   001C08  C02A  F022         	movff	??___fldiv+3,___fldiv@b+3
  5527   001C0C  4A30               	infsnz	___fldiv@new_exp^0,f,c
  5528   001C0E  2A31               	incf	(___fldiv@new_exp+1)^0,f,c
  5529   001C10                     l2453:
  5530   001C10  BE31               	btfsc	(___fldiv@new_exp+1)^0,7,c
  5531   001C12  EF13  F00E         	goto	u2091
  5532   001C16  5031               	movf	(___fldiv@new_exp+1)^0,w,c
  5533   001C18  E108               	bnz	u2090
  5534   001C1A  2830               	incf	___fldiv@new_exp^0,w,c
  5535   001C1C  A0D8               	btfss	status,0,c
  5536   001C1E  EF13  F00E         	goto	u2091
  5537   001C22  EF15  F00E         	goto	u2090
  5538   001C26                     u2091:
  5539   001C26  EF20  F00E         	goto	l2457
  5540   001C2A                     u2090:
  5541   001C2A  0E00               	movlw	0
  5542   001C2C  6E31               	movwf	(___fldiv@new_exp+1)^0,c
  5543   001C2E  6830               	setf	___fldiv@new_exp^0,c
  5544   001C30  0E00               	movlw	0
  5545   001C32  6E1F               	movwf	___fldiv@b^0,c
  5546   001C34  0E00               	movlw	0
  5547   001C36  6E20               	movwf	(___fldiv@b+1)^0,c
  5548   001C38  0E00               	movlw	0
  5549   001C3A  6E21               	movwf	(___fldiv@b+2)^0,c
  5550   001C3C  0E00               	movlw	0
  5551   001C3E  6E22               	movwf	(___fldiv@b+3)^0,c
  5552   001C40                     l2457:
  5553   001C40  BE31               	btfsc	(___fldiv@new_exp+1)^0,7,c
  5554   001C42  EF2D  F00E         	goto	u2100
  5555   001C46  5031               	movf	(___fldiv@new_exp+1)^0,w,c
  5556   001C48  E106               	bnz	u2101
  5557   001C4A  0430               	decf	___fldiv@new_exp^0,w,c
  5558   001C4C  B0D8               	btfsc	status,0,c
  5559   001C4E  EF2B  F00E         	goto	u2101
  5560   001C52  EF2D  F00E         	goto	u2100
  5561   001C56                     u2101:
  5562   001C56  EF3B  F00E         	goto	l2461
  5563   001C5A                     u2100:
  5564   001C5A  0E00               	movlw	0
  5565   001C5C  6E31               	movwf	(___fldiv@new_exp+1)^0,c
  5566   001C5E  0E00               	movlw	0
  5567   001C60  6E30               	movwf	___fldiv@new_exp^0,c
  5568   001C62  0E00               	movlw	0
  5569   001C64  6E1F               	movwf	___fldiv@b^0,c
  5570   001C66  0E00               	movlw	0
  5571   001C68  6E20               	movwf	(___fldiv@b+1)^0,c
  5572   001C6A  0E00               	movlw	0
  5573   001C6C  6E21               	movwf	(___fldiv@b+2)^0,c
  5574   001C6E  0E00               	movlw	0
  5575   001C70  6E22               	movwf	(___fldiv@b+3)^0,c
  5576   001C72  0E00               	movlw	0
  5577   001C74  6E2F               	movwf	___fldiv@sign^0,c
  5578   001C76                     l2461:
  5579   001C76  C030  F036         	movff	___fldiv@new_exp,___fldiv@bexp
  5580   001C7A  A036               	btfss	___fldiv@bexp^0,0,c
  5581   001C7C  EF42  F00E         	goto	u2111
  5582   001C80  EF44  F00E         	goto	u2110
  5583   001C84                     u2111:
  5584   001C84  EF47  F00E         	goto	l2467
  5585   001C88                     u2110:
  5586   001C88  8E21               	bsf	(___fldiv@b+2)^0,7,c
  5587   001C8A  EF48  F00E         	goto	l2469
  5588   001C8E                     l2467:
  5589   001C8E  9E21               	bcf	(___fldiv@b+2)^0,7,c
  5590   001C90                     l2469:
  5591   001C90  90D8               	bcf	status,0,c
  5592   001C92  3036               	rrcf	___fldiv@bexp^0,w,c
  5593   001C94  6E22               	movwf	(___fldiv@b+3)^0,c
  5594   001C96  EFFE  F00C         	goto	l2383
  5595   001C9A                     l816:
  5596   001C9A  0012               	return		;funcret
  5597   001C9C                     __end_of___fldiv:
  5598                           	callstack 0
  5599                           
  5600                           	psect	rparam
  5601   000000                     
  5602                           	psect	config
  5603                           
  5604                           ; Padding undefined space
  5605   300000                     	org	3145728
  5606   300000  FF                 	db	255
  5607                           
  5608                           ;Config register CONFIG1H @ 0x300001
  5609                           ;	Oscillator Selection bits
  5610                           ;	FOSC = INTIO67, Internal oscillator block
  5611                           ;	4X PLL Enable
  5612                           ;	PLLCFG = OFF, Oscillator used directly
  5613                           ;	Primary clock enable bit
  5614                           ;	PRICLKEN = ON, Primary clock is always enabled
  5615                           ;	Fail-Safe Clock Monitor Enable bit
  5616                           ;	FCMEN = OFF, Fail-Safe Clock Monitor disabled
  5617                           ;	Internal/External Oscillator Switchover bit
  5618                           ;	IESO = OFF, Oscillator Switchover mode disabled
  5619   300001                     	org	3145729
  5620   300001  28                 	db	40
  5621                           
  5622                           ;Config register CONFIG2L @ 0x300002
  5623                           ;	Power-up Timer Enable bit
  5624                           ;	PWRTEN = OFF, Power up timer disabled
  5625                           ;	Brown-out Reset Enable bits
  5626                           ;	BOREN = SBORDIS, Brown-out Reset enabled in hardware only (SBOREN is disabled)
  5627                           ;	Brown Out Reset Voltage bits
  5628                           ;	BORV = 190, VBOR set to 1.90 V nominal
  5629   300002                     	org	3145730
  5630   300002  1F                 	db	31
  5631                           
  5632                           ;Config register CONFIG2H @ 0x300003
  5633                           ;	Watchdog Timer Enable bits
  5634                           ;	WDTEN = OFF, Watch dog timer is always disabled. SWDTEN has no effect.
  5635                           ;	Watchdog Timer Postscale Select bits
  5636                           ;	WDTPS = 32768, 1:32768
  5637   300003                     	org	3145731
  5638   300003  3C                 	db	60
  5639                           
  5640                           ; Padding undefined space
  5641   300004                     	org	3145732
  5642   300004  FF                 	db	255
  5643                           
  5644                           ;Config register CONFIG3H @ 0x300005
  5645                           ;	CCP2 MUX bit
  5646                           ;	CCP2MX = PORTC1, CCP2 input/output is multiplexed with RC1
  5647                           ;	PORTB A/D Enable bit
  5648                           ;	PBADEN = OFF, PORTB<5:0> pins are configured as digital I/O on Reset
  5649                           ;	P3A/CCP3 Mux bit
  5650                           ;	CCP3MX = PORTB5, P3A/CCP3 input/output is multiplexed with RB5
  5651                           ;	HFINTOSC Fast Start-up
  5652                           ;	HFOFST = ON, HFINTOSC output and ready status are not delayed by the oscillator stable
      +                           status
  5653                           ;	Timer3 Clock input mux bit
  5654                           ;	T3CMX = PORTC0, T3CKI is on RC0
  5655                           ;	ECCP2 B output mux bit
  5656                           ;	P2BMX = PORTD2, P2B is on RD2
  5657                           ;	MCLR Pin Enable bit
  5658                           ;	MCLRE = EXTMCLR, MCLR pin enabled, RE3 input pin disabled
  5659   300005                     	org	3145733
  5660   300005  BD                 	db	189
  5661                           
  5662                           ;Config register CONFIG4L @ 0x300006
  5663                           ;	Stack Full/Underflow Reset Enable bit
  5664                           ;	STVREN = ON, Stack full/underflow will cause Reset
  5665                           ;	Single-Supply ICSP Enable bit
  5666                           ;	LVP = OFF, Single-Supply ICSP disabled
  5667                           ;	Extended Instruction Set Enable bit
  5668                           ;	XINST = OFF, Instruction set extension and Indexed Addressing mode disabled (Legacy mo
      +                          de)
  5669                           ;	Background Debug
  5670                           ;	DEBUG = 0x1, unprogrammed default
  5671   300006                     	org	3145734
  5672   300006  81                 	db	129
  5673                           
  5674                           ; Padding undefined space
  5675   300007                     	org	3145735
  5676   300007  FF                 	db	255
  5677                           
  5678                           ;Config register CONFIG5L @ 0x300008
  5679                           ;	Code Protection Block 0
  5680                           ;	CP0 = OFF, Block 0 (000800-003FFFh) not code-protected
  5681                           ;	Code Protection Block 1
  5682                           ;	CP1 = OFF, Block 1 (004000-007FFFh) not code-protected
  5683                           ;	Code Protection Block 2
  5684                           ;	CP2 = OFF, Block 2 (008000-00BFFFh) not code-protected
  5685                           ;	Code Protection Block 3
  5686                           ;	CP3 = OFF, Block 3 (00C000-00FFFFh) not code-protected
  5687   300008                     	org	3145736
  5688   300008  0F                 	db	15
  5689                           
  5690                           ;Config register CONFIG5H @ 0x300009
  5691                           ;	Boot Block Code Protection bit
  5692                           ;	CPB = OFF, Boot block (000000-0007FFh) not code-protected
  5693                           ;	Data EEPROM Code Protection bit
  5694                           ;	CPD = OFF, Data EEPROM not code-protected
  5695   300009                     	org	3145737
  5696   300009  C0                 	db	192
  5697                           
  5698                           ;Config register CONFIG6L @ 0x30000A
  5699                           ;	Write Protection Block 0
  5700                           ;	WRT0 = OFF, Block 0 (000800-003FFFh) not write-protected
  5701                           ;	Write Protection Block 1
  5702                           ;	WRT1 = OFF, Block 1 (004000-007FFFh) not write-protected
  5703                           ;	Write Protection Block 2
  5704                           ;	WRT2 = OFF, Block 2 (008000-00BFFFh) not write-protected
  5705                           ;	Write Protection Block 3
  5706                           ;	WRT3 = OFF, Block 3 (00C000-00FFFFh) not write-protected
  5707   30000A                     	org	3145738
  5708   30000A  0F                 	db	15
  5709                           
  5710                           ;Config register CONFIG6H @ 0x30000B
  5711                           ;	Configuration Register Write Protection bit
  5712                           ;	WRTC = OFF, Configuration registers (300000-3000FFh) not write-protected
  5713                           ;	Boot Block Write Protection bit
  5714                           ;	WRTB = OFF, Boot Block (000000-0007FFh) not write-protected
  5715                           ;	Data EEPROM Write Protection bit
  5716                           ;	WRTD = OFF, Data EEPROM not write-protected
  5717   30000B                     	org	3145739
  5718   30000B  E0                 	db	224
  5719                           
  5720                           ;Config register CONFIG7L @ 0x30000C
  5721                           ;	Table Read Protection Block 0
  5722                           ;	EBTR0 = OFF, Block 0 (000800-003FFFh) not protected from table reads executed in other
      +                           blocks
  5723                           ;	Table Read Protection Block 1
  5724                           ;	EBTR1 = OFF, Block 1 (004000-007FFFh) not protected from table reads executed in other
      +                           blocks
  5725                           ;	Table Read Protection Block 2
  5726                           ;	EBTR2 = OFF, Block 2 (008000-00BFFFh) not protected from table reads executed in other
      +                           blocks
  5727                           ;	Table Read Protection Block 3
  5728                           ;	EBTR3 = OFF, Block 3 (00C000-00FFFFh) not protected from table reads executed in other
      +                           blocks
  5729   30000C                     	org	3145740
  5730   30000C  0F                 	db	15
  5731                           
  5732                           ;Config register CONFIG7H @ 0x30000D
  5733                           ;	Boot Block Table Read Protection bit
  5734                           ;	EBTRB = OFF, Boot Block (000000-0007FFh) not protected from table reads executed in ot
      +                          her blocks
  5735   30000D                     	org	3145741
  5736   30000D  40                 	db	64
  5737                           tosu	equ	0xFFF
  5738                           tosh	equ	0xFFE
  5739                           tosl	equ	0xFFD
  5740                           stkptr	equ	0xFFC
  5741                           pclatu	equ	0xFFB
  5742                           pclath	equ	0xFFA
  5743                           pcl	equ	0xFF9
  5744                           tblptru	equ	0xFF8
  5745                           tblptrh	equ	0xFF7
  5746                           tblptrl	equ	0xFF6
  5747                           tablat	equ	0xFF5
  5748                           prodh	equ	0xFF4
  5749                           prodl	equ	0xFF3
  5750                           indf0	equ	0xFEF
  5751                           postinc0	equ	0xFEE
  5752                           postdec0	equ	0xFED
  5753                           preinc0	equ	0xFEC
  5754                           plusw0	equ	0xFEB
  5755                           fsr0h	equ	0xFEA
  5756                           fsr0l	equ	0xFE9
  5757                           wreg	equ	0xFE8
  5758                           indf1	equ	0xFE7
  5759                           postinc1	equ	0xFE6
  5760                           postdec1	equ	0xFE5
  5761                           preinc1	equ	0xFE4
  5762                           plusw1	equ	0xFE3
  5763                           fsr1h	equ	0xFE2
  5764                           fsr1l	equ	0xFE1
  5765                           bsr	equ	0xFE0
  5766                           indf2	equ	0xFDF
  5767                           postinc2	equ	0xFDE
  5768                           postdec2	equ	0xFDD
  5769                           preinc2	equ	0xFDC
  5770                           plusw2	equ	0xFDB
  5771                           fsr2h	equ	0xFDA
  5772                           fsr2l	equ	0xFD9
  5773                           status	equ	0xFD8

Data Sizes:
    Strings     21
    Constant    0
    Data        2
    BSS         37
    Persistent  0
    Stack       0

Auto Spaces:
    Space          Size  Autos    Used
    COMRAM           95     95      95
    BANK0           160     19      58
    BANK1           256      0       0
    BANK2           256      0       0
    BANK3           256      0       0
    BANK4           256      0       0
    BANK5           256      0       0
    BANK6           256      0       0
    BANK7           256      0       0
    BANK8           256      0       0
    BANK9           256      0       0
    BANK10          256      0       0
    BANK11          256      0       0
    BANK12          256      0       0
    BANK13          256      0       0
    BANK14          256      0       0
    BANK15           56      0       0

Pointer List with Targets:

    LCDWriteHexa@hexa	PTR unsigned char  size(1) Largest target is 17
		 -> STR_1(CODE[17]), 

    LCDWriteStr@string	PTR const unsigned char  size(2) Largest target is 5
		 -> LCDWriteFloat@string(COMRAM[5]), LCDWriteHexa@string(COMRAM[3]), LCDWriteInt@string(COMRAM[3]), STR_2(CODE[2]), 
		 -> STR_3(CODE[2]), 


Critical Paths under _main in COMRAM

    _main->_BME280_Compensate_Temperature
    _i2c_repStart->_i2c_waitForIdle
    _LCDWriteFloat->___lwmod
    ___lwmod->___fltol
    _LCDInit->_WriteNibble
    _LCDClear->_WriteByte
    _I2C_Write_Register->_i2c_write
    _BME280_Read_Temperature->_LCDWriteHexa
    _LCDWriteHexa->_LCDGoto
    _LCDWriteHexa->_LCDWriteStr
    _LCDWriteStr->_LCDPutChar
    _LCDPutChar->_WriteByte
    _LCDGoto->_WriteByte
    _WriteByte->_WriteNibble
    _WaitLCD->_ReadByte
    _BME280_Read_Compensation_Params->_i2c_read
    _BME280_Read_Compensation_Params->_i2c_write
    _i2c_read->_i2c_waitForIdle
    _BME280_Init->_i2c_write
    _i2c_write->_i2c_waitForIdle
    _i2c_stop->_i2c_waitForIdle
    _BME280_Compensate_Temperature->___fltol
    ___xxtofl->___fladd
    ___fltol->___flmul
    ___flsub->___fldiv
    ___flmul->___xxtofl
    ___fldiv->___xxtofl

Critical Paths under _main in BANK0

    None.

Critical Paths under _main in BANK1

    None.

Critical Paths under _main in BANK2

    None.

Critical Paths under _main in BANK3

    None.

Critical Paths under _main in BANK4

    None.

Critical Paths under _main in BANK5

    None.

Critical Paths under _main in BANK6

    None.

Critical Paths under _main in BANK7

    None.

Critical Paths under _main in BANK8

    None.

Critical Paths under _main in BANK9

    None.

Critical Paths under _main in BANK10

    None.

Critical Paths under _main in BANK11

    None.

Critical Paths under _main in BANK12

    None.

Critical Paths under _main in BANK13

    None.

Critical Paths under _main in BANK14

    None.

Critical Paths under _main in BANK15

    None.

Call Graph Tables:

 ---------------------------------------------------------------------------------
 (Depth) Function   	        Calls       Base Space   Used Autos Params    Refs
 ---------------------------------------------------------------------------------
 (0) _main                                                43    38      5   39932
                                             89 COMRAM     6     1      5
                                              0 BANK0     19    19      0
      _BME280_Compensate_Temperature
                        _BME280_Init
    _BME280_Read_Compensation_Params
            _BME280_Read_Temperature
                 _I2C_Write_Register
                           _LCDClear
                            _LCDGoto
                            _LCDInit
                      _LCDWriteFloat
                       _LCDWriteHexa
                        _LCDWriteStr
                            _i2c_ACK
                            _i2c_NAK
                           _i2c_init
                           _i2c_read
                       _i2c_repStart
                          _i2c_start
                           _i2c_stop
                          _i2c_write
 ---------------------------------------------------------------------------------
 (1) _i2c_repStart                                         0     0      0       0
                    _i2c_waitForIdle
 ---------------------------------------------------------------------------------
 (1) _i2c_init                                             0     0      0       0
 ---------------------------------------------------------------------------------
 (1) _LCDWriteFloat                                       13     8      5    8472
                                             70 COMRAM    13     8      5
                            _LCDGoto
                        _LCDWriteStr
                            ___flmul
                            ___fltol
                            ___lwdiv
                            ___lwmod
 ---------------------------------------------------------------------------------
 (2) ___lwmod                                              5     1      4     615
                                             65 COMRAM     5     1      4
                            ___flmul (ARG)
                            ___fltol (ARG)
                            ___lwdiv (ARG)
 ---------------------------------------------------------------------------------
 (2) ___lwdiv                                              7     3      4     466
                                              0 COMRAM     7     3      4
 ---------------------------------------------------------------------------------
 (1) _LCDInit                                              1     1      0    1307
                                              3 COMRAM     1     1      0
                            _WaitLCD
                        _WriteNibble
 ---------------------------------------------------------------------------------
 (1) _LCDClear                                             1     1      0    1699
                                              5 COMRAM     1     1      0
                            _WaitLCD
                          _WriteByte
 ---------------------------------------------------------------------------------
 (1) _I2C_Write_Register                                   5     1      4     262
                                              2 COMRAM     5     1      4
                          _i2c_start
                           _i2c_stop
                          _i2c_write
 ---------------------------------------------------------------------------------
 (1) _BME280_Read_Temperature                             18    14      4    6030
                                             20 COMRAM    18    14      4
                       _LCDWriteHexa
                            _i2c_ACK
                            _i2c_NAK
                           _i2c_read
                          _i2c_start
                           _i2c_stop
                          _i2c_write
 ---------------------------------------------------------------------------------
 (1) _LCDWriteHexa                                         9     7      2    5826
                                             11 COMRAM     9     7      2
                            _LCDGoto
                        _LCDWriteStr
 ---------------------------------------------------------------------------------
 (1) _LCDWriteStr                                          5     3      2    2191
                                              6 COMRAM     5     3      2
                         _LCDPutChar
 ---------------------------------------------------------------------------------
 (2) _LCDPutChar                                           1     1      0    1721
                                              5 COMRAM     1     1      0
                            _WaitLCD
                          _WriteByte
 ---------------------------------------------------------------------------------
 (2) _LCDGoto                                              6     5      1    2213
                                              5 COMRAM     6     5      1
                            _WaitLCD
                          _WriteByte
 ---------------------------------------------------------------------------------
 (3) _WriteByte                                            2     1      1    1652
                                              3 COMRAM     2     1      1
                        _WriteNibble
 ---------------------------------------------------------------------------------
 (4) _WriteNibble                                          3     2      1    1260
                                              0 COMRAM     3     2      1
 ---------------------------------------------------------------------------------
 (3) _WaitLCD                                              1     1      0      47
                                              1 COMRAM     1     1      0
                           _ReadByte
 ---------------------------------------------------------------------------------
 (4) _ReadByte                                             1     1      0      24
                                              0 COMRAM     1     1      0
 ---------------------------------------------------------------------------------
 (1) _BME280_Read_Compensation_Params                     16    16      0     299
                                              2 COMRAM    16    16      0
                            _i2c_ACK
                            _i2c_NAK
                           _i2c_read
                          _i2c_start
                           _i2c_stop
                          _i2c_write
 ---------------------------------------------------------------------------------
 (1) _i2c_read                                             1     1      0      24
                                              1 COMRAM     1     1      0
                    _i2c_waitForIdle
 ---------------------------------------------------------------------------------
 (1) _i2c_NAK                                              0     0      0       0
 ---------------------------------------------------------------------------------
 (1) _i2c_ACK                                              0     0      0       0
 ---------------------------------------------------------------------------------
 (1) _BME280_Init                                          0     0      0      22
                          _i2c_start
                           _i2c_stop
                          _i2c_write
 ---------------------------------------------------------------------------------
 (1) _i2c_write                                            1     1      0      22
                                              1 COMRAM     1     1      0
                    _i2c_waitForIdle
 ---------------------------------------------------------------------------------
 (1) _i2c_stop                                             0     0      0       0
                    _i2c_waitForIdle
 ---------------------------------------------------------------------------------
 (2) _i2c_waitForIdle                                      1     1      0       0
                                              0 COMRAM     1     1      0
 ---------------------------------------------------------------------------------
 (1) _i2c_start                                            0     0      0       0
 ---------------------------------------------------------------------------------
 (1) _BME280_Compensate_Temperature                       32    28      4   11376
                                             65 COMRAM    24    20      4
                            ___fladd
                            ___fldiv
                            ___flmul
                            ___flsub
                            ___fltol
                           ___xxtofl
 ---------------------------------------------------------------------------------
 (2) ___xxtofl                                            14    10      4     854
                                             16 COMRAM    14    10      4
                            ___fladd (ARG)
 ---------------------------------------------------------------------------------
 (2) ___fltol                                             10     6      4     381
                                             55 COMRAM    10     6      4
                            ___fladd (ARG)
                            ___flmul (ARG)
                           ___xxtofl (ARG)
 ---------------------------------------------------------------------------------
 (2) ___flsub                                              8     0      8    3041
                                             55 COMRAM     8     0      8
                            ___fladd
                            ___fldiv (ARG)
                           ___xxtofl (ARG)
 ---------------------------------------------------------------------------------
 (3) ___fladd                                             16     8      8    2566
                                              0 COMRAM    16     8      8
 ---------------------------------------------------------------------------------
 (2) ___flmul                                             25    17      8    2200
                                             30 COMRAM    25    17      8
                           ___xxtofl (ARG)
 ---------------------------------------------------------------------------------
 (2) ___fldiv                                             25    17      8    2007
                                             30 COMRAM    25    17      8
                            ___fladd (ARG)
                           ___xxtofl (ARG)
 ---------------------------------------------------------------------------------
 Estimated maximum stack depth 4
 ---------------------------------------------------------------------------------

 Call Graph Graphs:

 _main (ROOT)
   _BME280_Compensate_Temperature
     ___fladd
     ___fldiv
       ___fladd (ARG)
       ___xxtofl (ARG)
         ___fladd (ARG)
     ___flmul
       ___xxtofl (ARG)
     ___flsub
       ___fladd
       ___fldiv (ARG)
       ___xxtofl (ARG)
     ___fltol
       ___fladd (ARG)
       ___flmul (ARG)
       ___xxtofl (ARG)
     ___xxtofl
   _BME280_Init
     _i2c_start
     _i2c_stop
       _i2c_waitForIdle
     _i2c_write
       _i2c_waitForIdle
   _BME280_Read_Compensation_Params
     _i2c_ACK
     _i2c_NAK
     _i2c_read
       _i2c_waitForIdle
     _i2c_start
     _i2c_stop
     _i2c_write
   _BME280_Read_Temperature
     _LCDWriteHexa
       _LCDGoto
         _WaitLCD
           _ReadByte
         _WriteByte
           _WriteNibble
       _LCDWriteStr
         _LCDPutChar
           _WaitLCD
           _WriteByte
     _i2c_ACK
     _i2c_NAK
     _i2c_read
     _i2c_start
     _i2c_stop
     _i2c_write
   _I2C_Write_Register
     _i2c_start
     _i2c_stop
     _i2c_write
   _LCDClear
     _WaitLCD
     _WriteByte
   _LCDGoto
   _LCDInit
     _WaitLCD
     _WriteNibble
   _LCDWriteFloat
     _LCDGoto
     _LCDWriteStr
     ___flmul
     ___fltol
     ___lwdiv
     ___lwmod
       ___flmul (ARG)
       ___fltol (ARG)
       ___lwdiv (ARG)
   _LCDWriteHexa
   _LCDWriteStr
   _i2c_ACK
   _i2c_NAK
   _i2c_init
   _i2c_read
   _i2c_repStart
     _i2c_waitForIdle
   _i2c_start
   _i2c_stop
   _i2c_write

 Address spaces:
Name               Size   Autos  Total    Cost      Usage
BIGRAM             F37      0       0      46        0.0%
EEDATA             400      0       0       0        0.0%
BITBANK14          100      0       0      32        0.0%
BANK14             100      0       0      33        0.0%
BITBANK13          100      0       0      30        0.0%
BANK13             100      0       0      31        0.0%
BITBANK12          100      0       0      28        0.0%
BANK12             100      0       0      29        0.0%
BITBANK11          100      0       0      26        0.0%
BANK11             100      0       0      27        0.0%
BITBANK10          100      0       0      24        0.0%
BANK10             100      0       0      25        0.0%
BITBANK9           100      0       0      22        0.0%
BANK9              100      0       0      23        0.0%
BITBANK8           100      0       0      20        0.0%
BANK8              100      0       0      21        0.0%
BITBANK7           100      0       0      18        0.0%
BANK7              100      0       0      19        0.0%
BITBANK6           100      0       0      16        0.0%
BANK6              100      0       0      17        0.0%
BITBANK5           100      0       0      14        0.0%
BANK5              100      0       0      15        0.0%
BITBANK4           100      0       0      12        0.0%
BANK4              100      0       0      13        0.0%
BITBANK3           100      0       0      10        0.0%
BANK3              100      0       0      11        0.0%
BITBANK2           100      0       0       8        0.0%
BANK2              100      0       0       9        0.0%
BITBANK1           100      0       0       6        0.0%
BANK1              100      0       0       7        0.0%
BITBANK0            A0      0       0       4        0.0%
BANK0               A0     13      3A       5       36.2%
BITCOMRAM           5F      0       0       0        0.0%
COMRAM              5F     5F      5F       1      100.0%
BITBIGSFRlhll       48      0       0      43        0.0%
BITBANK15           38      0       0      34        0.0%
BANK15              38      0       0      35        0.0%
BITBIGSFRhhhh       34      0       0      36        0.0%
BITBIGSFRhlhh       23      0       0      38        0.0%
BITBIGSFRlhlh        8      0       0      42        0.0%
BITBIGSFRhll         8      0       0      40        0.0%
BITBIGSFRlhh         7      0       0      41        0.0%
BITBIGSFRhlhl        2      0       0      39        0.0%
BITBIGSFRll          2      0       0      44        0.0%
BITBIGSFRhhhl        1      0       0      37        0.0%
BIGSFR               0      0       0     200        0.0%
BITSFR_1             0      0       0     200        0.0%
SFR_1                0      0       0     200        0.0%
BITSFR               0      0       0     200        0.0%
SFR                  0      0       0     200        0.0%
STACK                0      0       0       2        0.0%
NULL                 0      0       0       0        0.0%
ABS                  0      0      99      45        0.0%
DATA                 0      0      99       3        0.0%
CODE                 0      0       0       0        0.0%


Microchip Technology PIC18 Macro Assembler V2.46 build 20240104201356 
Symbol Table                                                                                   Mon Jun 17 15:54:34 2024

                                ___fldiv@aexp 0037                                  ___fldiv@bexp 0036  
                                ___fldiv@sign 002F                                   _SSPSTATbits 0FC7  
                                          l41 2C82                                            l50 2C34  
                                          l35 2B5A                                   ?_LCDPutChar 0001  
                                          l44 2C1C                                            l53 2C42  
                                          l29 2AD0                                            l38 2C74  
                                          l62 2C4A                                            l70 2BB8  
                                          l71 2BC0                                            l47 2C2A  
                                          l56 2C60                                            l65 2C58  
                                          l74 2BEA                                            l59 2C6E  
                                          l68 2BAA                                            l92 2B00  
                                          l77 2BF8                                            l96 2BDA  
                                          l97 2BDC                                           l100 2A4E  
                                         l103 2C12                                           l122 2C94  
                                         l106 2538                                           l115 28F4  
                                         l131 2816                                           l212 279A  
                                         l109 2BA0                                           l134 29B2  
                                         l207 2A02                                           l215 2610  
                                         l137 26E6                                           l218 1F7E  
                                         l227 2048                                           l531 2450  
                                         l189 2B80                                           l804 2A94  
                                         l732 288A                                           l821 1ABE  
                                         l725 2882                                           l830 1BA6  
                                         l742 2958                                           l903 22E2  
                                         l735 2950                                           l816 1C9A  
                                         l818 1AFA                                           l762 1206  
                                         l827 1B40                                           l771 14D6  
                                         l763 11F4                                           l852 1900  
                                         l764 11BA                                           l829 1BB8  
                                         l855 1792                                           l848 159C  
                                         l865 18C2                                           l857 180A  
                                         l858 17F8                                           l779 1320  
                                         l788 13F0                                           l892 234A  
                                         l789 13DE                                           l896 2286  
                                         l889 21EE                                           wreg 0FE8  
                                ___flmul@aexp 0030                                  ___flmul@bexp 0031  
                                ___flmul@sign 002B                                  ___flmul@temp 0036  
                                ___flmul@prod 0032                               __end_of_LCDInit 253A  
                             __end_of_LCDGoto 28F6                                  ?_LCDWriteStr 0007  
                                ___fltol@exp1 0041                                          l2101 1034  
                                        l2021 2AE8                                          l2103 1044  
                                        l2111 106E                                          l2031 2AF8  
                                        l2023 2AEA                                          l2015 2AD2  
                                        l2201 1238                                          l2121 109E  
                                        l2113 107E                                          l2105 1054  
                                        l2033 2AFA                                          l2025 2AEC  
                                        l2017 2AE0                                          l2041 2A06  
                                        l2211 1274                                          l2203 1248  
                                        l2131 10DE                                          l2123 10AC  
                                        l2115 1084                                          l2107 1064  
                                        l2035 2AFC                                          l2027 2AF4  
                                        l2019 2AE6                                          l2051 2A36  
                                        l2043 2A28                                          l3011 1F98  
                                        l3003 1F80                                          l2221 12BA  
                                        l2213 1282                                          l2205 1256  
                                        l2141 1118                                          l2133 10E0  
                                        l2125 10AE                                          l2117 1096  
                                        l2109 1066                                          l2301 2C30  
                                        l2037 2AFE                                          l2029 2AF6  
                                        l2061 2BC6                                          l2053 2A48  
                                        l2045 2A2A                                          l3101 20E4  
                                        l3021 1FC2                                          l3013 1FAE  
                                        l3005 1F88                                          l2231 1336  
                                        l2223 12EE                                          l2215 1284  
                                        l2207 1264                                          l2151 112C  
                                        l2143 111C                                          l2127 10BE  
                                        l2135 10E8                                          l2119 1098  
                                        l2071 2B30                                          l2303 2C32  
                                        l2311 2BA2                                          l2063 2BCC  
                                        l2055 2A4A                                          l2047 2A2C  
                                        l3111 213C                                          l3103 20E8  
                                        l3031 1FF6                                          l3023 1FCC  
                                        l3015 1FBE                                          l3007 1F90  
                                        l2401 1A62                                          l2241 1372  
                                        l2233 1346                                          l2225 12F0  
                                        l2217 128E                                          l2209 1270  
                                        l2161 1140                                          l2153 1130  
                                        l2145 1120                                          l2137 10F8  
                                        l2129 10CE                                          l2321 2BE0  
                                        l2305 2C5A                                          l2313 2BA6  
                                        l2057 2A4C                                          l2049 2A34  
                                        l2065 2BFC                                          l2081 28D6  
                                        l2073 288E                                          l3113 214C  
                                        l3105 20F6                                          l3041 200E  
                                        l3033 1FFC                                          l3025 1FDC  
                                        l3017 1FC2                                          l3009 1F94  
                                        l2411 1AAE                                          l2403 1A72  
                                        l2251 139E                                          l2243 1374  
                                        l2227 1300                                          l2219 1294  
                                        l2171 1154                                          l2163 1144  
                                        l2155 1134                                          l2147 1124  
                                        l2139 110A                                          l2323 2BE4  
                                        l2307 2C44                                          l2315 2BA8  
                                        l2059 2BC2                                          l2083 28E6  
                                        l2075 289E                                          l2067 2C86  
                                        l2091 27D6                                          l2331 297E  
                                        l3115 2166                                          l3107 2104  
                                        l3051 2024                                          l3043 2012  
                                        l3035 2000                                          l3027 1FEC  
                                        l3019 1FC2                                          l2421 1AF8  
                                        l2413 1ABC                                          l2405 1A82  
                                        l2341 190E                                          l2501 1556  
                                        l2261 13D6                                          l2245 1382  
                                        l2237 135A                                          l2253 13A0  
                                        l2229 1310                                          l2181 11B2  
                                        l2165 1148                                          l2157 1138  
                                        l2149 1128                                          l2173 1158  
                                        l2069 2B30                                          l2325 2BE6  
                                        l2317 2BBE                                          l2309 2BA2  
                                        l2085 28F0                                          l2077 28B2  
                                        l2093 27D8                                          l2333 299A  
                                        l3117 2170                                          l3109 2118  
                                        l3061 2040                                          l3053 202A  
                                        l3045 2016                                          l3037 2006  
                                        l3029 1FF0                                          l2431 1B3E  
                                        l2423 1B0A                                          l2415 1AC8  
                                        l2407 1A8A                                          l2351 194E  
                                        l2343 191C                                          l2511 15AC  
                                        l2503 1566                                          l2271 1454  
                                        l2247 138A                                          l2239 1364  
                                        l2255 13AE                                          l2191 11E8  
                                        l2183 11C8                                          l2175 115C  
                                        l2167 114C                                          l2159 113C  
                                        l2095 1018                                          l2079 28C2  
                                        l2087 279C                                          l2335 299E  
                                        l2327 295C                                          l3119 2180  
                                        l3071 2070                                          l3063 204E  
                                        l3055 202E                                          l3047 201A  
                                        l3039 200A                                          l2441 1B9E  
                                        l2425 1B20                                          l2433 1B50  
                                        l2417 1AE6                                          l2409 1A9A  
                                        l2361 1974                                          l2353 1950  
                                        l2345 191E                                          l2601 18EC  
                                        l2521 15E6                                          l2513 15BC  
                                        l2505 1576                                          l2281 149A  
                                        l2265 1400                                          l2273 1456  
                                        l2257 13B2                                          l2249 138E  
                                        l2193 11F2                                          l2185 11D4  
                                        l2177 1186                                          l2169 1150  
                                        l2097 1024                                          l2089 27A4  
                                        l2337 29A8                                          l2329 2960  
                                        l3081 2092                                          l3073 2074  
                                        l3065 2060                                          l3057 2034  
                                        l3049 201E                                          l2451 1C0C  
                                        l2435 1B5E                                          l2427 1B26  
                                        l2419 1AE8                                          l2371 19B4  
                                        l2363 1982                                          l2347 192E  
                                        l2355 1958                                          l2339 1902  
                                        l2603 18F0                                          l2531 1638  
                                        l2523 15FC                                          l2507 1586  
                                        l2291 14C4                                          l2283 14A8  
                                        l2275 1466                                          l2267 140C  
                                        l2259 13C0                                          l2195 1214  
                                        l2187 11D8                                          l2179 11A2  
                                        l2099 1032                                          l3091 20C2  
                                        l3083 2096                                          l3075 207A  
                                        l3067 2064                                          l3059 203C  
                                        l2461 1C76                                          l2445 1BC8  
                                        l2453 1C10                                          l2437 1B62  
                                        l2429 1B30                                          l2381 19F4  
                                        l2373 19B6                                          l2365 1984  
                                        l2357 1968                                          l2349 193E  
                                        l2541 167E                                          l2533 1646  
                                        l2525 1608                                          l2517 15D0  
                                        l2509 158C                                          l2293 14C6  
                                        l2285 14AE                                          l2277 1476  
                                        l2269 141A                                          l2197 1224  
                                        l2189 11E6                                          l2621 23A0  
                                        l2613 234C                                          l2701 21FE  
                                        l3093 20C6                                          l3085 20A4  
                                        l3077 2082                                          l3069 206A  
                                        l2463 1C7A                                          l2455 1C2A  
                                        l2447 1BD4                                          l2439 1B70  
                                        l2391 1A24                                          l2383 19FC  
                                        l2367 1994                                          l2375 19BE  
                                        l2359 196E                                          l2551 16EC  
                                        l2543 1698                                          l2535 1652  
                                        l2527 1620                                          l2519 15DC  
                                        l2287 14B0                                          l2279 1496  
                                        l2607 2A50                                          l2623 23A2  
                                        l2615 2362                                          l2711 223C  
                                        l2703 2214                                          l3095 20CC  
                                        l3087 20B6                                          l3079 208E  
                                        l2465 1C88                                          l2457 1C40  
                                        l2449 1BE2                                          l2393 1A24  
                                        l2385 1A00                                          l2377 19CE  
                                        l2369 19A4                                          l2561 1782  
                                        l2553 1716                                          l2545 16A8  
                                        l2537 1662                                          l2529 162C  
                                        l2481 14F2                                          l2289 14B6  
                                        l2609 2A60                                          l2625 23B2  
                                        l2721 22C4                                          l2713 226E  
                                        l2297 2C70                                          l2801 24EC  
                                        l3097 20D4                                          l3089 20BC  
                                        l2467 1C8E                                          l2459 1C5A  
                                        l2379 19E4                                          l2571 17C2  
                                        l2563 1790                                          l2555 174C  
                                        l2547 16C4                                          l2539 166E  
                                        l2491 152A                                          l2483 14F4  
                                        l2651 2430                                          l2635 23DC  
                                        l2627 23B6                                          l2619 2376  
                                        l2731 231A                                          l2723 22D2  
                                        l2715 2270                                          l2707 2228  
                                        l2299 2C2C                                          l2811 2512  
                                        l2803 24F0                                          l3099 20E0  
                                        l2469 1C90                                          l2397 1A38  
                                        l2389 1A14                                          l2581 1834  
                                        l2573 17F0                                          l2565 17A2  
                                        l2557 175A                                          l2549 16D0  
                                        l2493 153A                                          l2485 1504  
                                        l2477 14D8                                          l2653 2440  
                                        l2645 2404                                          l2637 23E6  
                                        l2629 23C4                                          l2733 232A  
                                        l2725 22F0                                          l2717 227C  
                                        l2709 2230                                          l2901 272E  
                                        l2821 2B82                                          l2813 251C  
                                        l2805 24FA                                          l2661 2832  
                                        l2741 2A96                                          l2399 1A52  
                                        l2591 18AA                                          l2583 185E  
                                        l2567 17B0                                          l2559 1778  
                                        l2495 1540                                          l2487 1514  
                                        l2479 14E4                                          l2647 2410  
                                        l2639 23F0                                          l2735 2338  
                                        l2727 22F2                                          l2719 22B8  
                                        l2911 2762                                          l2903 2732  
                                        l2823 2B8C                                          l2815 2520  
                                        l2807 2504                                          l2671 286C  
                                        l2663 283A                                          l2831 2682  
                                        l2751 2AAE                                          l2743 2AA0  
                                        l2593 18C6                                          l2577 181A  
                                        l2585 1862                                          l2569 17B4  
                                        l2497 1546                                          l2489 1524  
                                        l2649 2420                                          l2737 233A  
                                        l2729 22F6                                          l2913 2776  
                                        l2905 274E                                          l2921 2544  
                                        l2825 2B9C                                          l2817 252A  
                                        l2809 2508                                          l2673 2874  
                                        l2665 2842                                          l2657 2818  
                                        l2681 2908                                          l2841 26DC  
                                        l2833 2686                                          l2761 2AB8  
                                        l2753 2AB0                                          l2745 2AA4  
                                        l2595 18D6                                          l2587 187C  
                                        l2579 1826                                          l2499 1554  
                                        l2915 2788                                          l2907 275A  
                                        l2931 256C                                          l2923 254A  
                                        l2851 2B76                                          l2843 2B5E  
                                        l2819 2534                                          l2675 2876  
                                        l2667 2850                                          l2659 2820  
                                        l2691 2944                                          l2683 2910  
                                        l2835 26B4                                          l2827 2614  
                                        l2763 2ABA                                          l2755 2AB2  
                                        l2747 2AA6                                          l2771 2C18  
                                        l2597 18E4                                          l2589 1890  
                                        l2861 29C4                                          l2909 275E  
                                        l2941 25A4                                          l2933 2572  
                                        l2925 254E                                          l2917 253A  
                                        l2853 2B7C                                          l2845 2B62  
                                        l2781 247E                                          l2677 287C  
                                        l2669 2856                                          l2693 294A  
                                        l2685 2918                                          l2837 26CE  
                                        l2829 2668                                          l2765 2ABC  
                                        l2757 2AB4                                          l2749 2AA8  
                                        l2773 2C1A                                          l2599 18E6  
                                        l2695 219A                                          l2951 1D50  
                                        l2871 29E4                                          l2863 29CA  
                                        l2855 29B4                                          l2943 2600  
                                        l2935 257A                                          l2927 255E  
                                        l2919 253E                                          l2847 2B6A  
                                        l2791 24C0                                          l2783 2498  
                                        l2775 2452                                          l2687 2926  
                                        l2679 28F6                                          l2839 26D2  
                                        l2767 2ABE                                          l2759 2AB6  
                                        l2697 21AA                                          l2961 1F16  
                                        l2953 1DA0                                          l2873 29EC  
                                        l2865 29D2                                          l2857 29B8  
                                        l2881 26E8                                          l2937 2588  
                                        l2929 2562                                          l2849 2B70  
                                        l2793 24CA                                          l2785 24A0  
                                        l2777 2464                                          l2689 293C  
                                        l2769 2C14                                          l2699 21B8  
                                        l2963 1F6E                                          l2955 1E44  
                                        l2947 1C9C                                          l2875 29F2  
                                        l2867 29D8                                          l2859 29BE  
                                        l2891 2706                                          l2883 26EC  
                                        l2939 2596                                          l2795 24D4  
                                        l2787 24B2                                          l2779 2474  
                                        l2957 1E78                                          l2949 1CAC  
                                        l2877 29F8                                          l2869 29DE  
                                        l2885 26F2                                          l2797 24D8  
                                        l2789 24BC                                          l2959 1EC8  
                                        l2879 29FE                                          l2887 26F8  
                                        l2799 24E2                                          l2897 270E  
                                        l2889 26FC                                          l2899 272A  
                                        STR_1 1001                                          STR_2 1012  
                  BME280_Read_Temperature@lsb 0025                                          STR_3 1014  
                  BME280_Read_Temperature@msb 0024                                          u2000 1B0A  
                                        u2001 1B06                                          u2010 1B20  
                                        u2011 1B1C                                          u2100 1C5A  
                                        u2020 1B3E                                          u2101 1C56  
                                        u2021 1B3A                                          u2110 1C88  
                                        u2030 1B5E                                          u2111 1C84  
                                        u2031 1B5A                                          u2040 1B70  
                                        u2200 1736                                          u2120 14F2  
                                        u1400 28C2                                          u2041 1B6C  
                                        u2121 14EE                                          u1401 28BE  
                                        u2050 1B9E                                          u2210 1790  
                                        u2130 1504                                          u1330 2A1A  
                                        u1410 27D2                                          u2051 1B9A  
                                        u2211 178C                                          u2131 1500  
                                        u1331 2A12                                          u2060 1BB4  
                                        u2300 18E4                                          u2220 17B0  
                                        u2140 1514                                          u1500 10CE  
                                        u1420 2806                                          u2061 1BB0  
                                        u2301 18E0                                          u2221 17AC  
                                        u2205 172C                                          u2141 1510  
                                        u1501 10CA                                          u2070 1BC8  
                                        u2230 17C2                                          u2150 1554  
                                        u1510 110A                                          u2310 2362  
                                        u1350 2BDA                                          u1430 2816  
                                        u2071 1BC4                                          u2231 17BE  
                                        u2151 1550                                          u1511 1106  
                                        u2311 235E                                          u1351 2BD6  
                                        u1431 2812                                          u2080 1BE2  
                                        u2240 17F0                                          u2160 1566  
                                        u1600 1224                                          u1520 1118  
                                        u1440 1032                                          u2320 2396  
                                        u1360 2B42                                          u2400 286C  
                                        _LATD 0F8C                                          u2081 1BDE  
                                        u2241 17EC                                          u2161 1562  
                                        u1601 1220                                          u1521 1114  
                                        u1441 102E                                          u1361 2B3A  
                                        u1417 27C8                                          u2401 2868  
                                        u2090 1C2A                                          u2250 1806  
                                        u2170 1576                                          u1610 1256  
                                        u1530 1186                                          u1450 1044  
                                        u2330 23C4                                          u1370 2B5A  
                                        u2410 2908                                          u2091 1C26  
                                        u2251 1802                                          u2171 1572  
                                        u1611 1252                                          u1531 1182  
                                        u1451 1040                                          u2331 23C0  
                                        u1371 2B56                                          u1427 27FC  
                                        u2411 2904                                          u2260 181A  
                                        u2180 15AC                                          u1700 139E  
                                        u1620 1264                                          u1540 119E  
                                        u1460 1054                                          u2340 23D8  
                                        u2500 22E2                                          u1348 2A1C  
                                        u1380 289E                                          u2420 2926  
                                        u2261 1816                                          u2181 15A8  
                                        u1701 139A                                          u1621 1260  
                                        u1541 1198                                          u1461 1050  
                                        u2341 23D4                                          u2325 238C  
                                        u2501 22DE                                          u1381 289A  
                                        u2421 2922                                          u2270 1834  
                                        u2190 15BC                                          u1710 13AE  
                                        u1630 1282                                          u1550 11A0  
                                        u1470 1096                                          u2350 2400  
                                        u2510 22F0                                          u1390 28AE  
                                        u2430 293C                                          u2271 1830  
                                        u2191 15B8                                          u1711 13AA  
                                        u1631 127E                                          u1471 1092  
                                        u2351 23FC                                          u2511 22EC  
                                        u1391 28AA                                          u2431 2938  
                                        u2280 187C                                          u1800 1496  
                                        u1720 13C0                                          u1640 12BA  
                                        u1560 11C8                                          u1480 10AC  
                                        u2360 2420                                          u2520 232A  
                                        u2440 21AA                                          u1368 2B44  
                                        u2600 2060                                          u2281 1878  
                                        u1801 1492                                          u1721 13BC  
                                        u1641 12B6                                          u1561 11C4  
                                        u1481 10A8                                          u2361 241C  
                                        u2521 2326                                          u2441 21A6  
                                        u2601 205C                                          u2290 18AA  
                                        u1810 14A8                                          u1730 13D6  
                                        u1650 1300                                          u1570 11E6  
                                        u1490 10BE                                          u2370 2430  
                                        u2530 2338                                          u2450 21B8  
                                        u2291 18A6                                          u1811 14A4  
                                        u1731 13D2                                          u1651 12FC  
                                        u1571 11E2                                          u1491 10BA  
                                        u2371 242C                                          u2531 2334  
                                        u2451 21B4                                          u1900 192E  
                                        u1820 14C4                                          u1740 13EC  
                                        u1660 1336                                          u1580 1206  
                                        u2460 2214                                          u2380 2832  
                                        u2540 2C2A                                          u1901 192A  
                                        u1821 14C0                                          u1741 13E8  
                                        u1661 1332                                          u1581 1202  
                                        u2461 2210                                          u2381 282E  
                                        u2541 2C26                                          u1910 193E  
                                        u1750 1400                                          u1670 1346  
                                        u1590 1214                                          u2470 226A  
                                        u1830 2C82                                          u2550 274E  
                                        u2390 2850                                          u1911 193A  
                                        u1751 13FC                                          u1671 1342  
                                        u1591 1210                                          u2471 2266  
                                        u1831 2C7E                                          u2551 274A  
                                        u2391 284C                                          u1920 1982  
                                        u1760 141A                                          u1680 1372  
                                        u2480 22B4                                          u1840 2C42  
                                        u1921 197E                                          u1761 1416  
                                        u1681 136E                                          u2481 22B0  
                                        u1841 2C3E                                          u2617 1FB4  
                                        u1930 1994                                          u1770 1454  
                                        u1690 1382                                          u2490 22D2  
                                        u1850 2C6E                                          u1931 1990  
                                        u1771 1450                                          u1691 137E  
                                        u2491 22CE                                          u1851 2C6A  
                                        u2627 1FE2                                          u1940 19A4  
                                        u1780 1466                                          u1860 2C58  
                                        u1941 19A0                                          u1781 1462  
                                        u1861 2C54                                          u2565 25C4  
                                        u2637 2186                                          u1950 19E4  
                                        u1790 1476                                          u1870 2BB8  
                                        u1951 19E0                                          u1791 1472  
                                        u1871 2BB4                                          u2647 246A  
                                        u1960 1A24                                          u1880 2BF8  
                                        u1961 1A20                                          u1881 2BF4  
                                        u2657 2484                                          u1970 1A9A  
                                        u1890 191C                                          u1971 1A96  
                                        u1891 1918                                          u2667 249A  
                                        u1980 1ABC                                          u1981 1AB8  
                                        u2677 24AC                                          u1990 1AE6  
                                        u1991 1AE2                                          u2687 2B92  
                                        _main 1F80                                          fsr0h 0FEA  
                                        indf0 0FEF                                          fsr2h 0FDA  
                                        fsr0l 0FE9                                          fsr2l 0FD9  
                           ??_i2c_waitForIdle 0001                                          prodh 0FF4  
                                        prodl 0FF3                                          start 0000  
                             ___fldiv@new_exp 0030                                 ?_i2c_repStart 0001  
                             __end_of_i2c_ACK 2C70                               __end_of_i2c_NAK 2C5A  
                                ___param_bank 0000                              __end_of_LCDClear 2BA2  
                             __end_of_WaitLCD 2BDE                                 ?_LCDWriteHexa 000C  
                               ___fltol@sign1 0040                               __end_of___fladd 14D8  
                                       ?_main 005A                               __end_of___fldiv 1C9C  
                             __end_of___flmul 1902                               __end_of___flsub 2A96  
                             __end_of___fltol 2452                   BME280_Read_Temperature@xlsb 0026  
                             __end_of___lwdiv 288C                               __end_of___lwmod 295A  
                                       _PORTD 0F83                                 _LCDWriteFloat 2612  
          BME280_Compensate_Temperature@adc_T 0042                                         tablat 0FF5  
                                       status 0FD8                              main@check_mesure 0097  
                               WaitLCD@status 0002                                ??_i2c_repStart 0002  
                             __initialization 2B02                                  __end_of_main 2198  
                              ??_LCDWriteHexa 000E                              __end_of_i2c_init 2AD2  
                            __end_of_i2c_read 2BC2                              __end_of_ReadByte 2B02  
                            __end_of_i2c_stop 2C44              BME280_Read_Compensation_Params@i 0011  
                                      ??_main 005F                                 __activetblptr 0002  
                              ?_LCDWriteFloat 0047                                     ??_LCDInit 0004  
                                   ??_LCDGoto 0007                  BME280_Read_Temperature@adc_T 0020  
                               LCDGoto@column 000B                                     ??_i2c_ACK 0001  
                                      _SSPBUF 0FC9                                     ??_i2c_NAK 0001  
                            __end_of___xxtofl 234C                                     ??_WaitLCD 0002  
                                   ??___fladd 0009                                     ??___fldiv 0027  
                                   ??___flmul 0027                                     ??___flsub 0040  
                                   ??___fltol 003C                                     ??___lwdiv 0005  
                                   ??___lwmod 0046                                        _t_fine 0081  
                                      clear_0 2B20                                        isa$std 0001  
                       i2c_write@i2cWriteData 0002                                  __mediumconst 0000  
                                      tblptrh 0FF7                                  LCDWriteStr@i 000B  
                                      tblptrl 0FF6                                        tblptru 0FF8  
          _BME280_Compensate_Temperature$1705 004E                                  ___xxtofl@arg 001B  
                                ___xxtofl@exp 001A                                     ?_LCDClear 0001  
                                ___xxtofl@val 0011                                    __accesstop 0060  
                     __end_of__initialization 2B26                                 ___rparam_used 0001  
                                  ___fltol@f1 0038             BME280_Compensate_Temperature@var1 0052  
           BME280_Compensate_Temperature@var2 0056                                __pcstackCOMRAM 0001  
                              WriteNibble@cmd 0003                                  __pidataBANK0 2C96  
                                ??_LCDPutChar 0006                               ??_LCDWriteFloat 004C  
                           __end_of_i2c_start 2C84                             __end_of_i2c_write 2BFA  
                   I2C_Write_Register@address 0005                          __end_of_i2c_repStart 2C2C  
                             _i2c_waitForIdle 2B30                           i2c_read@i2cReadData 0002  
                        __end_of_LCDWriteHexa 29B4                                    __pbssBANK0 0060  
                               ??_BME280_Init 0003                                  WriteByte@cmd 0005  
                                  ??_LCDClear 0006                                     ?_i2c_init 0001  
                                   ?_i2c_read 0001                                     ?_ReadByte 0001  
                                   ?_i2c_stop 0001           BME280_Read_Compensation_Params@data 0005  
                          __end_of_LCDPutChar 2C96                             LCDWriteHexa@value 000D  
                         LCDWriteFloat@column 004C                       _BME280_Read_Temperature 253A  
                         LCDWriteFloat@string 004D                                 ??_WriteNibble 0002  
                           __end_of_WriteByte 2C14                                       _LCDInit 2452  
                                     _LCDGoto 288C                                     ?___xxtofl 0011  
                                  _compParams 0060                                       _SSP1ADD 0FC8  
                                     _SSP1BUF 0FC9                                    ??_i2c_init 0001  
                                  ??_i2c_read 0002                                    ??_ReadByte 0001  
                                  ??_i2c_stop 0002                                       _i2c_ACK 2C5A  
                                     _i2c_NAK 2C44                                       __Hparam 0000  
                                     _WaitLCD 2BC2                                       __Lparam 0000  
                         __end_of_BME280_Init 2A04                                       ___fladd 1018  
                                     ___fldiv 1902                                       ___flmul 14D8  
                                     ___flsub 2A50                                       ___fltol 234C  
                                     ___lwdiv 2818                                       ___lwmod 28F6  
                                __psmallconst 1000                                       __pcinit 2B02  
                  __end_of_I2C_Write_Register 2B82                                       __ramtop 1000  
                     __end_of_i2c_waitForIdle 2B5C                                       __ptext0 1F80  
                                     __ptext1 2C14                                       __ptext2 2A96  
                                     __ptext3 2612                                       __ptext4 28F6  
                                     __ptext5 2818                                       __ptext6 2452  
                                     __ptext7 2B82                                       __ptext8 2B5C  
                                     __ptext9 253A                                    ??___xxtofl 0015  
                         __end_of_WriteNibble 2A50                          end_of_initialization 2B26  
                               __Lmediumconst 0000                     ??_BME280_Read_Temperature 0019  
                           LCDWriteStr@string 0007               ??_BME280_Compensate_Temperature 0046  
                                     postdec2 0FDD                                       postinc0 0FEE  
                                     postinc2 0FDE                         I2C_Write_Register@reg 0007  
                                 ___fladd@grs 0010                                 ___xxtofl@sign 0019  
                                   _TRISCbits 0F94                                     _TRISDbits 0F95  
                                 ___fldiv@grs 0032                                   ___fldiv@rem 002B  
                                 _BME280_Init 29B4                                   ___flmul@grs 002C  
                                  LCDGoto@row 0006                                    main@hygro1 0093  
                                  main@hygro2 0094                                  _i2c_repStart 2C14  
                             WriteNibble@data 0001                                   _WriteNibble 2A04  
                                _LCDWriteHexa 295A                              ?_i2c_waitForIdle 0001  
                         start_initialization 2B02                                     _i2c_start 2C70  
                                   _i2c_write 2BDE                                 ??_LCDWriteStr 0009  
                                 __pdataBANK0 0098         __end_of_BME280_Compensate_Temperature 1F80  
               _BME280_Compensate_Temperature 1C9C                                     ___fladd@a 0005  
                                   ___fladd@b 0001                         __end_of_LCDWriteFloat 26E8  
                                    ?_LCDInit 0001                                      ?_LCDGoto 0006  
                                   ___fldiv@a 0023                                     ___fldiv@b 001F  
                               WriteByte@data 0004                                     ___flmul@a 0023  
                                   ___flmul@b 001F                                     ___flsub@a 003C  
                                   ___flsub@b 0038                                 __pcstackBANK0 0085  
                                  ?_i2c_start 0001                                    ?_i2c_write 0001  
                                   _WriteByte 2BFA       __end_of_BME280_Read_Compensation_Params 279C  
           ??_BME280_Read_Compensation_Params 0003              ?_BME280_Read_Compensation_Params 0001  
             _BME280_Read_Compensation_Params 26E8                                LCDPutChar@data 0006  
                          LCDWriteHexa@column 0010                            LCDWriteHexa@string 0011  
                                    ?_i2c_ACK 0001                                      ?_i2c_NAK 0001  
                         __end_of_LCDWriteStr 2818                              LCDWriteHexa@hexa 0014  
                        LCDWriteFloat@integer 0052                                      ?_WaitLCD 0001  
                            ___lwdiv@dividend 0001                            LCDWriteFloat@value 0048  
                            LCDWriteFloat@row 0047                                      ?___fladd 0001  
                                    ?___fldiv 001F                                      ?___flmul 001F  
                                    ?___flsub 0038                                      ?___fltol 0038  
                                    ?___lwdiv 0001                                      ?___lwmod 0042  
                                 __smallconst 1000                                    ?_WriteByte 0004  
                            ___lwdiv@quotient 0005                            _I2C_Write_Register 2B5C  
                                    _LCDClear 2B82                                      _LATDbits 0F8C  
                         ?_I2C_Write_Register 0003                                   _LCDGoto$623 0009  
                                    _PIR1bits 0F9E                                      _PIR2bits 0FA1  
                                   main@F6603 0098      BME280_Compensate_Temperature@temperature 004A  
                                    _SSP1CON1 0FC6                                      _SSP1CON2 0FC5  
                                    _SSP1STAT 0FC7                              main@temp_celsius 008F  
                        ??_I2C_Write_Register 0007                                     main@adc_T 0087  
                                   main@degre 0085                                     main@watt1 0095  
                                   main@watt2 0096                ?_BME280_Compensate_Temperature 0042  
                                 ??_i2c_start 0001                                   ??_i2c_write 0002  
                                 _LCDWriteStr 279C                                  ?_BME280_Init 0001  
                                    _i2c_init 2A96                                      _i2c_read 2BA2  
                                    _ReadByte 2AD2                                      _i2c_stop 2C2C  
                                    __Hrparam 0000                                      __Lrparam 0000  
                                ?_WriteNibble 0001                                    _ANSELCbits 0F3A  
                                    ___xxtofl 2198                               LCDWriteHexa@row 000C  
                             ___lwdiv@divisor 0003                                   ??_WriteByte 0005  
                             ___lwdiv@counter 0007                                      __ptext10 295A  
                                    __ptext11 279C                                      __ptext20 2C44  
                                    __ptext12 2C84                                      __ptext21 2C5A  
                                    __ptext13 288C                                      __ptext30 2A50  
                                    __ptext22 29B4                                      __ptext14 2BFA  
                                    __ptext31 1018                                      __ptext23 2BDE  
                                    __ptext15 2A04                                      __ptext32 14D8  
                                    __ptext24 2C2C                                      __ptext16 2BC2  
                                    __ptext33 1902                                      __ptext25 2B30  
                                    __ptext17 2AD2                                      __ptext26 2C70  
                                    __ptext18 26E8                                      __ptext27 1C9C  
                                    __ptext19 2BA2                                      __ptext28 2198  
                                    __ptext29 234C                                  _SSP1CON2bits 0FC5  
                                _SSP1CON3bits 0FCB                      ?_BME280_Read_Temperature 0015  
                                    isa$xinst 0000                                ReadByte@status 0001  
                                  _LCDPutChar 2C84                                      main@argc 005A  
                                    main@argv 005C                                  _SSP1STATbits 0FC7  
                             main@temperature 008B                              ___lwmod@dividend 0042  
BME280_Compensate_Temperature@temperature_max 0046                       I2C_Write_Register@value 0003  
                             ___lwmod@divisor 0044                               ___lwmod@counter 0046  
             __end_of_BME280_Read_Temperature 2612                                   _SSPCON2bits 0FC5  
                               ___fladd@signs 000D                                  ___fladd@aexp 000E  
                                ___fladd@bexp 000F  
